(dp1
I0
S'a'
sI1
S'christmas'
p2
sI2
S'carolin'
p3
sI3
S'prosebeing'
p4
sI4
S'ghost'
p5
sI5
S'story'
p6
sI6
S'of'
p7
sI7
S'christmasstave'
p8
sI8
S'onemarley'
p9
sI9
S"'s"
p10
sI10
S'ghostmarley'
p11
sI11
S'was'
p12
sI12
S'dead'
p13
sI13
S','
sI14
S'to'
p14
sI15
S'begin'
p15
sI16
S'with'
p16
sI17
S'.'
sI18
S'there'
p17
sI19
S'is'
p18
sI20
S'no'
p19
sI21
S'doubt'
p20
sI22
S'whatever'
p21
sI23
S'about'
p22
sI24
S'that.the'
p23
sI25
S'register'
p24
sI26
S'his'
p25
sI27
S'burial'
p26
sI28
S'signed'
p27
sI29
S'by'
p28
sI30
S'the'
p29
sI31
S'clergyman'
p30
sI32
S'clerk'
p31
sI33
S'theundertaker'
p32
sI34
S'and'
p33
sI35
S'chief'
p34
sI36
S'mourner'
p35
sI37
S'scrooge'
p36
sI38
S'it'
p37
sI39
S'namewas'
p38
sI40
S'good'
p39
sI41
S'upon'
p40
sI42
S"'change"
p41
sI43
S'for'
p42
sI44
S'anything'
p43
sI45
S'he'
p44
sI46
S'chose'
p45
sI47
S'put'
p46
sI48
S'hand'
p47
sI49
S'oldmarley'
p48
sI50
S'as'
p49
sI51
S'door-nail.mind'
p50
sI52
S'!'
sI53
S'i'
sI54
S'do'
p51
sI55
S"n't"
p52
sI56
S'mean'
p53
sI57
S'say'
p54
sI58
S'that'
p55
sI59
S'know'
p56
sI60
S'my'
p57
sI61
S'own'
p58
sI62
S'knowledge'
p59
sI63
S'what'
p60
sI64
S'thereis'
p61
sI65
S'particularly'
p62
sI66
S'door-nail'
p63
sI67
S'might'
p64
sI68
S'have'
p65
sI69
S'been'
p66
sI70
S'inclined'
p67
sI71
S'myself'
p68
sI72
S'regard'
p69
sI73
S'coffin-nail'
p70
sI74
S'deadest'
p71
sI75
S'piece'
p72
sI76
S'ironmongery'
p73
sI77
S'inthe'
p74
sI78
S'trade'
p75
sI79
S'but'
p76
sI80
S'wisdom'
p77
sI81
S'our'
p78
sI82
S'ancestors'
p79
sI83
S'in'
p80
sI84
S'simile'
p81
sI85
S';'
sI86
S'myunhallowed'
p82
sI87
S'hands'
p83
sI88
S'shall'
p84
sI89
S'not'
p85
sI90
S'disturb'
p86
sI91
S'or'
p87
sI92
S'country'
p88
sI93
S'done'
p89
sI94
S'youwill'
p90
sI95
S'therefore'
p91
sI96
S'permit'
p92
sI97
S'me'
p93
sI98
S'repeat'
p94
sI99
S'emphatically'
p95
sI100
S'marley'
p96
sI101
S'asdead'
p97
sI102
S'door-nail.scrooge'
p98
sI103
S'knew'
p99
sI104
S'?'
sI105
S'course'
p100
sI106
S'did'
p101
sI107
S'how'
p102
sI108
S'could'
p103
sI109
S'be'
p104
sI110
S'otherwise'
p105
sI111
S'were'
p106
sI112
S'partners'
p107
sI113
S'many'
p108
sI114
S'years'
p109
sI115
S'scroogewas'
p110
sI116
S'sole'
p111
sI117
S'executor'
p112
sI118
S'administrator'
p113
sI119
S'assign'
p114
sI120
S'hissole'
p115
sI121
S'residuary'
p116
sI122
S'legatee'
p117
sI123
S'friend'
p118
sI124
S'evenscrooge'
p119
sI125
S'so'
p120
sI126
S'dreadfully'
p121
sI127
S'cut'
p122
sI128
S'up'
p123
sI129
S'sad'
p124
sI130
S'event'
p125
sI131
S'wasan'
p126
sI132
S'excellent'
p127
sI133
S'man'
p128
sI134
S'business'
p129
sI135
S'on'
p130
sI136
S'very'
p131
sI137
S'day'
p132
sI138
S'funeral'
p133
sI139
S'andsolemnised'
p134
sI140
S'an'
p135
sI141
S'undoubted'
p136
sI142
S'bargain.the'
p137
sI143
S'mention'
p138
sI144
S'brings'
p139
sI145
S'back'
p140
sI146
S'point'
p141
sI147
S'startedfrom'
p142
sI148
S'this'
p143
sI149
S'must'
p144
sI150
S'distinctlyunderstood'
p145
sI151
S'nothing'
p146
sI152
S'wonderful'
p147
sI153
S'can'
p148
sI154
S'come'
p149
sI155
S'am'
p150
sI156
S'going'
p151
sI157
S'torelate'
p152
sI158
S'if'
p153
sI159
S'we'
p154
sI160
S'perfectly'
p155
sI161
S'convinced'
p156
sI162
S'hamlet'
p157
sI163
S'father'
p158
sI164
S'diedbefore'
p159
sI165
S'play'
p160
sI166
S'began'
p161
sI167
S'would'
p162
sI168
S'more'
p163
sI169
S'remarkable'
p164
sI170
S'histaking'
p165
sI171
S'stroll'
p166
sI172
S'at'
p167
sI173
S'night'
p168
sI174
S'easterly'
p169
sI175
S'wind'
p170
sI176
S'ramparts'
p171
sI177
S'than'
p172
sI178
S'any'
p173
sI179
S'other'
p174
sI180
S'middle-aged'
p175
sI181
S'gentleman'
p176
sI182
S'rashly'
p177
sI183
S'turningout'
p178
sI184
S'after'
p179
sI185
S'dark'
p180
sI186
S'breezy'
p181
sI187
S'spot'
p182
sI188
S'--'
p183
sI189
S'st.'
p184
sI190
S'paul'
p185
sI191
S'church-yard'
p186
sI192
S'forinstance'
p187
sI193
S'literally'
p188
sI194
S'astonish'
p189
sI195
S'son'
p190
sI196
S'weak'
p191
sI197
S'mind.scrooge'
p192
sI198
S'never'
p193
sI199
S'painted'
p194
sI200
S'out'
p195
sI201
S'old'
p196
sI202
S'name'
p197
sI203
S'stood'
p198
sI204
S'yearsafterwards'
p199
sI205
S'above'
p200
sI206
S'warehouse'
p201
sI207
S'door'
p202
sI208
S':'
sI209
S'firm'
p203
sI210
S'wasknown'
p204
sI211
S'sometimes'
p205
sI212
S'people'
p206
sI213
S'new'
p207
sI214
S'calledscrooge'
p208
sI215
S'answered'
p209
sI216
S'both'
p210
sI217
S'names'
p211
sI218
S'itwas'
p212
sI219
S'all'
p213
sI220
S'same'
p214
sI221
S'him.oh'
p215
sI222
S'tight-fisted'
p216
sI223
S'grindstone'
p217
sI224
S'asqueezing'
p218
sI225
S'wrenching'
p219
sI226
S'grasping'
p220
sI227
S'scraping'
p221
sI228
S'clutching'
p222
sI229
S'covetous'
p223
sI230
S'oldsinner'
p224
sI231
S'hard'
p225
sI232
S'sharp'
p226
sI233
S'flint'
p227
sI234
S'from'
p228
sI235
S'which'
p229
sI236
S'steel'
p230
sI237
S'had'
p231
sI238
S'ever'
p232
sI239
S'struck'
p233
sI240
S'outgenerous'
p234
sI241
S'fire'
p235
sI242
S'secret'
p236
sI243
S'self-contained'
p237
sI244
S'solitary'
p238
sI245
S'oyster.the'
p239
sI246
S'cold'
p240
sI247
S'within'
p241
sI248
S'him'
p242
sI249
S'froze'
p243
sI250
S'features'
p244
sI251
S'nipped'
p245
sI252
S'pointed'
p246
sI253
S'nose'
p247
sI254
S'shrivelled'
p248
sI255
S'cheek'
p249
sI256
S'stiffened'
p250
sI257
S'gait'
p251
sI258
S'made'
p252
sI259
S'eyes'
p253
sI260
S'red'
p254
sI261
S'thinlips'
p255
sI262
S'blue'
p256
sI263
S'spoke'
p257
sI264
S'shrewdly'
p258
sI265
S'grating'
p259
sI266
S'voice'
p260
sI267
S'frosty'
p261
sI268
S'rimewas'
p262
sI269
S'head'
p263
sI270
S'eyebrows'
p264
sI271
S'wiry'
p265
sI272
S'chin'
p266
sI273
S'carried'
p267
sI274
S'hisown'
p268
sI275
S'low'
p269
sI276
S'temperature'
p270
sI277
S'always'
p271
sI278
S'iced'
p272
sI279
S'office'
p273
sI280
S'thedog-days'
p274
sI281
S'thaw'
p275
sI282
S'one'
p276
sI283
S'degree'
p277
sI284
S'christmas.external'
p278
sI285
S'heat'
p279
sI286
S'little'
p280
sI287
S'influence'
p281
sI288
S'warmth'
p282
sI289
S'couldwarm'
p283
sI290
S'wintry'
p284
sI291
S'weather'
p285
sI292
S'chill'
p286
sI293
S'blew'
p287
sI294
S'bitterer'
p288
sI295
S'thanhe'
p289
sI296
S'falling'
p290
sI297
S'snow'
p291
sI298
S'intent'
p292
sI299
S'its'
p293
sI300
S'purpose'
p294
sI301
S'pelting'
p295
sI302
S'rainless'
p296
sI303
S'open'
p297
sI304
S'entreaty'
p298
sI305
S'foul'
p299
sI306
S'where'
p300
sI307
S'theheaviest'
p301
sI308
S'rain'
p302
sI309
S'hail'
p303
sI310
S'sleet'
p304
sI311
S'boast'
p305
sI312
S'theadvantage'
p306
sI313
S'over'
p307
sI314
S'only'
p308
sI315
S'respect'
p309
sI316
S'they'
p310
sI317
S'often'
p311
sI318
S'``'
p312
sI319
S'came'
p313
sI320
S'down'
p314
sI321
S"''"
p315
sI322
S'handsomely'
p316
sI323
S'did.nobody'
p317
sI324
S'stopped'
p318
sI325
S'street'
p319
sI326
S'gladsome'
p320
sI327
S'looks'
p321
sI328
S'mydear'
p322
sI329
S'are'
p323
sI330
S'you'
p324
sI331
S'when'
p325
sI332
S'will'
p326
sI333
S'see'
p327
sI334
S'beggarsimplored'
p328
sI335
S'bestow'
p329
sI336
S'trifle'
p330
sI337
S'children'
p331
sI338
S'asked'
p332
sI339
S"waso'clock"
p333
sI340
S'woman'
p334
sI341
S'once'
p335
sI342
S'life'
p336
sI343
S'inquired'
p337
sI344
S'way'
p338
sI345
S'tosuch'
p339
sI346
S'such'
p340
sI347
S'place'
p341
sI348
S'even'
p342
sI349
S'blind'
p343
sI350
S'men'
p344
sI351
S'dogs'
p345
sI352
S'appeared'
p346
sI353
S'toknow'
p347
sI354
S'saw'
p348
sI355
S'coming'
p349
sI356
S'tug'
p350
sI357
S'their'
p351
sI358
S'owners'
p352
sI359
S'intodoorways'
p353
sI360
S'courts'
p354
sI361
S'then'
p355
sI362
S'wag'
p356
sI363
S'tails'
p357
sI364
S'though'
p358
sI365
S'theysaid'
p359
sI366
S'eye'
p360
sI367
S'better'
p361
sI368
S'evil'
p362
sI369
S'master'
p363
sI370
S'care'
p364
sI371
S'thing'
p365
sI372
S'liked'
p366
sI373
S'edge'
p367
sI374
S'hisway'
p368
sI375
S'along'
p369
sI376
S'crowded'
p370
sI377
S'paths'
p371
sI378
S'warning'
p372
sI379
S'human'
p373
sI380
S'sympathy'
p374
sI381
S'keepits'
p375
sI382
S'distance'
p376
sI383
S'knowing'
p377
sI384
S'ones'
p378
sI385
S'call'
p379
sI386
S'nuts'
p380
sI387
S'scrooge.once'
p381
sI388
S'time'
p382
sI389
S'days'
p383
sI390
S'year'
p384
sI391
S'christmaseve'
p385
sI392
S'sat'
p386
sI393
S'busy'
p387
sI394
S'counting-house'
p388
sI395
S'bleak'
p389
sI396
S'biting'
p390
sI397
S'foggy'
p391
sI398
S'withal'
p392
sI399
S'hear'
p393
sI400
S'courtoutside'
p394
sI401
S'go'
p395
sI402
S'wheezing'
p396
sI403
S'beating'
p397
sI404
S'breasts'
p398
sI405
S'stamping'
p399
sI406
S'feet'
p400
sI407
S'pavement'
p401
sI408
S'stones'
p402
sI409
S'warm'
p403
sI410
S'them'
p404
sI411
S'cityclocks'
p405
sI412
S'just'
p406
sI413
S'gone'
p407
sI414
S'three'
p408
sI415
S'quite'
p409
sI416
S'already'
p410
sI417
S'hadnot'
p411
sI418
S'light'
p412
sI419
S'candles'
p413
sI420
S'flaring'
p414
sI421
S'windows'
p415
sI422
S'theneighbouring'
p416
sI423
S'offices'
p417
sI424
S'like'
p418
sI425
S'ruddy'
p419
sI426
S'smears'
p420
sI427
S'palpable'
p421
sI428
S'brown'
p422
sI429
S'air'
p423
sI430
S'thefog'
p424
sI431
S'pouring'
p425
sI432
S'every'
p426
sI433
S'chink'
p427
sI434
S'keyhole'
p428
sI435
S'densewithout'
p429
sI436
S'although'
p430
sI437
S'court'
p431
sI438
S'narrowest'
p432
sI439
S'housesopposite'
p433
sI440
S'mere'
p434
sI441
S'phantoms'
p435
sI442
S'dingy'
p436
sI443
S'cloud'
p437
sI444
S'drooping'
p438
sI445
S'obscuring'
p439
sI446
S'everything'
p440
sI447
S'thought'
p441
sI448
S'nature'
p442
sI449
S'lived'
p443
sI450
S'byand'
p444
sI451
S'brewing'
p445
sI452
S'large'
p446
sI453
S'scale.the'
p447
sI454
S'keep'
p448
sI455
S'hiseye'
p449
sI456
S'who'
p450
sI457
S'dismal'
p451
sI458
S'cell'
p452
sI459
S'beyond'
p453
sI460
S'sort'
p454
sI461
S'tank'
p455
sI462
S'copying'
p456
sI463
S'letters'
p457
sI464
S'small'
p458
sI465
S'firewas'
p459
sI466
S'much'
p460
sI467
S'smaller'
p461
sI468
S'looked'
p462
sI469
S'coal'
p463
sI470
S"couldn'treplenish"
p464
sI471
S'kept'
p465
sI472
S'coal-box'
p466
sI473
S'room'
p467
sI474
S'sosurely'
p468
sI475
S'shovel'
p469
sI476
S'predicted'
p470
sI477
S'thatit'
p471
sI478
S'necessary'
p472
sI479
S'part'
p473
sI480
S'wherefore'
p474
sI481
S'hiswhite'
p475
sI482
S'comforter'
p476
sI483
S'tried'
p477
sI484
S'himself'
p478
sI485
S'candle'
p479
sI486
S'whicheffort'
p480
sI487
S'being'
p481
sI488
S'strong'
p482
sI489
S'imagination'
p483
sI490
S'failed'
p484
sI491
S'merry'
p485
sI492
S'uncle'
p486
sI493
S'god'
p487
sI494
S'save'
p488
sI495
S'cried'
p489
sI496
S'cheerful'
p490
sI497
S'wasthe'
p491
sI498
S'nephew'
p492
sI499
S'quickly'
p493
sI500
S'thiswas'
p494
sI501
S'first'
p495
sI502
S'intimation'
p496
sI503
S'approach.'
p497
sI504
S'bah'
p498
sI505
S'said'
p499
sI506
S'humbug'
p500
sI507
S'heated'
p501
sI508
S'rapid'
p502
sI509
S'walking'
p503
sI510
S'fog'
p504
sI511
S'frost'
p505
sI512
S'thisnephew'
p506
sI513
S'glow'
p507
sI514
S'face'
p508
sI515
S'andhandsome'
p509
sI516
S'sparkled'
p510
sI517
S'breath'
p511
sI518
S'smoked'
p512
sI519
S'again'
p513
sI520
S'meanthat'
p514
sI521
S'sure'
p515
sI522
S'right'
p516
sI523
S'reason'
p517
sI524
S"'re"
p518
sI525
S'poor'
p519
sI526
S'enough'
p520
sI527
S'returned'
p521
sI528
S'gaily'
p522
sI529
S'bedismal'
p523
sI530
S'morose'
p524
sI531
S'rich'
p525
sI532
S'having'
p526
sI533
S'answer'
p527
sI534
S'ready'
p528
sI535
S'spur'
p529
sI536
S'moment'
p530
sI537
S'followed'
p531
sI538
S'cross'
p532
sI539
S'['
sI540
S'illustration'
p533
sI541
S'_'
sI542
S'acheerful'
p534
sI543
S'voice._'
p535
sI544
S']'
sI545
S'else'
p536
sI546
S'live'
p537
sI547
S'worldof'
p538
sI548
S'fools'
p539
sI549
S"what'schristmas-time"
p540
sI550
S'paying'
p541
sI551
S'bills'
p542
sI552
S'without'
p543
sI553
S'money'
p544
sI554
S'timefor'
p545
sI555
S'finding'
p546
sI556
S'yourself'
p547
sI557
S'older'
p548
sI558
S'hour'
p549
sI559
S'richer'
p550
sI560
S'forbalancing'
p551
sI561
S'your'
p552
sI562
S'books'
p553
sI563
S'item'
p554
sI564
S"'em"
p555
sI565
S'through'
p556
sI566
S'round'
p557
sI567
S'dozenof'
p558
sI568
S'months'
p559
sI569
S'presented'
p560
sI570
S'against'
p561
sI571
S'work'
p562
sI572
S'saidscrooge'
p563
sI573
S'indignantly'
p564
sI574
S'idiot'
p565
sI575
S'goes'
p566
sI576
S"'merry"
p567
sI577
S"christmas'on"
p568
sI578
S'lips'
p569
sI579
S'should'
p570
sI580
S'boiled'
p571
sI581
S'pudding'
p572
sI582
S'buried'
p573
sI583
S'astake'
p574
sI584
S'holly'
p575
sI585
S'heart'
p576
sI586
S'pleaded'
p577
sI587
S'nephew.'
p578
sI588
S'sternly'
p579
sI589
S'let'
p580
sI590
S'mine'
p581
sI591
S'repeated'
p582
sI592
S'leave'
p583
sI593
S'alone'
p584
sI594
S'may'
p585
sI595
S'has'
p586
sI596
S'things'
p587
sI597
S'derived'
p588
sI598
S'ihave'
p589
sI599
S'profited'
p590
sI600
S'dare'
p591
sI601
S'amongthe'
p592
sI602
S'rest'
p593
sI603
S'christmas-time'
p594
sI604
S'ithas'
p595
sI605
S'apart'
p596
sI606
S'veneration'
p597
sI607
S'due'
p598
sI608
S'sacred'
p599
sI609
S'andorigin'
p600
sI610
S'belonging'
p601
sI611
S'goodtime'
p602
sI612
S'kind'
p603
sI613
S'forgiving'
p604
sI614
S'charitable'
p605
sI615
S'pleasant'
p606
sI616
S'knowof'
p607
sI617
S'long'
p608
sI618
S'calendar'
p609
sI619
S'women'
p610
sI620
S'seem'
p611
sI621
S'oneconsent'
p612
sI622
S'shut-up'
p613
sI623
S'hearts'
p614
sI624
S'freely'
p615
sI625
S'think'
p616
sI626
S'peoplebelow'
p617
sI627
S'really'
p618
sI628
S'fellow-passengers'
p619
sI629
S'grave'
p620
sI630
S'andnot'
p621
sI631
S'another'
p622
sI632
S'race'
p623
sI633
S'creatures'
p624
sI634
S'bound'
p625
sI635
S'journeys'
p626
sI636
S'scrap'
p627
sI637
S'gold'
p628
sI638
S'silver'
p629
sI639
S'pocket'
p630
sI640
S'ibelieve'
p631
sI641
S'_has_'
p632
sI642
S'_will_'
p633
sI643
S'bless'
p634
sI644
S'involuntarily'
p635
sI645
S'applauded'
p636
sI646
S'becoming'
p637
sI647
S'immediatelysensible'
p638
sI648
S'impropriety'
p639
sI649
S'poked'
p640
sI650
S'extinguished'
p641
sI651
S'thelast'
p642
sI652
S'frail'
p643
sI653
S'spark'
p644
sI654
S'sound'
p645
sI655
S'_you_'
p646
sI656
S"'ll"
p647
sI657
S'keepyour'
p648
sI658
S'losing'
p649
sI659
S'situation'
p650
sI660
S'powerfulspeaker'
p651
sI661
S'sir'
p652
sI662
S'added'
p653
sI663
S'turning'
p654
sI664
S'wonder'
p655
sI665
S'gointo'
p656
sI666
S'parliament'
p657
sI667
S'angry'
p658
sI668
S'dine'
p659
sI669
S'us'
p660
sI670
S'to-morrow'
p661
sI671
S'yes'
p662
sI672
S'indeed'
p663
sI673
S'went'
p664
sI674
S'thewhole'
p665
sI675
S'length'
p666
sI676
S'expression'
p667
sI677
S'thatextremity'
p668
sI678
S'why'
p669
sI679
S'get'
p670
sI680
S'married'
p671
sI681
S'because'
p672
sI682
S'fell'
p673
sI683
S'love'
p674
sI684
S'growled'
p675
sI685
S'onlyone'
p676
sI686
S'world'
p677
sI687
S'ridiculous'
p678
sI688
S'goodafternoon'
p679
sI689
S'nay'
p680
sI690
S'before'
p681
sI691
S'happened'
p682
sI692
S'giveit'
p683
sI693
S'now'
p684
sI694
S'afternoon'
p685
sI695
S'want'
p686
sI696
S'ask'
p687
sI697
S'befriends'
p688
sI698
S'sorry'
p689
sI699
S'find'
p690
sI700
S'resolute'
p691
sI701
S'neverhad'
p692
sI702
S'quarrel'
p693
sI703
S'party'
p694
sI704
S'trialin'
p695
sI705
S'homage'
p696
sI706
S'humour'
p697
sI707
S'last.so'
p698
sI708
S'happy'
p699
sI709
S'scrooge.his'
p700
sI710
S'left'
p701
sI711
S'word'
p702
sI712
S'notwithstanding'
p703
sI713
S'hestopped'
p704
sI714
S'outer'
p705
sI715
S'greetings'
p706
sI716
S'season'
p707
sI717
S'theclerk'
p708
sI718
S'warmer'
p709
sI719
S'returnedthem'
p710
sI720
S'cordially'
p711
sI721
S'fellow'
p712
sI722
S'muttered'
p713
sI723
S'overheard'
p714
sI724
S'myclerk'
p715
sI725
S'fifteen'
p716
sI726
S'shillings'
p717
sI727
S'week'
p718
sI728
S'wife'
p719
sI729
S'family'
p720
sI730
S'talkingabout'
p721
sI731
S'retire'
p722
sI732
S'bedlam'
p723
sI733
S'lunatic'
p724
sI734
S'letting'
p725
sI735
S'two'
p726
sI736
S'peoplein'
p727
sI737
S'portly'
p728
sI738
S'gentlemen'
p729
sI739
S'behold'
p730
sI740
S'withtheir'
p731
sI741
S'hats'
p732
sI742
S'off'
p733
sI743
S'papers'
p734
sI744
S'theirhands'
p735
sI745
S'bowed'
p736
sI746
S'believe'
p737
sI747
S'referringto'
p738
sI748
S'list'
p739
sI749
S'pleasure'
p740
sI750
S'addressing'
p741
sI751
S'mr.'
p742
sI752
S'mr.marley'
p743
sI753
S'mr'
p744
sI754
S'these'
p745
sI755
S'seven'
p746
sI756
S'replied'
p747
sI757
S'diedseven'
p748
sI758
S'ago'
p749
sI759
S'liberality'
p750
sI760
S'well'
p751
sI761
S'represented'
p752
sI762
S'survivingpartner'
p753
sI763
S'presenting'
p754
sI764
S'credentials.it'
p755
sI765
S'certainly'
p756
sI766
S'kindred'
p757
sI767
S'spirits'
p758
sI768
S'ominousword'
p759
sI769
S'frowned'
p760
sI770
S'shook'
p761
sI771
S'handed'
p762
sI772
S'thecredentials'
p763
sI773
S'festive'
p764
sI774
S'taking'
p765
sI775
S'pen'
p766
sI776
S'usually'
p767
sI777
S'desirable'
p768
sI778
S'makesome'
p769
sI779
S'slight'
p770
sI780
S'provision'
p771
sI781
S'destitute'
p772
sI782
S'suffer'
p773
sI783
S'greatly'
p774
sI784
S'atthe'
p775
sI785
S'present'
p776
sI786
S'thousands'
p777
sI787
S'common'
p778
sI788
S'necessaries'
p779
sI789
S'hundreds'
p780
sI790
S'comforts'
p781
sI791
S'prisons'
p782
sI792
S'plenty'
p783
sI793
S'laying'
p784
sI794
S'union'
p785
sI795
S'workhouses'
p786
sI796
S'demanded'
p787
sI797
S'still'
p788
sI798
S'inoperation'
p789
sI799
S'wish'
p790
sI800
S'werenot'
p791
sI801
S'treadmill'
p792
sI802
S'law'
p793
sI803
S'full'
p794
sI804
S'vigour'
p795
sI805
S'sir.'
p796
sI806
S'oh'
p797
sI807
S'afraid'
p798
sI808
S'something'
p799
sI809
S'hadoccurred'
p800
sI810
S'stop'
p801
sI811
S'useful'
p802
sI812
S'veryglad'
p803
sI813
S'under'
p804
sI814
S'impression'
p805
sI815
S'scarcely'
p806
sI816
S'furnish'
p807
sI817
S'christian'
p808
sI818
S'cheer'
p809
sI819
S'mindor'
p810
sI820
S'body'
p811
sI821
S'multitude'
p812
sI822
S'few'
p813
sI823
S'areendeavouring'
p814
sI824
S'raise'
p815
sI825
S'fund'
p816
sI826
S'buy'
p817
sI827
S'some'
p818
sI828
S'meat'
p819
sI829
S'drink'
p820
sI830
S'andmeans'
p821
sI831
S'choose'
p822
sI832
S'allothers'
p823
sI833
S'keenly'
p824
sI834
S'felt'
p825
sI835
S'abundance'
p826
sI836
S'rejoices'
p827
sI837
S'iput'
p828
sI838
S'anonymous'
p829
sI839
S'since'
p830
sI840
S'make'
p831
sI841
S'ca'
p832
sI842
S'afford'
p833
sI843
S'idle'
p834
sI844
S'help'
p835
sI845
S'support'
p836
sI846
S'theestablishments'
p837
sI847
S'mentioned'
p838
sI848
S'cost'
p839
sI849
S'those'
p840
sI850
S'arebadly'
p841
sI851
S'rather'
p842
sI852
S'die'
p843
sI853
S'anddecrease'
p844
sI854
S'surplus'
p845
sI855
S'population'
p846
sI856
S'besides'
p847
sI857
S'excuse'
p848
sI858
S'observed'
p849
sI859
S'tounderstand'
p850
sI860
S'interfere'
p851
sI861
S"people's.mine"
p852
sI862
S'occupies'
p853
sI863
S'constantly'
p854
sI864
S'seeing'
p855
sI865
S'clearly'
p856
sI866
S'useless'
p857
sI867
S'pursue'
p858
sI868
S'thegentlemen'
p859
sI869
S'withdrew'
p860
sI870
S'resumed'
p861
sI871
S'labours'
p862
sI872
S'improved'
p863
sI873
S'opinionof'
p864
sI874
S'facetious'
p865
sI875
S'temper'
p866
sI876
S'usual'
p867
sI877
S'him.meanwhile'
p868
sI878
S'darkness'
p869
sI879
S'thickened'
p870
sI880
S'ran'
p871
sI881
S'withflaring'
p872
sI882
S'links'
p873
sI883
S'proffering'
p874
sI884
S'services'
p875
sI885
S'horses'
p876
sI886
S'incarriages'
p877
sI887
S'conduct'
p878
sI888
S'ancient'
p879
sI889
S'tower'
p880
sI890
S'church'
p881
sI891
S'whose'
p882
sI892
S'gruff'
p883
sI893
S'bell'
p884
sI894
S'peeping'
p885
sI895
S'slily'
p886
sI896
S'agothic'
p887
sI897
S'window'
p888
sI898
S'wall'
p889
sI899
S'became'
p890
sI900
S'invisible'
p891
sI901
S'hours'
p892
sI902
S'andquarters'
p893
sI903
S'clouds'
p894
sI904
S'tremulous'
p895
sI905
S'vibrations'
p896
sI906
S'afterwards'
p897
sI907
S'itsteeth'
p898
sI908
S'chattering'
p899
sI909
S'frozen'
p900
sI910
S'becameintense'
p901
sI911
S'main'
p902
sI912
S'corner'
p903
sI913
S'labourerswere'
p904
sI914
S'repairing'
p905
sI915
S'gas-pipes'
p906
sI916
S'lighted'
p907
sI917
S'great'
p908
sI918
S'brazier'
p909
sI919
S'ragged'
p910
sI920
S'boys'
p911
sI921
S'gathered'
p912
sI922
S'warming'
p913
sI923
S'winking'
p914
sI924
S'blaze'
p915
sI925
S'rapture'
p916
sI926
S'water-plugbeing'
p917
sI927
S'solitude'
p918
sI928
S'overflowings'
p919
sI929
S'suddenly'
p920
sI930
S'congealed'
p921
sI931
S'turnedto'
p922
sI932
S'misanthropic'
p923
sI933
S'ice'
p924
sI934
S'brightness'
p925
sI935
S'shops'
p926
sI936
S'sprigs'
p927
sI937
S'andberries'
p928
sI938
S'crackled'
p929
sI939
S'lamp'
p930
sI940
S'pale'
p931
sI941
S'faces'
p932
sI942
S'ruddyas'
p933
sI943
S'passed'
p934
sI944
S'poulterers'
p935
sI945
S"'"
sI946
S'grocers'
p936
sI947
S'trades'
p937
sI948
S'splendid'
p938
sI949
S'joke'
p939
sI950
S'glorious'
p940
sI951
S'pageant'
p941
sI952
S'next'
p942
sI953
S'impossible'
p943
sI954
S'thatsuch'
p944
sI955
S'dull'
p945
sI956
S'principles'
p946
sI957
S'bargain'
p947
sI958
S'sale'
p948
sI959
S'lordmayor'
p949
sI960
S'stronghold'
p950
sI961
S'mighty'
p951
sI962
S'mansion'
p952
sI963
S'house'
p953
sI964
S'gave'
p954
sI965
S'orders'
p955
sI966
S'hisfifty'
p956
sI967
S'cooks'
p957
sI968
S'butlers'
p958
sI969
S'lord'
p959
sI970
S'mayor'
p960
sI971
S'householdshould'
p961
sI972
S'tailor'
p962
sI973
S'whom'
p963
sI974
S'fined'
p964
sI975
S'five'
p965
sI976
S'onthe'
p966
sI977
S'previous'
p967
sI978
S'monday'
p968
sI979
S'drunk'
p969
sI980
S'blood-thirsty'
p970
sI981
S'streets'
p971
sI982
S'stirred'
p972
sI983
S'garret'
p973
sI984
S'while'
p974
sI985
S'lean'
p975
sI986
S'andthe'
p976
sI987
S'baby'
p977
sI988
S'sallied'
p978
sI989
S'beef.foggier'
p979
sI990
S'yet'
p980
sI991
S'colder'
p981
sI992
S'piercing'
p982
sI993
S'searching'
p983
sI994
S'goodst'
p984
sI995
S'dunstan'
p985
sI996
S'spirit'
p986
sI997
S'touch'
p987
sI998
S'suchweather'
p988
sI999
S'instead'
p989
sI1000
S'using'
p990
sI1001
S'familiar'
p991
sI1002
S'weapons'
p992
sI1003
S'hewould'
p993
sI1004
S'roared'
p994
sI1005
S'lusty'
p995
sI1006
S'owner'
p996
sI1007
S'scant'
p997
sI1008
S'young'
p998
sI1009
S'gnawed'
p999
sI1010
S'mumbled'
p1000
sI1011
S'hungry'
p1001
sI1012
S'bones'
p1002
sI1013
S'stooped'
p1003
sI1014
S'regale'
p1004
sI1015
S'carol'
p1005
sI1016
S'dismay'
p1006
sI1017
S'seized'
p1007
sI1018
S'ruler'
p1008
sI1019
S'energy'
p1009
sI1020
S'action'
p1010
sI1021
S'singerfled'
p1011
sI1022
S'terror'
p1012
sI1023
S'leaving'
p1013
sI1024
S'congenialfrost.at'
p1014
sI1025
S'shutting'
p1015
sI1026
S'arrived'
p1016
sI1027
S'anill-will'
p1017
sI1028
S'dismounted'
p1018
sI1029
S'stool'
p1019
sI1030
S'tacitly'
p1020
sI1031
S'admitted'
p1021
sI1032
S'thefact'
p1022
sI1033
S'expectant'
p1023
sI1034
S'instantly'
p1024
sI1035
S'snuffed'
p1025
sI1036
S'hiscandle'
p1026
sI1037
S'hat'
p1027
sI1038
S'suppose'
p1028
sI1039
S'convenient'
p1029
sI1040
S'fair'
p1030
sI1041
S'tostop'
p1031
sI1042
S'half-a-crown'
p1032
sI1043
S"'d"
p1033
sI1044
S'ill'
p1034
sI1045
S'used'
p1035
sI1046
S'smiled'
p1036
sI1047
S'faintly'
p1037
sI1048
S'_me_'
p1038
sI1049
S'pay'
p1039
sI1050
S'aday'
p1040
sI1051
S'wages'
p1041
sI1052
S'picking'
p1042
sI1053
S'twenty-fifth'
p1043
sI1054
S'ofdecember'
p1044
sI1055
S'buttoning'
p1045
sI1056
S'great-coat'
p1046
sI1057
S'isuppose'
p1047
sI1058
S'whole'
p1048
sI1059
S'here'
p1049
sI1060
S'earlier'
p1050
sI1061
S'nextmorning'
p1051
sI1062
S'promised'
p1052
sI1063
S'walked'
p1053
sI1064
S'growl.the'
p1054
sI1065
S'closed'
p1055
sI1066
S'twinkling'
p1056
sI1067
S'endsof'
p1057
sI1068
S'white'
p1058
sI1069
S'dangling'
p1059
sI1070
S'below'
p1060
sI1071
S'waist'
p1061
sI1072
S'('
sI1073
S'boasted'
p1062
sI1074
S'nogreat-coat'
p1063
sI1075
S')'
sI1076
S'slide'
p1064
sI1077
S'cornhill'
p1065
sI1078
S'end'
p1066
sI1079
S'lane'
p1067
sI1080
S'ofboys'
p1068
sI1081
S'twenty'
p1069
sI1082
S'times'
p1070
sI1083
S'honour'
p1071
sI1084
S'christmas-eve'
p1072
sI1085
S'ranhome'
p1073
sI1086
S'camden'
p1074
sI1087
S'town'
p1075
sI1088
S'pelt'
p1076
sI1089
S"blindman'sbuff.scrooge"
p1077
sI1090
S'took'
p1078
sI1091
S'melancholy'
p1079
sI1092
S'dinner'
p1080
sI1093
S'tavern'
p1081
sI1094
S'andhaving'
p1082
sI1095
S'read'
p1083
sI1096
S'newspapers'
p1084
sI1097
S'beguiled'
p1085
sI1098
S'eveningwith'
p1086
sI1099
S'banker'
p1087
sI1100
S'book'
p1088
sI1101
S'home'
p1089
sI1102
S'bed'
p1090
sI1103
S'chambers'
p1091
sI1104
S'hadonce'
p1092
sI1105
S'belonged'
p1093
sI1106
S'deceased'
p1094
sI1107
S'partner'
p1095
sI1108
S'gloomy'
p1096
sI1109
S'suite'
p1097
sI1110
S'ofrooms'
p1098
sI1111
S'lowering'
p1099
sI1112
S'pile'
p1100
sI1113
S'building'
p1101
sI1114
S'yard'
p1102
sI1115
S'littlebusiness'
p1103
sI1116
S'fancying'
p1104
sI1117
S'runthere'
p1105
sI1118
S'playing'
p1106
sI1119
S'hide-and-seek'
p1107
sI1120
S'otherhouses'
p1108
sI1121
S'forgotten'
p1109
sI1122
S'anddreary'
p1110
sI1123
S'nobody'
p1111
sI1124
S'rooms'
p1112
sI1125
S'beingall'
p1113
sI1126
S'whoknew'
p1114
sI1127
S'stone'
p1115
sI1128
S'fain'
p1116
sI1129
S'grope'
p1117
sI1130
S'andfrost'
p1118
sI1131
S'hung'
p1119
sI1132
S'black'
p1120
sI1133
S'gateway'
p1121
sI1134
S'seemedas'
p1122
sI1135
S'genius'
p1123
sI1136
S'mournful'
p1124
sI1137
S'meditation'
p1125
sI1138
S'thethreshold.now'
p1126
sI1139
S'fact'
p1127
sI1140
S'particular'
p1128
sI1141
S'theknocker'
p1129
sI1142
S'except'
p1130
sI1143
S'also'
p1131
sI1144
S'factthat'
p1132
sI1145
S'seen'
p1133
sI1146
S'morning'
p1134
sI1147
S'during'
p1135
sI1148
S'residencein'
p1136
sI1149
S'called'
p1137
sI1150
S'fancyabout'
p1138
sI1151
S'city'
p1139
sI1152
S'london'
p1140
sI1153
S'including'
p1141
sI1154
S'abold'
p1142
sI1155
S'corporation'
p1143
sI1156
S'aldermen'
p1144
sI1157
S'livery'
p1145
sI1158
S'bornein'
p1146
sI1159
S'mind'
p1147
sI1160
S'bestowed'
p1148
sI1161
S'hislast'
p1149
sI1162
S"seven-years'-dead"
p1150
sI1163
S'thenlet'
p1151
sI1164
S'explain'
p1152
sI1165
S'key'
p1153
sI1166
S'lock'
p1154
sI1167
S'knocker'
p1155
sI1168
S'itsundergoing'
p1156
sI1169
S'intermediate'
p1157
sI1170
S'process'
p1158
sI1171
S'change'
p1159
sI1172
S'butmarley'
p1160
sI1173
S'face.marley'
p1161
sI1174
S'impenetrable'
p1162
sI1175
S'shadow'
p1163
sI1176
S'objectsin'
p1164
sI1177
S'bad'
p1165
sI1178
S'lobster'
p1166
sI1179
S'ina'
p1167
sI1180
S'cellar'
p1168
sI1181
S'ferocious'
p1169
sI1182
S'asmarley'
p1170
sI1183
S'look'
p1171
sI1184
S'ghostly'
p1172
sI1185
S'spectacles'
p1173
sI1186
S'turned'
p1174
sI1187
S'ghostlyforehead'
p1175
sI1188
S'hair'
p1176
sI1189
S'curiously'
p1177
sI1190
S'hot'
p1178
sI1191
S'wide'
p1179
sI1192
S'motionless.that'
p1180
sI1193
S'livid'
p1181
sI1194
S'colour'
p1182
sI1195
S'horrible'
p1183
sI1196
S'horror'
p1184
sI1197
S'seemed'
p1185
sI1198
S'tobe'
p1186
sI1199
S'spite'
p1187
sI1200
S'control'
p1188
sI1201
S'ofits'
p1189
sI1202
S'expression.as'
p1190
sI1203
S'fixedly'
p1191
sI1204
S'phenomenon'
p1192
sI1205
S'again.to'
p1193
sI1206
S'startled'
p1194
sI1207
S'blood'
p1195
sI1208
S'conscious'
p1196
sI1209
S'ofa'
p1197
sI1210
S'terrible'
p1198
sI1211
S'sensation'
p1199
sI1212
S'stranger'
p1200
sI1213
S'infancy'
p1201
sI1214
S'wouldbe'
p1202
sI1215
S'untrue'
p1203
sI1216
S'relinquished'
p1204
sI1217
S'turnedit'
p1205
sI1218
S'sturdily'
p1206
sI1219
S'candle.he'
p1207
sI1220
S'_did_'
p1208
sI1221
S'pause'
p1209
sI1222
S'irresolution'
p1210
sI1223
S'shut'
p1211
sI1224
S'cautiously'
p1212
sI1225
S'behind'
p1213
sI1226
S'half'
p1214
sI1227
S'expected'
p1215
sI1228
S'terrified'
p1216
sI1229
S'sight'
p1217
sI1230
S'pigtail'
p1218
sI1231
S'sticking'
p1219
sI1232
S'into'
p1220
sI1233
S'thehall'
p1221
sI1234
S'screwsand'
p1222
sI1235
S'held'
p1223
sI1236
S'pooh'
p1224
sI1237
S'closedit'
p1225
sI1238
S'bang.the'
p1226
sI1239
S'resounded'
p1227
sI1240
S'thunder'
p1228
sI1241
S'cask'
p1229
sI1242
S'wine'
p1230
sI1243
S'merchant'
p1231
sI1244
S'cellars'
p1232
sI1245
S'aseparate'
p1233
sI1246
S'peal'
p1234
sI1247
S'echoes'
p1235
sI1248
S'befrightened'
p1236
sI1249
S'fastened'
p1237
sI1250
S'across'
p1238
sI1251
S'hall'
p1239
sI1252
S'stairs'
p1240
sI1253
S'slowly'
p1241
sI1254
S'too'
p1242
sI1255
S'trimming'
p1243
sI1256
S'went.you'
p1244
sI1257
S'talk'
p1245
sI1258
S'vaguely'
p1246
sI1259
S'driving'
p1247
sI1260
S'coach'
p1248
sI1261
S'six'
p1249
sI1262
S'flightof'
p1250
sI1263
S'act'
p1251
sI1264
S'sayyou'
p1252
sI1265
S'got'
p1253
sI1266
S'hearse'
p1254
sI1267
S'staircase'
p1255
sI1268
S'taken'
p1256
sI1269
S'broadwise'
p1257
sI1270
S'splinter-bar'
p1258
sI1271
S'towards'
p1259
sI1272
S'thebalustrades'
p1260
sI1273
S'easy'
p1261
sI1274
S'width'
p1262
sI1275
S'androom'
p1263
sI1276
S'spare'
p1264
sI1277
S'perhaps'
p1265
sI1278
S'alocomotive'
p1266
sI1279
S'gloom'
p1267
sI1280
S'half-a-dozengas-lamps'
p1268
sI1281
S'entry'
p1269
sI1282
S'soyou'
p1270
sI1283
S'pretty'
p1271
sI1284
S'dip.up'
p1272
sI1285
S'caring'
p1273
sI1286
S'button'
p1274
sI1287
S'cheap'
p1275
sI1288
S'andscrooge'
p1276
sI1289
S'heavy'
p1277
sI1290
S'throughhis'
p1278
sI1291
S'recollection'
p1279
sI1292
S'ofthe'
p1280
sI1293
S'desire'
p1281
sI1294
S'that.sitting-room'
p1282
sI1295
S'bedroom'
p1283
sI1296
S'lumber-room'
p1284
sI1297
S'underthe'
p1285
sI1298
S'table'
p1286
sI1299
S'sofa'
p1287
sI1300
S'grate'
p1288
sI1301
S'spoon'
p1289
sI1302
S'andbasin'
p1290
sI1303
S'saucepan'
p1291
sI1304
S'gruel'
p1292
sI1305
S'hishead'
p1293
sI1306
S'hob'
p1294
sI1307
S'closet'
p1295
sI1308
S'nobodyin'
p1296
sI1309
S'dressing-gown'
p1297
sI1310
S'hanging'
p1298
sI1311
S'suspicious'
p1299
sI1312
S'attitudeagainst'
p1300
sI1313
S'fire-guard'
p1301
sI1314
S'shoes'
p1302
sI1315
S'twofish'
p1303
sI1316
S'baskets'
p1304
sI1317
S'washing-stand'
p1305
sI1318
S'legs'
p1306
sI1319
S'poker.quite'
p1307
sI1320
S'satisfied'
p1308
sI1321
S'locked'
p1309
sI1322
S'doublelocked'
p1310
sI1323
S'custom'
p1311
sI1324
S'thus'
p1312
sI1325
S'secured'
p1313
sI1326
S'againstsurprise'
p1314
sI1327
S'cravat'
p1315
sI1328
S'slippers'
p1316
sI1329
S'nightcap'
p1317
sI1330
S'take'
p1318
sI1331
S'gruel.it'
p1319
sI1332
S'bitter'
p1320
sI1333
S'wasobliged'
p1321
sI1334
S'sit'
p1322
sI1335
S'close'
p1323
sI1336
S'brood'
p1324
sI1337
S'extractthe'
p1325
sI1338
S'least'
p1326
sI1339
S'handful'
p1327
sI1340
S'fuel'
p1328
sI1341
S'thefire-place'
p1329
sI1342
S'built'
p1330
sI1343
S'dutch'
p1331
sI1344
S'andpaved'
p1332
sI1345
S'quaint'
p1333
sI1346
S'tiles'
p1334
sI1347
S'designed'
p1335
sI1348
S'illustrate'
p1336
sI1349
S'thescriptures'
p1337
sI1350
S'cains'
p1338
sI1351
S'abels'
p1339
sI1352
S'pharaoh'
p1340
sI1353
S'daughters'
p1341
sI1354
S'queens'
p1342
sI1355
S'ofsheba'
p1343
sI1356
S'angelic'
p1344
sI1357
S'messengers'
p1345
sI1358
S'descending'
p1346
sI1359
S'likefeather'
p1347
sI1360
S'beds'
p1348
sI1361
S'abrahams'
p1349
sI1362
S'belshazzars'
p1350
sI1363
S'apostles'
p1351
sI1364
S'putting'
p1352
sI1365
S'sea'
p1353
sI1366
S'inbutter-boats'
p1354
sI1367
S'figures'
p1355
sI1368
S'attract'
p1356
sI1369
S'thoughts'
p1357
sI1370
S'thatface'
p1358
sI1371
S'prophet'
p1359
sI1372
S'rod'
p1360
sI1373
S'swallowed'
p1361
sI1374
S'each'
p1362
sI1375
S'smooth'
p1363
sI1376
S'tile'
p1364
sI1377
S'blank'
p1365
sI1378
S'atfirst'
p1366
sI1379
S'power'
p1367
sI1380
S'shape'
p1368
sI1381
S'picture'
p1369
sI1382
S'surface'
p1370
sI1383
S'thedisjointed'
p1371
sI1384
S'fragments'
p1372
sI1385
S'copy'
p1373
sI1386
S'ofold'
p1374
sI1387
S'one.'
p1375
sI1388
S'room.after'
p1376
sI1389
S'several'
p1377
sI1390
S'turns'
p1378
sI1391
S'threw'
p1379
sI1392
S'thechair'
p1380
sI1393
S'glance'
p1381
sI1394
S'disused'
p1382
sI1395
S'thathung'
p1383
sI1396
S'communicated'
p1384
sI1397
S'witha'
p1385
sI1398
S'chamber'
p1386
sI1399
S'highest'
p1387
sI1400
S'greatastonishment'
p1388
sI1401
S'strange'
p1389
sI1402
S'inexplicable'
p1390
sI1403
S'dread'
p1391
sI1404
S'helooked'
p1392
sI1405
S'swing'
p1393
sI1406
S'swung'
p1394
sI1407
S'softly'
p1395
sI1408
S'theoutset'
p1396
sI1409
S'soon'
p1397
sI1410
S'rang'
p1398
sI1411
S'loudly'
p1399
sI1412
S'andso'
p1400
sI1413
S'house.this'
p1401
sI1414
S'lasted'
p1402
sI1415
S'minute'
p1403
sI1416
S'anhour'
p1404
sI1417
S'bells'
p1405
sI1418
S'ceased'
p1406
sI1419
S'begun'
p1407
sI1420
S'together'
p1408
sI1421
S'succeededby'
p1409
sI1422
S'clanking'
p1410
sI1423
S'noise'
p1411
sI1424
S'deep'
p1412
sI1425
S'person'
p1413
sI1426
S'dragging'
p1414
sI1427
S'aheavy'
p1415
sI1428
S'chain'
p1416
sI1429
S'casks'
p1417
sI1430
S'thenremembered'
p1418
sI1431
S'heard'
p1419
sI1432
S'ghosts'
p1420
sI1433
S'haunted'
p1421
sI1434
S'houses'
p1422
sI1435
S'described'
p1423
sI1436
S'asdragging'
p1424
sI1437
S'chains.the'
p1425
sI1438
S'flew'
p1426
sI1439
S'booming'
p1427
sI1440
S'thenoise'
p1428
sI1441
S'louder'
p1429
sI1442
S'floors'
p1430
sI1443
S'thencoming'
p1431
sI1444
S'straight'
p1432
sI1445
S'wo'
p1433
sI1446
S'changed'
p1434
sI1447
S'throughthe'
p1435
sI1448
S'itscoming'
p1436
sI1449
S'dying'
p1437
sI1450
S'flame'
p1438
sI1451
S'leaped'
p1439
sI1452
S'again.the'
p1440
sI1453
S'waistcoat'
p1441
sI1454
S'tights'
p1442
sI1455
S'boots'
p1443
sI1456
S'tassels'
p1444
sI1457
S'latter'
p1445
sI1458
S'bristling'
p1446
sI1459
S'hispigtail'
p1447
sI1460
S'coat-skirts'
p1448
sI1461
S'hedrew'
p1449
sI1462
S'clasped'
p1450
sI1463
S'middle'
p1451
sI1464
S'wound'
p1452
sI1465
S'likea'
p1453
sI1466
S'tail'
p1454
sI1467
S'closely'
p1455
sI1468
S'cash-boxes'
p1456
sI1469
S'keys'
p1457
sI1470
S'padlocks'
p1458
sI1471
S'ledgers'
p1459
sI1472
S'deeds'
p1460
sI1473
S'purses'
p1461
sI1474
S'wrought'
p1462
sI1475
S'hisbody'
p1463
sI1476
S'transparent'
p1464
sI1477
S'observing'
p1465
sI1478
S'lookingthrough'
p1466
sI1479
S'buttons'
p1467
sI1480
S'coat'
p1468
sI1481
S'behind.scrooge'
p1469
sI1482
S'bowels'
p1470
sI1483
S'hadnever'
p1471
sI1484
S'believed'
p1472
sI1485
S'until'
p1473
sI1486
S'now.no'
p1474
sI1487
S'nor'
p1475
sI1488
S'phantom'
p1476
sI1489
S'throughand'
p1477
sI1490
S'standing'
p1478
sI1491
S'chillinginfluence'
p1479
sI1492
S'death-cold'
p1480
sI1493
S'marked'
p1481
sI1494
S'texture'
p1482
sI1495
S'thefolded'
p1483
sI1496
S'kerchief'
p1484
sI1497
S'wrapper'
p1485
sI1498
S'notobserved'
p1486
sI1499
S'incredulous'
p1487
sI1500
S'fought'
p1488
sI1501
S'hissenses'
p1489
sI1502
S'caustic'
p1490
sI1503
S'wantwith'
p1491
sI1504
S'_was_'
p1492
sI1505
S'_were_'
p1493
sI1506
S'raising'
p1494
sI1507
S"you'reparticular"
p1495
sI1508
S'shade'
p1496
sI1509
S'_to_'
p1497
sI1510
S'butsubstituted'
p1498
sI1511
S'appropriate'
p1499
sI1512
S'jacob'
p1500
sI1513
S'looking'
p1501
sI1514
S'doubtfully'
p1502
sI1515
S'question'
p1503
sI1516
S'whether'
p1504
sI1517
S'sotransparent'
p1505
sI1518
S'condition'
p1506
sI1519
S'chair'
p1507
sI1520
S'feltthat'
p1508
sI1521
S'involve'
p1509
sI1522
S'thenecessity'
p1510
sI1523
S'embarrassing'
p1511
sI1524
S'explanation'
p1512
sI1525
S'theopposite'
p1513
sI1526
S'side'
p1514
sI1527
S'fire-place'
p1515
sI1528
S'evidence'
p1516
sI1529
S'reality'
p1517
sI1530
S'ownsenses'
p1518
sI1531
S'senses'
p1519
sI1532
S'affects'
p1520
sI1533
S'disorderof'
p1521
sI1534
S'stomach'
p1522
sI1535
S'makes'
p1523
sI1536
S'cheats'
p1524
sI1537
S'undigested'
p1525
sI1538
S'bit'
p1526
sI1539
S'beef'
p1527
sI1540
S'blot'
p1528
sI1541
S'mustard'
p1529
sI1542
S'crumb'
p1530
sI1543
S'cheese'
p1531
sI1544
S'fragment'
p1532
sI1545
S'underdone'
p1533
sI1546
S'potato.there'
p1534
sI1547
S'gravy'
p1535
sI1548
S'habit'
p1536
sI1549
S'cracking'
p1537
sI1550
S'jokes'
p1538
sI1551
S'feel'
p1539
sI1552
S'inhis'
p1540
sI1553
S'means'
p1541
sI1554
S'waggish'
p1542
sI1555
S'truth'
p1543
sI1556
S'besmart'
p1544
sI1557
S'distracting'
p1545
sI1558
S'attention'
p1546
sI1559
S'keeping'
p1547
sI1560
S'histerror'
p1548
sI1561
S'spectre'
p1549
sI1562
S'disturbed'
p1550
sI1563
S'marrow'
p1551
sI1564
S'bones.to'
p1552
sI1565
S'staring'
p1553
sI1566
S'fixed'
p1554
sI1567
S'glazed'
p1555
sI1568
S'silence'
p1556
sI1569
S'deuce'
p1557
sI1570
S'somethingvery'
p1558
sI1571
S'awful'
p1559
sI1572
S'provided'
p1560
sI1573
S'infernalatmosphere'
p1561
sI1574
S'wasclearly'
p1562
sI1575
S'case'
p1563
sI1576
S'motionless'
p1564
sI1577
S'itshair'
p1565
sI1578
S'skirts'
p1566
sI1579
S'agitated'
p1567
sI1580
S'vapourfrom'
p1568
sI1581
S'oven'
p1569
sI1582
S'toothpick'
p1570
sI1583
S'returning'
p1571
sI1584
S'charge'
p1572
sI1585
S'assigned'
p1573
sI1586
S'wishing'
p1574
sI1587
S'asecond'
p1575
sI1588
S'divert'
p1576
sI1589
S'vision'
p1577
sI1590
S'stony'
p1578
sI1591
S'gaze'
p1579
sI1592
S'notwithstanding.'
p1580
sI1593
S'swallow'
p1581
sI1594
S'therest'
p1582
sI1595
S'persecuted'
p1583
sI1596
S'legion'
p1584
sI1597
S'goblins'
p1585
sI1598
S'owncreation'
p1586
sI1599
S'tell'
p1587
sI1600
S'raised'
p1588
sI1601
S'frightful'
p1589
sI1602
S'cry'
p1590
sI1603
S'sucha'
p1591
sI1604
S'appalling'
p1592
sI1605
S'tight'
p1593
sI1606
S'swoon'
p1594
sI1607
S'greater'
p1595
sI1608
S'hishorror'
p1596
sI1609
S'bandage'
p1597
sI1610
S'itwere'
p1598
sI1611
S'wear'
p1599
sI1612
S'indoors'
p1600
sI1613
S'lower'
p1601
sI1614
S'jaw'
p1602
sI1615
S'dropped'
p1603
sI1616
S'itsbreast'
p1604
sI1617
S'knees'
p1605
sI1618
S'face.'
p1606
sI1619
S'mercy'
p1607
sI1620
S'dreadful'
p1608
sI1621
S'apparition'
p1609
sI1622
S'trouble'
p1610
sI1623
S'worldly'
p1611
sI1624
S'ornot'
p1612
sI1625
S'walk'
p1613
sI1626
S'earth'
p1614
sI1627
S'andwhy'
p1615
sI1628
S'_to'
p1616
sI1629
S'him._'
p1617
sI1630
S'required'
p1618
sI1631
S'spiritwithin'
p1619
sI1632
S'abroad'
p1620
sI1633
S'among'
p1621
sI1634
S'fellow-men'
p1622
sI1635
S'travel'
p1623
sI1636
S'far'
p1624
sI1637
S'andwide'
p1625
sI1638
S'forth'
p1626
sI1639
S'condemned'
p1627
sI1640
S'doso'
p1628
sI1641
S'death'
p1629
sI1642
S'doomed'
p1630
sI1643
S'wander'
p1631
sI1644
S'woe'
p1632
sI1645
S'isme'
p1633
sI1646
S'witness'
p1634
sI1647
S'share'
p1635
sI1648
S'shared'
p1636
sI1649
S'happiness'
p1637
sI1650
S'wrung'
p1638
sI1651
S'itsshadowy'
p1639
sI1652
S'fettered'
p1640
sI1653
S'trembling'
p1641
sI1654
S'forged'
p1642
sI1655
S'linkby'
p1643
sI1656
S'link'
p1644
sI1657
S'girded'
p1645
sI1658
S'free-will'
p1646
sI1659
S'myown'
p1647
sI1660
S'wore'
p1648
sI1661
S'pattern'
p1649
sI1662
S'trembled'
p1650
sI1663
S'pursued'
p1651
sI1664
S'weight'
p1652
sI1665
S'thestrong'
p1653
sI1666
S'coil'
p1654
sI1667
S'bear'
p1655
sI1668
S'christmas-eves'
p1656
sI1669
S'laboured'
p1657
sI1670
S'aponderous'
p1658
sI1671
S'glanced'
p1659
sI1672
S'floor'
p1660
sI1673
S'expectation'
p1661
sI1674
S'findinghimself'
p1662
sI1675
S'surrounded'
p1663
sI1676
S'fifty'
p1664
sI1677
S'sixty'
p1665
sI1678
S'fathoms'
p1666
sI1679
S'iron'
p1667
sI1680
S'cable'
p1668
sI1681
S'hecould'
p1669
sI1682
S'nothing.'
p1670
sI1683
S'imploringly'
p1671
sI1684
S'speakcomfort'
p1672
sI1685
S'none'
p1673
sI1686
S'give'
p1674
sI1687
S'comes'
p1675
sI1688
S'regions'
p1676
sI1689
S'ebenezer'
p1677
sI1690
S'conveyed'
p1678
sI1691
S'ministers'
p1679
sI1692
S'kinds'
p1680
sI1693
S'ofmen'
p1681
sI1694
S'allpermitted'
p1682
sI1695
S'stay'
p1683
sI1696
S'linger'
p1684
sI1697
S'anywhere.my'
p1685
sI1698
S'mark'
p1686
sI1699
S'myspirit'
p1687
sI1700
S'roved'
p1688
sI1701
S'narrow'
p1689
sI1702
S'limits'
p1690
sI1703
S'money-changing'
p1691
sI1704
S'hole'
p1692
sI1705
S'weary'
p1693
sI1706
S'lie'
p1694
sI1707
S'whenever'
p1695
sI1708
S'thoughtful'
p1696
sI1709
S'hishands'
p1697
sI1710
S'breeches'
p1698
sI1711
S'pockets'
p1699
sI1712
S'pondering'
p1700
sI1713
S'hedid'
p1701
sI1714
S'lifting'
p1702
sI1715
S'getting'
p1703
sI1716
S'slow'
p1704
sI1717
S'abusiness-like'
p1705
sI1718
S'manner'
p1706
sI1719
S'humility'
p1707
sI1720
S'deference.'
p1708
sI1721
S'mused'
p1709
sI1722
S'travelling'
p1710
sI1723
S'peace'
p1711
sI1724
S'incessant'
p1712
sI1725
S'tortureof'
p1713
sI1726
S'remorse'
p1714
sI1727
S'fast'
p1715
sI1728
S'wings'
p1716
sI1729
S'quantity'
p1717
sI1730
S'ground'
p1718
sI1731
S'scrooge.the'
p1719
sI1732
S'hearing'
p1720
sI1733
S'set'
p1721
sI1734
S'clanked'
p1722
sI1735
S'sohideously'
p1723
sI1736
S'ward'
p1724
sI1737
S'havebeen'
p1725
sI1738
S'justified'
p1726
sI1739
S'indicting'
p1727
sI1740
S'nuisance.'
p1728
sI1741
S'captive'
p1729
sI1742
S'double-ironed'
p1730
sI1743
S'knowthat'
p1731
sI1744
S'ages'
p1732
sI1745
S'labour'
p1733
sI1746
S'immortal'
p1734
sI1747
S'earthmust'
p1735
sI1748
S'pass'
p1736
sI1749
S'eternity'
p1737
sI1750
S'susceptible'
p1738
sI1751
S'isall'
p1739
sI1752
S'developed'
p1740
sI1753
S'working'
p1741
sI1754
S'kindly'
p1742
sI1755
S'inits'
p1743
sI1756
S'sphere'
p1744
sI1757
S'mortal'
p1745
sI1758
S'tooshort'
p1746
sI1759
S'vast'
p1747
sI1760
S'usefulness'
p1748
sI1761
S'space'
p1749
sI1762
S'ofregret'
p1750
sI1763
S'amends'
p1751
sI1764
S'opportunities'
p1752
sI1765
S'misused'
p1753
sI1766
S'suchwas'
p1754
sI1767
S'faltered'
p1755
sI1768
S'apply'
p1756
sI1769
S'himself.'
p1757
sI1770
S'wringing'
p1758
sI1771
S'mankind'
p1759
sI1772
S'mybusiness'
p1760
sI1773
S'welfare'
p1761
sI1774
S'charity'
p1762
sI1775
S'forbearance'
p1763
sI1776
S'benevolence'
p1764
sI1777
S'dealings'
p1765
sI1778
S'mytrade'
p1766
sI1779
S'drop'
p1767
sI1780
S'water'
p1768
sI1781
S'comprehensive'
p1769
sI1782
S'ocean'
p1770
sI1783
S'arm'
p1771
sI1784
S'cause'
p1772
sI1785
S'allits'
p1773
sI1786
S'unavailing'
p1774
sI1787
S'grief'
p1775
sI1788
S'flung'
p1776
sI1789
S'heavily'
p1777
sI1790
S'rolling'
p1778
sI1791
S'most.why'
p1779
sI1792
S'crowds'
p1780
sI1793
S'fellow-beings'
p1781
sI1794
S'blessed'
p1782
sI1795
S'star'
p1783
sI1796
S'led'
p1784
sI1797
S'wise'
p1785
sI1798
S'apoor'
p1786
sI1799
S'abode'
p1787
sI1800
S'homes'
p1788
sI1801
S'haveconducted'
p1789
sI1802
S'dismayed'
p1790
sI1803
S'thisrate'
p1791
sI1804
S'quake'
p1792
sI1805
S'exceedingly'
p1793
sI1806
S'nearly'
p1794
sI1807
S'flowery'
p1795
sI1808
S'pray'
p1796
sI1809
S'appear'
p1797
sI1810
S'maynot'
p1798
sI1811
S'beside'
p1799
sI1812
S'agreeable'
p1800
sI1813
S'idea'
p1801
sI1814
S'shivered'
p1802
sI1815
S'wiped'
p1803
sI1816
S'theperspiration'
p1804
sI1817
S'brow'
p1805
sI1818
S'penance'
p1806
sI1819
S'hereto-night'
p1807
sI1820
S'warn'
p1808
sI1821
S'chance'
p1809
sI1822
S'hope'
p1810
sI1823
S'escaping'
p1811
sI1824
S'myfate'
p1812
sI1825
S'procuring'
p1813
sI1826
S'thankee'
p1814
sI1827
S'countenance'
p1815
sI1828
S'almost'
p1816
sI1829
S'afaltering'
p1817
sI1830
S'visits'
p1818
sI1831
S'shun'
p1819
sI1832
S'thepath'
p1820
sI1833
S'tread'
p1821
sI1834
S'expect'
p1822
sI1835
S'tolls'
p1823
sI1836
S'hintedscrooge'
p1824
sI1837
S'second'
p1825
sI1838
S'third'
p1826
sI1839
S'uponthe'
p1827
sI1840
S'last'
p1828
sI1841
S'stroke'
p1829
sI1842
S'twelve'
p1830
sI1843
S'vibrate.look'
p1831
sI1844
S'sake'
p1832
sI1845
S'rememberwhat'
p1833
sI1846
S'between'
p1834
sI1847
S'words'
p1835
sI1848
S'thetable'
p1836
sI1849
S'thesmart'
p1837
sI1850
S'teeth'
p1838
sI1851
S'jaws'
p1839
sI1852
S'brought'
p1840
sI1853
S'thebandage'
p1841
sI1854
S'ventured'
p1842
sI1855
S'found'
p1843
sI1856
S'supernaturalvisitor'
p1844
sI1857
S'confronting'
p1845
sI1858
S'erect'
p1846
sI1859
S'attitude'
p1847
sI1860
S'overand'
p1848
sI1861
S'arm.the'
p1849
sI1862
S'backward'
p1850
sI1863
S'step'
p1851
sI1864
S'thewindow'
p1852
sI1865
S'itself'
p1853
sI1866
S'reached'
p1854
sI1867
S'beckoned'
p1855
sI1868
S'approach'
p1856
sI1869
S'theywere'
p1857
sI1870
S'paces'
p1858
sI1871
S'nearer'
p1859
sI1872
S'stopped.not'
p1860
sI1873
S'obedience'
p1861
sI1874
S'surprise'
p1862
sI1875
S'fear'
p1863
sI1876
S'sensible'
p1864
sI1877
S'confused'
p1865
sI1878
S'noises'
p1866
sI1879
S'incoherentsounds'
p1867
sI1880
S'lamentation'
p1868
sI1881
S'regret'
p1869
sI1882
S'wailings'
p1870
sI1883
S'inexpressibly'
p1871
sI1884
S'sorrowful'
p1872
sI1885
S'andself-accusatory'
p1873
sI1886
S'listening'
p1874
sI1887
S'joined'
p1875
sI1888
S'dirge'
p1876
sI1889
S'floated'
p1877
sI1890
S'night.scrooge'
p1878
sI1891
S'desperate'
p1879
sI1892
S'curiosity'
p1880
sI1893
S'lookedout.the'
p1881
sI1894
S'filled'
p1882
sI1895
S'wandering'
p1883
sI1896
S'hither'
p1884
sI1897
S'thither'
p1885
sI1898
S'inrestless'
p1886
sI1899
S'haste'
p1887
sI1900
S'moaning'
p1888
sI1901
S'chainslike'
p1889
sI1902
S'guilty'
p1890
sI1903
S'governments'
p1891
sI1904
S'werelinked'
p1892
sI1905
S'free'
p1893
sI1906
S'personally'
p1894
sI1907
S'known'
p1895
sI1908
S'toscrooge'
p1896
sI1909
S'lives'
p1897
sI1910
S'monstrous'
p1898
sI1911
S'safe'
p1899
sI1912
S'attached'
p1900
sI1913
S'ankle'
p1901
sI1914
S'whocried'
p1902
sI1915
S'piteously'
p1903
sI1916
S'unable'
p1904
sI1917
S'assist'
p1905
sI1918
S'wretched'
p1906
sI1919
S'aninfant'
p1907
sI1920
S'doorstep'
p1908
sI1921
S'misery'
p1909
sI1922
S'sought'
p1910
sI1923
S'matters'
p1911
sI1924
S'andhad'
p1912
sI1925
S'lost'
p1913
sI1926
S'ever.whether'
p1914
sI1927
S'faded'
p1915
sI1928
S'mist'
p1916
sI1929
S'enshrouded'
p1917
sI1930
S'voices'
p1918
sI1931
S'thenight'
p1919
sI1932
S'home.scrooge'
p1920
sI1933
S'examined'
p1921
sI1934
S'hadentered'
p1922
sI1935
S'double'
p1923
sI1936
S'bolts'
p1924
sI1937
S'undisturbed'
p1925
sI1938
S'syllable'
p1926
sI1939
S'emotion'
p1927
sI1940
S'undergone'
p1928
sI1941
S'thefatigues'
p1929
sI1942
S'glimpse'
p1930
sI1943
S'dullconversation'
p1931
sI1944
S'lateness'
p1932
sI1945
S'need'
p1933
sI1946
S'ofrepose'
p1934
sI1947
S'undressing'
p1935
sI1948
S'asleep'
p1936
sI1949
S'instant.stave'
p1937
sI1950
S'twothe'
p1938
sI1951
S'spiritswhen'
p1939
sI1952
S'awoke'
p1940
sI1953
S'couldscarcely'
p1941
sI1954
S'distinguish'
p1942
sI1955
S'opaque'
p1943
sI1956
S'walls'
p1944
sI1957
S'hischamber'
p1945
sI1958
S'endeavouring'
p1946
sI1959
S'pierce'
p1947
sI1960
S'ferreteyes'
p1948
sI1961
S'chimes'
p1949
sI1962
S'neighbouring'
p1950
sI1963
S'four'
p1951
sI1964
S'quarters.so'
p1952
sI1965
S'listened'
p1953
sI1966
S'hour.to'
p1954
sI1967
S'astonishment'
p1955
sI1968
S'andfrom'
p1956
sI1969
S'eight'
p1957
sI1970
S'regularly'
p1958
sI1971
S'past'
p1959
sI1972
S'clock'
p1960
sI1973
S'wrong'
p1961
sI1974
S'icicle'
p1962
sI1975
S'musthave'
p1963
sI1976
S'works'
p1964
sI1977
S'touched'
p1965
sI1978
S'spring'
p1966
sI1979
S'repeater'
p1967
sI1980
S'correct'
p1968
sI1981
S'most'
p1969
sI1982
S'preposterousclock'
p1970
sI1983
S'pulse'
p1971
sI1984
S'beat'
p1972
sI1985
S'possible'
p1973
sI1986
S'slept'
p1974
sI1987
S'awhole'
p1975
sI1988
S'anythinghas'
p1976
sI1989
S'sun'
p1977
sI1990
S'noon'
p1978
sI1991
S'alarming'
p1979
sI1992
S'scrambled'
p1980
sI1993
S'groped'
p1981
sI1994
S'obliged'
p1982
sI1995
S'rub'
p1983
sI1996
S'sleeveof'
p1984
sI1997
S'verylittle'
p1985
sI1998
S'andextremely'
p1986
sI1999
S'running'
p1987
sI2000
S'andfro'
p1988
sI2001
S'making'
p1989
sI2002
S'stir'
p1990
sI2003
S'unquestionably'
p1991
sI2004
S'ifnight'
p1992
sI2005
S'beaten'
p1993
sI2006
S'bright'
p1994
sI2007
S'possession'
p1995
sI2008
S'world.this'
p1996
sI2009
S'relief'
p1997
sI2010
S'firstof'
p1998
sI2011
S'exchange'
p1999
sI2012
S'order'
p2000
sI2013
S'become'
p2001
sI2014
S'united'
p2002
sI2015
S'states'
p2003
sI2016
S'security'
p2004
sI2017
S'tocount'
p2005
sI2018
S'by.scrooge'
p2006
sI2019
S'moreperplexed'
p2007
sI2020
S'endeavoured'
p2008
sI2021
S'hethought.marley'
p2009
sI2022
S'bothered'
p2010
sI2023
S'resolved'
p2011
sI2024
S'withinhimself'
p2012
sI2025
S'mature'
p2013
sI2026
S'inquiry'
p2014
sI2027
S'dream'
p2015
sI2028
S'flewback'
p2016
sI2029
S'released'
p2017
sI2030
S'position'
p2018
sI2031
S'andpresented'
p2019
sI2032
S'problem'
p2020
sI2033
S'worked'
p2021
sI2034
S'lay'
p2022
sI2035
S'state'
p2023
sI2036
S'chime'
p2024
sI2037
S'quarters'
p2025
sI2038
S'remembered'
p2026
sI2039
S'sudden'
p2027
sI2040
S'warned'
p2028
sI2041
S'avisitation'
p2029
sI2042
S'tolled'
p2030
sI2043
S'awake'
p2031
sI2044
S'thehour'
p2032
sI2045
S'considering'
p2033
sI2046
S'sleep'
p2034
sI2047
S'thango'
p2035
sI2048
S'heaven'
p2036
sI2049
S'wisest'
p2037
sI2050
S'resolution'
p2038
sI2051
S'power.the'
p2039
sI2052
S'quarter'
p2040
sI2053
S'sunk'
p2041
sI2054
S'doze'
p2042
sI2055
S'unconsciously'
p2043
sI2056
S'missed'
p2044
sI2057
S'itbroke'
p2045
sI2058
S'ear'
p2046
sI2059
S'ding'
p2047
sI2060
S'dong'
p2048
sI2061
S'counting'
p2049
sI2062
S'triumphantly'
p2050
sI2063
S'sounded'
p2051
sI2064
S'hollow'
p2052
sI2065
S'flashed'
p2053
sI2066
S'theinstant'
p2054
sI2067
S'curtains'
p2055
sI2068
S'drawn.the'
p2056
sI2069
S'drawn'
p2057
sI2070
S'aside'
p2058
sI2071
S'thecurtains'
p2059
sI2072
S'whichhis'
p2060
sI2073
S'addressed'
p2061
sI2074
S'starting'
p2062
sI2075
S'half-recumbent'
p2063
sI2076
S'faceto'
p2064
sI2077
S'unearthly'
p2065
sI2078
S'visitor'
p2066
sI2079
S'drew'
p2067
sI2080
S'amnow'
p2068
sI2081
S'elbow.it'
p2069
sI2082
S'figure'
p2070
sI2083
S'child'
p2071
sI2084
S'likean'
p2072
sI2085
S'viewed'
p2073
sI2086
S'supernatural'
p2074
sI2087
S'medium'
p2075
sI2088
S'theappearance'
p2076
sI2089
S'receded'
p2077
sI2090
S'view'
p2078
sI2091
S'diminished'
p2079
sI2092
S'achild'
p2080
sI2093
S'proportions'
p2081
sI2094
S'neck'
p2082
sI2095
S'itsback'
p2083
sI2096
S'age'
p2084
sI2097
S'wrinkle'
p2085
sI2098
S'init'
p2086
sI2099
S'tenderest'
p2087
sI2100
S'bloom'
p2088
sI2101
S'skin'
p2089
sI2102
S'arms'
p2090
sI2103
S'andmuscular'
p2091
sI2104
S'hold'
p2092
sI2105
S'uncommon'
p2093
sI2106
S'strength.its'
p2094
sI2107
S'delicately'
p2095
sI2108
S'formed'
p2096
sI2109
S'uppermembers'
p2097
sI2110
S'bare'
p2098
sI2111
S'tunic'
p2099
sI2112
S'purest'
p2100
sI2113
S'waistwas'
p2101
sI2114
S'lustrous'
p2102
sI2115
S'belt'
p2103
sI2116
S'sheen'
p2104
sI2117
S'beautiful'
p2105
sI2118
S'abranch'
p2106
sI2119
S'fresh'
p2107
sI2120
S'green'
p2108
sI2121
S'singular'
p2109
sI2122
S'contradictionof'
p2110
sI2123
S'emblem'
p2111
sI2124
S'dress'
p2112
sI2125
S'trimmed'
p2113
sI2126
S'summer'
p2114
sI2127
S'flowers'
p2115
sI2128
S'butthe'
p2116
sI2129
S'strangest'
p2117
sI2130
S'crown'
p2118
sI2131
S'theresprung'
p2119
sI2132
S'clear'
p2120
sI2133
S'jet'
p2121
sI2134
S'visible'
p2122
sI2135
S'andwhich'
p2123
sI2136
S'doubtless'
p2124
sI2137
S'occasion'
p2125
sI2138
S'duller'
p2126
sI2139
S'moments'
p2127
sI2140
S'agreat'
p2128
sI2141
S'extinguisher'
p2129
sI2142
S'cap'
p2130
sI2143
S'arm.even'
p2131
sI2144
S'increasing'
p2132
sI2145
S'steadiness'
p2133
sI2146
S'_not_'
p2134
sI2147
S'quality'
p2135
sI2148
S'andglittered'
p2136
sI2149
S'oneinstant'
p2137
sI2150
S'fluctuated'
p2138
sI2151
S'itsdistinctness'
p2139
sI2152
S'leg'
p2140
sI2153
S'withtwenty'
p2141
sI2154
S'pair'
p2142
sI2155
S'abody'
p2143
sI2156
S'dissolving'
p2144
sI2157
S'parts'
p2145
sI2158
S'outline'
p2146
sI2159
S'densegloom'
p2147
sI2160
S'wherein'
p2148
sI2161
S'melted'
p2149
sI2162
S'away'
p2150
sI2163
S'itwould'
p2151
sI2164
S'distinct'
p2152
sI2165
S'foretold'
p2153
sI2166
S'askedscrooge'
p2154
sI2167
S'soft'
p2155
sI2168
S'gentle'
p2156
sI2169
S'singularly'
p2157
sI2170
S'beingso'
p2158
sI2171
S'observant'
p2159
sI2172
S'dwarfish'
p2160
sI2173
S'stature.'
p2161
sI2174
S'told'
p2162
sI2175
S'anybody'
p2163
sI2176
S'haveasked'
p2164
sI2177
S'special'
p2165
sI2178
S'andbegged'
p2166
sI2179
S'covered.'
p2167
sI2180
S'exclaimed'
p2168
sI2181
S'worldlyhands'
p2169
sI2182
S'thosewhose'
p2170
sI2183
S'passions'
p2171
sI2184
S'force'
p2172
sI2185
S'trains'
p2173
sI2186
S'yearsto'
p2174
sI2187
S'reverently'
p2175
sI2188
S'disclaimed'
p2176
sI2189
S'intention'
p2177
sI2190
S'offend'
p2178
sI2191
S'knowledgeof'
p2179
sI2192
S'wilfully'
p2180
sI2193
S'bonneted'
p2181
sI2194
S'period'
p2182
sI2195
S'hethen'
p2183
sI2196
S'bold'
p2184
sI2197
S'inquire'
p2185
sI2198
S'ghost.scrooge'
p2186
sI2199
S'expressed'
p2187
sI2200
S'thinking'
p2188
sI2201
S'thata'
p2189
sI2202
S'unbroken'
p2190
sI2203
S'conducive'
p2191
sI2204
S'thespirit'
p2192
sI2205
S'immediately'
p2193
sI2206
S'reclamation'
p2194
sI2207
S'heed'
p2195
sI2208
S'gently'
p2196
sI2209
S'thearm.'
p2197
sI2210
S'rise'
p2198
sI2211
S'vain'
p2199
sI2212
S'plead'
p2200
sI2213
S'adapted'
p2201
sI2214
S'pedestrian'
p2202
sI2215
S'purposes'
p2203
sI2216
S'thermometer'
p2204
sI2217
S'freezing'
p2205
sI2218
S'clad'
p2206
sI2219
S'lightlyin'
p2207
sI2220
S'coldupon'
p2208
sI2221
S'grasp'
p2209
sI2222
S'wasnot'
p2210
sI2223
S'resisted'
p2211
sI2224
S'rose'
p2212
sI2225
S'towardsthe'
p2213
sI2226
S'robe'
p2214
sI2227
S'supplication'
p2215
sI2228
S'remonstrated'
p2216
sI2229
S'liable'
p2217
sI2230
S'fall'
p2218
sI2231
S'_there_'
p2219
sI2232
S'uponhis'
p2220
sI2233
S'upheld'
p2221
sI2234
S'spoken'
p2222
sI2235
S'uponan'
p2223
sI2236
S'road'
p2224
sI2237
S'fields'
p2225
sI2238
S'either'
p2226
sI2239
S'entirelyvanished'
p2227
sI2240
S'vestige'
p2228
sI2241
S'misthad'
p2229
sI2242
S'vanished'
p2230
sI2243
S'winter'
p2231
sI2244
S'thesnow'
p2232
sI2245
S'clasping'
p2233
sI2246
S'lookedabout'
p2234
sI2247
S'bred'
p2235
sI2248
S'boy'
p2236
sI2249
S'gazed'
p2237
sI2250
S'mildly'
p2238
sI2251
S'beenlight'
p2239
sI2252
S'instantaneous'
p2240
sI2253
S'senseof'
p2241
sI2254
S'feeling'
p2242
sI2255
S'thousand'
p2243
sI2256
S'odours'
p2244
sI2257
S'floating'
p2245
sI2258
S'connected'
p2246
sI2259
S'hopes'
p2247
sI2260
S'joys'
p2248
sI2261
S'andcares'
p2249
sI2262
S'lip'
p2250
sI2263
S'yourcheek'
p2251
sI2264
S'unusual'
p2252
sI2265
S'catching'
p2253
sI2266
S'apimple'
p2254
sI2267
S'begged'
p2255
sI2268
S'lead'
p2256
sI2269
S'recollect'
p2257
sI2270
S'remember'
p2258
sI2271
S'fervour'
p2259
sI2272
S'blindfold'
p2260
sI2273
S'rememberit'
p2261
sI2274
S'recognising'
p2262
sI2275
S'gate'
p2263
sI2276
S'post'
p2264
sI2277
S'tree'
p2265
sI2278
S'market-town'
p2266
sI2279
S'itsbridge'
p2267
sI2280
S'winding'
p2268
sI2281
S'river'
p2269
sI2282
S'shaggy'
p2270
sI2283
S'ponies'
p2271
sI2284
S'seentrotting'
p2272
sI2285
S'backs'
p2273
sI2286
S'otherboys'
p2274
sI2287
S'gigs'
p2275
sI2288
S'carts'
p2276
sI2289
S'driven'
p2277
sI2290
S'farmers'
p2278
sI2291
S'werein'
p2279
sI2292
S'shouted'
p2280
sI2293
S'broad'
p2281
sI2294
S'wereso'
p2282
sI2295
S'music'
p2283
sI2296
S'crisp'
p2284
sI2297
S'laughed'
p2285
sI2298
S'shadows'
p2286
sI2299
S'consciousness'
p2287
sI2300
S'jocund'
p2288
sI2301
S'travellers'
p2289
sI2302
S'namedthem'
p2290
sI2303
S'rejoiced'
p2291
sI2304
S'bounds'
p2292
sI2305
S'whydid'
p2293
sI2306
S'glisten'
p2294
sI2307
S'leap'
p2295
sI2308
S'whywas'
p2296
sI2309
S'gladness'
p2297
sI2310
S'merrychristmas'
p2298
sI2311
S'parted'
p2299
sI2312
S'cross-roads'
p2300
sI2313
S'by-ways'
p2301
sI2314
S'severalhomes'
p2302
sI2315
S'school'
p2303
sI2316
S'deserted'
p2304
sI2317
S'neglected'
p2305
sI2318
S'friends'
p2306
sI2319
S'sobbed.they'
p2307
sI2320
S'high-road'
p2308
sI2321
S'well-remembered'
p2309
sI2322
S'approached'
p2310
sI2323
S'amansion'
p2311
sI2324
S'brick'
p2312
sI2325
S'weather-cock'
p2313
sI2326
S'surmounted'
p2314
sI2327
S'cupolaon'
p2315
sI2328
S'roof'
p2316
sI2329
S'ofbroken'
p2317
sI2330
S'fortunes'
p2318
sI2331
S'spacious'
p2319
sI2332
S'wallswere'
p2320
sI2333
S'damp'
p2321
sI2334
S'mossy'
p2322
sI2335
S'broken'
p2323
sI2336
S'gates'
p2324
sI2337
S'decayed.fowls'
p2325
sI2338
S'clucked'
p2326
sI2339
S'strutted'
p2327
sI2340
S'stables'
p2328
sI2341
S'coach-houses'
p2329
sI2342
S'andsheds'
p2330
sI2343
S'overrun'
p2331
sI2344
S'grass'
p2332
sI2345
S'retentive'
p2333
sI2346
S'ancientstate'
p2334
sI2347
S'entering'
p2335
sI2348
S'dreary'
p2336
sI2349
S'glancing'
p2337
sI2350
S'theopen'
p2338
sI2351
S'doors'
p2339
sI2352
S'poorly'
p2340
sI2353
S'furnished'
p2341
sI2354
S'andvast'
p2342
sI2355
S'earthly'
p2343
sI2356
S'savour'
p2344
sI2357
S'chilly'
p2345
sI2358
S'bareness'
p2346
sI2359
S'theplace'
p2347
sI2360
S'associated'
p2348
sI2361
S'somehow'
p2349
sI2362
S'bycandle-light'
p2350
sI2363
S'eat.they'
p2351
sI2364
S'theback'
p2352
sI2365
S'opened'
p2353
sI2366
S'disclosed'
p2354
sI2367
S'barer'
p2355
sI2368
S'lines'
p2356
sI2369
S'plain'
p2357
sI2370
S'deal'
p2358
sI2371
S'forms'
p2359
sI2372
S'anddesks'
p2360
sI2373
S'lonely'
p2361
sI2374
S'reading'
p2362
sI2375
S'near'
p2363
sI2376
S'feeble'
p2364
sI2377
S'form'
p2365
sI2378
S'wept'
p2366
sI2379
S'self'
p2367
sI2380
S'ashe'
p2368
sI2381
S'be.not'
p2369
sI2382
S'latent'
p2370
sI2383
S'echo'
p2371
sI2384
S'squeak'
p2372
sI2385
S'scuffle'
p2373
sI2386
S'micebehind'
p2374
sI2387
S'panelling'
p2375
sI2388
S'drip'
p2376
sI2389
S'half-thawed'
p2377
sI2390
S'water-spout'
p2378
sI2391
S'thedull'
p2379
sI2392
S'sigh'
p2380
sI2393
S'leafless'
p2381
sI2394
S'boughs'
p2382
sI2395
S'despondentpoplar'
p2383
sI2396
S'swinging'
p2384
sI2397
S'empty'
p2385
sI2398
S'storehouse'
p2386
sI2399
S'aclicking'
p2387
sI2400
S'softeninginfluence'
p2388
sI2401
S'freer'
p2389
sI2402
S'passage'
p2390
sI2403
S'tears.the'
p2391
sI2404
S'younger'
p2392
sI2405
S'foreign'
p2393
sI2406
S'garments'
p2394
sI2407
S'wonderfullyreal'
p2395
sI2408
S'outside'
p2396
sI2409
S'axestuck'
p2397
sI2410
S'leading'
p2398
sI2411
S'bridle'
p2399
sI2412
S'ass'
p2400
sI2413
S'laden'
p2401
sI2414
S'wood'
p2402
sI2415
S'ali'
p2403
sI2416
S'baba'
p2404
sI2417
S'ecstasy'
p2405
sI2418
S'dear'
p2406
sI2419
S'oldhonest'
p2407
sI2420
S'yondersolitary'
p2408
sI2421
S'firsttime'
p2409
sI2422
S'valentine'
p2410
sI2423
S'hiswild'
p2411
sI2424
S'brother'
p2412
sI2425
S'orson'
p2413
sI2426
S'putdown'
p2414
sI2427
S'drawers'
p2415
sI2428
S'damascus'
p2416
sI2429
S'sultan'
p2417
sI2430
S'groom'
p2418
sI2431
S'upside'
p2419
sI2432
S'genii'
p2420
sI2433
S'serve'
p2421
sI2434
S"'m"
p2422
sI2435
S'glad'
p2423
sI2436
S'_he_'
p2424
sI2437
S'bemarried'
p2425
sI2438
S'princess'
p2426
sI2439
S'expending'
p2427
sI2440
S'earnestness'
p2428
sI2441
S'suchsubjects'
p2429
sI2442
S'extraordinary'
p2430
sI2443
S'laughing'
p2431
sI2444
S'crying'
p2432
sI2445
S'andto'
p2433
sI2446
S'heightened'
p2434
sI2447
S'excited'
p2435
sI2448
S'tohis'
p2436
sI2449
S'honest'
p2437
sI2450
S'parrot'
p2438
sI2451
S'yellow'
p2439
sI2452
S'lettuce'
p2440
sI2453
S'growing'
p2441
sI2454
S'top'
p2442
sI2455
S'robin'
p2443
sI2456
S'crusoe'
p2444
sI2457
S'sailinground'
p2445
sI2458
S'island'
p2446
sI2459
S"'poor"
p2447
sI2460
S'robincrusoe'
p2448
sI2461
S'dreaming'
p2449
sI2462
S'theparrot'
p2450
sI2463
S'friday'
p2451
sI2464
S'littlecreek'
p2452
sI2465
S'halloa'
p2453
sI2466
S'hoop'
p2454
sI2467
S'halloo'
p2455
sI2468
S'rapidity'
p2456
sI2469
S'transition'
p2457
sI2470
S'character'
p2458
sI2471
S'pity'
p2459
sI2472
S'former'
p2460
sI2473
S'lookingabout'
p2461
sI2474
S'drying'
p2462
sI2475
S'cuff'
p2463
sI2476
S'late'
p2464
sI2477
S'matter'
p2465
sI2478
S'singing'
p2466
sI2479
S'christmascarol'
p2467
sI2480
S'given'
p2468
sI2481
S'thoughtfully'
p2469
sI2482
S'waved'
p2470
sI2483
S'saying'
p2471
sI2484
S'grew'
p2472
sI2485
S'larger'
p2473
sI2486
S'alittle'
p2474
sI2487
S'darker'
p2475
sI2488
S'dirty'
p2476
sI2489
S'panels'
p2477
sI2490
S'shrunk'
p2478
sI2491
S'cracked'
p2479
sI2492
S'plaster'
p2480
sI2493
S'ceiling'
p2481
sI2494
S'naked'
p2482
sI2495
S'laths'
p2483
sI2496
S'wereshown'
p2484
sI2497
S'morethan'
p2485
sI2498
S'hadhappened'
p2486
sI2499
S'hadgone'
p2487
sI2500
S'jolly'
p2488
sI2501
S'holidays.he'
p2489
sI2502
S'despairingly'
p2490
sI2503
S'scroogelooked'
p2491
sI2504
S'shaking'
p2492
sI2505
S'glancedanxiously'
p2493
sI2506
S'door.it'
p2494
sI2507
S'girl'
p2495
sI2508
S'dartingin'
p2496
sI2509
S'her'
p2497
sI2510
S'kissing'
p2498
sI2511
S'bring'
p2499
sI2512
S'clappingher'
p2500
sI2513
S'tiny'
p2501
sI2514
S'bending'
p2502
sI2515
S'laugh'
p2503
sI2516
S'fan'
p2504
sI2517
S'boy.'
p2505
sI2518
S'brimful'
p2506
sI2519
S'glee'
p2507
sI2520
S'forever'
p2508
sI2521
S'kinder'
p2509
sI2522
S"home'slike"
p2510
sI2523
S'tobed'
p2511
sI2524
S'sent'
p2512
sI2525
S'andyou'
p2513
sI2526
S'opening'
p2514
sI2527
S'tocome'
p2515
sI2528
S'merriest'
p2516
sI2529
S'boy.she'
p2517
sI2530
S'clapped'
p2518
sI2531
S'tiptoe'
p2519
sI2532
S'embrace'
p2520
sI2533
S'him.then'
p2521
sI2534
S'she'
p2522
sI2535
S'drag'
p2523
sI2536
S'childish'
p2524
sI2537
S'eagerness'
p2525
sI2538
S'loath'
p2526
sI2539
S'accompanied'
p2527
sI2540
S'her.a'
p2528
sI2541
S'box'
p2529
sI2542
S'schoolmaster'
p2530
sI2543
S'glared'
p2531
sI2544
S'onmaster'
p2532
sI2545
S'condescension'
p2533
sI2546
S'adreadful'
p2534
sI2547
S'himand'
p2535
sI2548
S'sister'
p2536
sI2549
S'veriest'
p2537
sI2550
S'shivering'
p2538
sI2551
S'best'
p2539
sI2552
S'parlourthat'
p2540
sI2553
S'maps'
p2541
sI2554
S'celestial'
p2542
sI2555
S'andterrestrial'
p2543
sI2556
S'globes'
p2544
sI2557
S'waxy'
p2545
sI2558
S'produceda'
p2546
sI2559
S'decanter'
p2547
sI2560
S'block'
p2548
sI2561
S'cake'
p2549
sI2562
S'administered'
p2550
sI2563
S'instalments'
p2551
sI2564
S'dainties'
p2552
sI2565
S'sending'
p2553
sI2566
S'meagre'
p2554
sI2567
S'servant'
p2555
sI2568
S'offer'
p2556
sI2569
S'glass'
p2557
sI2570
S'postboy'
p2558
sI2571
S'thanked'
p2559
sI2572
S'tap'
p2560
sI2573
S'tasted'
p2561
sI2574
S'not.master'
p2562
sI2575
S'trunk'
p2563
sI2576
S'tied'
p2564
sI2577
S'thechaise'
p2565
sI2578
S'bade'
p2566
sI2579
S'good-bye'
p2567
sI2580
S'willingly'
p2568
sI2581
S'drove'
p2569
sI2582
S'garden'
p2570
sI2583
S'sweep'
p2571
sI2584
S'quickwheels'
p2572
sI2585
S'dashing'
p2573
sI2586
S'hoar'
p2574
sI2587
S'leaves'
p2575
sI2588
S'theevergreens'
p2576
sI2589
S'spray'
p2577
sI2590
S'delicate'
p2578
sI2591
S'creature'
p2579
sI2592
S'withered'
p2580
sI2593
S'saidthe'
p2581
sI2594
S'gainsay'
p2582
sI2595
S'forbid'
p2583
sI2596
S'died'
p2584
sI2597
S'true'
p2585
sI2598
S'uneasy'
p2586
sI2599
S'briefly'
p2587
sI2600
S'werenow'
p2588
sI2601
S'thoroughfares'
p2589
sI2602
S'shadowy'
p2590
sI2603
S'passengers'
p2591
sI2604
S'passedand'
p2592
sI2605
S'repassed'
p2593
sI2606
S'coaches'
p2594
sI2607
S'battled'
p2595
sI2608
S'andall'
p2596
sI2609
S'strife'
p2597
sI2610
S'tumult'
p2598
sI2611
S'real'
p2599
sI2612
S'dressing'
p2600
sI2613
S'christmas-timeagain'
p2601
sI2614
S'evening'
p2602
sI2615
S'up.the'
p2603
sI2616
S'certain'
p2604
sI2617
S'heknew'
p2605
sI2618
S'apprenticed'
p2606
sI2619
S'welsh'
p2607
sI2620
S'wig'
p2608
sI2621
S'sittingbehind'
p2609
sI2622
S'high'
p2610
sI2623
S'desk'
p2611
sI2624
S'inches'
p2612
sI2625
S'taller'
p2613
sI2626
S'knocked'
p2614
sI2627
S'greatexcitement'
p2615
sI2628
S'fezziwig'
p2616
sI2629
S'alive'
p2617
sI2630
S'laid'
p2618
sI2631
S'whichpointed'
p2619
sI2632
S'rubbed'
p2620
sI2633
S'adjusted'
p2621
sI2634
S'hiscapacious'
p2622
sI2635
S'hisorgan'
p2623
sI2636
S'comfortable'
p2624
sI2637
S'oily'
p2625
sI2638
S'fat'
p2626
sI2639
S'jovial'
p2627
sI2640
S'yo'
p2628
sI2641
S'ho'
p2629
sI2642
S'dick'
p2630
sI2643
S'grown'
p2631
sI2644
S'briskly'
p2632
sI2645
S"fellow-'prentice"
p2633
sI2646
S'wilkins'
p2634
sI2647
S'yes.there'
p2635
sI2648
S'to-night'
p2636
sI2649
S'shutters'
p2637
sI2650
S'oldfezziwig'
p2638
sI2651
S'clap'
p2639
sI2652
S'jackrobinson'
p2640
sI2653
S'fellows'
p2641
sI2654
S'charged'
p2642
sI2655
S'intothe'
p2643
sI2656
S'theirplaces'
p2644
sI2657
S'barred'
p2645
sI2658
S'pinned'
p2646
sI2659
S'nine'
p2647
sI2660
S'panting'
p2648
sI2661
S'likerace-horses.'
p2649
sI2662
S'hilli-ho'
p2650
sI2663
S'skipping'
p2651
sI2664
S'withwonderful'
p2652
sI2665
S'agility'
p2653
sI2666
S'lads'
p2654
sI2667
S'lots'
p2655
sI2668
S'roomhere'
p2656
sI2669
S'chirrup'
p2657
sI2670
S'cleared'
p2658
sI2671
S'orcould'
p2659
sI2672
S'movable'
p2660
sI2673
S'packed'
p2661
sI2674
S'dismissed'
p2662
sI2675
S'frompublic'
p2663
sI2676
S'evermore'
p2664
sI2677
S'swept'
p2665
sI2678
S'watered'
p2666
sI2679
S'lampswere'
p2667
sI2680
S'heaped'
p2668
sI2681
S'assnug'
p2669
sI2682
S'dry'
p2670
sI2683
S'ball-room'
p2671
sI2684
S'tosee'
p2672
sI2685
S'night.in'
p2673
sI2686
S'fiddler'
p2674
sI2687
S'music-book'
p2675
sI2688
S'lofty'
p2676
sI2689
S'andmade'
p2677
sI2690
S'orchestra'
p2678
sI2691
S'tuned'
p2679
sI2692
S'stomachaches'
p2680
sI2693
S'mrs.fezziwig'
p2681
sI2694
S'substantial'
p2682
sI2695
S'smile'
p2683
sI2696
S'miss'
p2684
sI2697
S'fezziwigs'
p2685
sI2698
S'beaming'
p2686
sI2699
S'lovable'
p2687
sI2700
S'followers'
p2688
sI2701
S'theybroke'
p2689
sI2702
S'employed'
p2690
sI2703
S'incame'
p2691
sI2704
S'housemaid'
p2692
sI2705
S'cousin'
p2693
sI2706
S'baker'
p2694
sI2707
S'cook'
p2695
sI2708
S'withher'
p2696
sI2709
S'milkman'
p2697
sI2710
S'overthe'
p2698
sI2711
S'suspected'
p2699
sI2712
S'board'
p2700
sI2713
S'trying'
p2701
sI2714
S'hide'
p2702
sI2715
S'wasproved'
p2703
sI2716
S'ears'
p2704
sI2717
S'pulled'
p2705
sI2718
S'mistress'
p2706
sI2719
S'shyly'
p2707
sI2720
S'boldly'
p2708
sI2721
S'gracefully'
p2709
sI2722
S'someawkwardly'
p2710
sI2723
S'pushing'
p2711
sI2724
S'pulling'
p2712
sI2725
S'andevery'
p2713
sI2726
S'couple'
p2714
sI2727
S'roundand'
p2715
sI2728
S'andround'
p2716
sI2729
S'various'
p2717
sI2730
S'stages'
p2718
sI2731
S'affectionate'
p2719
sI2732
S'grouping'
p2720
sI2733
S'alwaysturning'
p2721
sI2734
S'soonas'
p2722
sI2735
S'couples'
p2723
sI2736
S'bottom'
p2724
sI2737
S'helpthem'
p2725
sI2738
S'result'
p2726
sI2739
S'clapping'
p2727
sI2740
S'dance'
p2728
sI2741
S'plungedhis'
p2729
sI2742
S'pot'
p2730
sI2743
S'porter'
p2731
sI2744
S'especially'
p2732
sI2745
S'purpose.but'
p2733
sI2746
S'scorning'
p2734
sI2747
S'reappearance'
p2735
sI2748
S'dancers'
p2736
sI2749
S'beencarried'
p2737
sI2750
S'exhausted'
p2738
sI2751
S'shutter'
p2739
sI2752
S'bran-new'
p2740
sI2753
S'manresolved'
p2741
sI2754
S'perish.there'
p2742
sI2755
S'dances'
p2743
sI2756
S'forfeits'
p2744
sI2757
S'andthere'
p2745
sI2758
S'negus'
p2746
sI2759
S'coldroast'
p2747
sI2760
S'weremince-pies'
p2748
sI2761
S'beer'
p2749
sI2762
S'effect'
p2750
sI2763
S'cameafter'
p2751
sI2764
S'roast'
p2752
sI2765
S'artful'
p2753
sI2766
S'dog'
p2754
sI2767
S'thesort'
p2755
sI2768
S'toldit'
p2756
sI2769
S'roger'
p2757
sI2770
S'de'
p2758
sI2771
S'coverley'
p2759
sI2772
S'outto'
p2760
sI2773
S'mrs.'
p2761
sI2774
S'stiff'
p2762
sI2775
S'ofwork'
p2763
sI2776
S'peoplewho'
p2764
sI2777
S'trifled'
p2765
sI2778
S'_would_'
p2766
sI2779
S'nonotion'
p2767
sI2780
S'walking.but'
p2768
sI2781
S'twice'
p2769
sI2782
S'ah'
p2770
sI2783
S'wouldhave'
p2771
sI2784
S'match'
p2772
sI2785
S'_her_'
p2773
sI2786
S'shewas'
p2774
sI2787
S'worthy'
p2775
sI2788
S'sense'
p2776
sI2789
S'term'
p2777
sI2790
S'nothigh'
p2778
sI2791
S'praise'
p2779
sI2792
S'higher'
p2780
sI2793
S'use'
p2781
sI2794
S'positive'
p2782
sI2795
S'appearedto'
p2783
sI2796
S'issue'
p2784
sI2797
S'calves'
p2785
sI2798
S'shone'
p2786
sI2799
S'dancelike'
p2787
sI2800
S'moons'
p2788
sI2801
S'wouldbecome'
p2789
sI2802
S'goneall'
p2790
sI2803
S'advance'
p2791
sI2804
S'bow'
p2792
sI2805
S'curtsy'
p2793
sI2806
S'cork-screw'
p2794
sI2807
S'thread-the-needle'
p2795
sI2808
S'yourplace'
p2796
sI2809
S'deftly'
p2797
sI2810
S'wink'
p2798
sI2811
S'hislegs'
p2799
sI2812
S'stagger.when'
p2800
sI2813
S'eleven'
p2801
sI2814
S'domestic'
p2802
sI2815
S'ball'
p2803
sI2816
S'broke'
p2804
sI2817
S'stations'
p2805
sI2818
S'shakinghands'
p2806
sI2819
S'individually'
p2807
sI2820
S'wished'
p2808
sI2821
S'himor'
p2809
sI2822
S'everybody'
p2810
sI2823
S'retired'
p2811
sI2824
S"two'prentices"
p2812
sI2825
S'diedaway'
p2813
sI2826
S'counterin'
p2814
sI2827
S'back-shop.during'
p2815
sI2828
S'acted'
p2816
sI2829
S'hiswits'
p2817
sI2830
S'soul'
p2818
sI2831
S'scene'
p2819
sI2832
S'hecorroborated'
p2820
sI2833
S'enjoyed'
p2821
sI2834
S'andunderwent'
p2822
sI2835
S'agitation'
p2823
sI2836
S'brightfaces'
p2824
sI2837
S'heremembered'
p2825
sI2838
S'uponhim'
p2826
sI2839
S'burnt'
p2827
sI2840
S'silly'
p2828
sI2841
S'folks'
p2829
sI2842
S'ofgratitude.'
p2830
sI2843
S'echoed'
p2831
sI2844
S'listen'
p2832
sI2845
S'apprentices'
p2833
sI2846
S'werepouring'
p2834
sI2847
S'doneso'
p2835
sI2848
S'spent'
p2836
sI2849
S'pounds'
p2837
sI2850
S'deserves'
p2838
sI2851
S'remark'
p2839
sI2852
S'speakingunconsciously'
p2840
sI2853
S'render'
p2841
sI2854
S'unhappy'
p2842
sI2855
S'ourservice'
p2843
sI2856
S'burdensome'
p2844
sI2857
S'toil'
p2845
sI2858
S'powerlies'
p2846
sI2859
S'insignificant'
p2847
sI2860
S'itis'
p2848
sI2861
S'add'
p2849
sI2862
S'count'
p2850
sI2863
S'givesis'
p2851
sI2864
S'fortune'
p2852
sI2865
S'insisted'
p2853
sI2866
S'able'
p2854
sI2867
S'twoto'
p2855
sI2868
S'lamps'
p2856
sI2869
S'utterance'
p2857
sI2870
S'grows'
p2858
sI2871
S'short'
p2859
sI2872
S'quick'
p2860
sI2873
S'butit'
p2861
sI2874
S'produced'
p2862
sI2875
S'immediate'
p2863
sI2876
S'wasolder'
p2864
sI2877
S'prime'
p2865
sI2878
S'harsh'
p2866
sI2879
S'andrigid'
p2867
sI2880
S'later'
p2868
sI2881
S'signs'
p2869
sI2882
S'careand'
p2870
sI2883
S'avarice'
p2871
sI2884
S'eager'
p2872
sI2885
S'greedy'
p2873
sI2886
S'restless'
p2874
sI2887
S'motion'
p2875
sI2888
S'showed'
p2876
sI2889
S'passion'
p2877
sI2890
S'root'
p2878
sI2891
S'fall.he'
p2879
sI2892
S'mourningdress'
p2880
sI2893
S'tears'
p2881
sI2894
S'thatshone'
p2882
sI2895
S'idolhas'
p2883
sI2896
S'displaced'
p2884
sI2897
S'comfort'
p2885
sI2898
S'comeas'
p2886
sI2899
S'grieve'
p2887
sI2900
S'idol'
p2888
sI2901
S'rejoined'
p2889
sI2902
S'golden'
p2890
sI2903
S'even-handed'
p2891
sI2904
S'dealing'
p2892
sI2905
S'isnothing'
p2893
sI2906
S'poverty'
p2894
sI2907
S'itprofesses'
p2895
sI2908
S'condemn'
p2896
sI2909
S'severity'
p2897
sI2910
S'pursuit'
p2898
sI2911
S'wealth'
p2899
sI2912
S'otherhopes'
p2900
sI2913
S'merged'
p2901
sI2914
S'sordidreproach'
p2902
sI2915
S'nobler'
p2903
sI2916
S'aspirations'
p2904
sI2917
S'untilthe'
p2905
sI2918
S'gain'
p2906
sI2919
S'engrosses'
p2907
sI2920
S'retorted'
p2908
sI2921
S'wiser'
p2909
sI2922
S'whatthen'
p2910
sI2923
S'contract'
p2911
sI2924
S'andcontent'
p2912
sI2925
S'improve'
p2913
sI2926
S'worldlyfortune'
p2914
sI2927
S'patient'
p2915
sI2928
S'industry'
p2916
sI2929
S'_are_'
p2917
sI2930
S'youwere'
p2918
sI2931
S'impatiently'
p2919
sI2932
S'tells'
p2920
sI2933
S'shereturned'
p2921
sI2934
S'heartis'
p2922
sI2935
S'fraught'
p2923
sI2936
S'_have_'
p2924
sI2937
S'thoughtof'
p2925
sI2938
S'release'
p2926
sI2939
S'altered'
p2927
sI2940
S'atmosphere'
p2928
sI2941
S'oflife'
p2929
sI2942
S'ofany'
p2930
sI2943
S'worth'
p2931
sI2944
S'value'
p2932
sI2945
S'seek'
p2933
sI2946
S'try'
p2934
sI2947
S'win'
p2935
sI2948
S'yield'
p2936
sI2949
S'justice'
p2937
sI2950
S'supposition'
p2938
sI2951
S'ofhimself'
p2939
sI2952
S'struggle'
p2940
sI2953
S'gladly'
p2941
sI2954
S'heavenknows'
p2942
sI2955
S'_i_'
p2943
sI2956
S'learned'
p2944
sI2957
S'andirresistible'
p2945
sI2958
S'to-day'
p2946
sI2959
S'yesterday'
p2947
sI2960
S'dowerlessgirl'
p2948
sI2961
S'confidence'
p2949
sI2962
S'weigh'
p2950
sI2963
S'bygain'
p2951
sI2964
S'choosing'
p2952
sI2965
S'false'
p2953
sI2966
S'yourone'
p2954
sI2967
S'guiding'
p2955
sI2968
S'principle'
p2956
sI2969
S'repentance'
p2957
sI2970
S'andregret'
p2958
sI2971
S'surely'
p2959
sI2972
S'follow'
p2960
sI2973
S'speak'
p2961
sI2974
S'memory'
p2962
sI2975
S'havepain'
p2963
sI2976
S'brief'
p2964
sI2977
S'dismiss'
p2965
sI2978
S'therecollection'
p2966
sI2979
S'unprofitable'
p2967
sI2980
S'ithappened'
p2968
sI2981
S'havechosen'
p2969
sI2982
S'parted.'
p2970
sI2983
S'show'
p2971
sI2984
S'youdelight'
p2972
sI2985
S'torture'
p2973
sI2986
S'nomore'
p2974
sI2987
S'relentless'
p2975
sI2988
S'pinioned'
p2976
sI2989
S'forced'
p2977
sI2990
S'himto'
p2978
sI2991
S'observe'
p2979
sI2992
S'next.they'
p2980
sI2993
S'orhandsome'
p2981
sI2994
S'beautifulyoung'
p2982
sI2995
S'comely'
p2983
sI2996
S'matron'
p2984
sI2997
S'sitting'
p2985
sI2998
S'opposite'
p2986
sI2999
S'daughter.the'
p2987
sI3000
S'tumultuous'
p2988
sI3001
S'morechildren'
p2989
sI3002
S'unlike'
p2990
sI3003
S'celebrated'
p2991
sI3004
S'herd'
p2992
sI3005
S'poem'
p2993
sI3006
S'fortychildren'
p2994
sI3007
S'conducting'
p2995
sI3008
S'themselves'
p2996
sI3009
S'conductingitself'
p2997
sI3010
S'forty'
p2998
sI3011
S'consequences'
p2999
sI3012
S'uproarious'
p3000
sI3013
S'belief'
p3001
sI3014
S'butno'
p3002
sI3015
S'contrary'
p3003
sI3016
S'mother'
p3004
sI3017
S'daughter'
p3005
sI3018
S'laughedheartily'
p3006
sI3019
S'beginning'
p3007
sI3020
S'tomingle'
p3008
sI3021
S'sports'
p3009
sI3022
S'pillaged'
p3010
sI3023
S'brigands'
p3011
sI3024
S'mostruthlessly'
p3012
sI3025
S'inever'
p3013
sI3026
S'rude'
p3014
sI3027
S'allthe'
p3015
sI3028
S'crushed'
p3016
sI3029
S'braided'
p3017
sI3030
S'torn'
p3018
sI3031
S'theprecious'
p3019
sI3032
S'shoe'
p3020
sI3033
S'plucked'
p3021
sI3034
S'measuring'
p3022
sI3035
S'sport'
p3023
sI3036
S'boldyoung'
p3024
sI3037
S'tohave'
p3025
sI3038
S'punishment'
p3026
sI3039
S'andyet'
p3027
sI3040
S'dearly'
p3028
sI3041
S'havequestioned'
p3029
sI3042
S'thelashes'
p3030
sI3043
S'downcast'
p3031
sI3044
S'blush'
p3032
sI3045
S'loosewaves'
p3033
sI3046
S'inch'
p3034
sI3047
S'keepsake'
p3035
sI3048
S'price'
p3036
sI3049
S'inshort'
p3037
sI3050
S'confess'
p3038
sI3051
S'lightestlicence'
p3039
sI3052
S'value.but'
p3040
sI3053
S'knocking'
p3041
sI3054
S'rush'
p3042
sI3055
S'immediatelyensued'
p3043
sI3056
S'plundered'
p3044
sI3057
S'bornetowards'
p3045
sI3058
S'centre'
p3046
sI3059
S'flushed'
p3047
sI3060
S'boisterous'
p3048
sI3061
S'group'
p3049
sI3062
S'timeto'
p3050
sI3063
S'greet'
p3051
sI3064
S'attended'
p3052
sI3065
S'withchristmas'
p3053
sI3066
S'toys'
p3054
sI3067
S'presents'
p3055
sI3068
S'shouting'
p3056
sI3069
S'struggling'
p3057
sI3070
S'onslaught'
p3058
sI3071
S'defenceless'
p3059
sI3072
S'scaling'
p3060
sI3073
S'chairs'
p3061
sI3074
S'ladders'
p3062
sI3075
S'dive'
p3063
sI3076
S'despoil'
p3064
sI3077
S'ofbrown-paper'
p3065
sI3078
S'parcels'
p3066
sI3079
S'hug'
p3067
sI3080
S'theneck'
p3068
sI3081
S'pummel'
p3069
sI3082
S'kick'
p3070
sI3083
S'irrepressible'
p3071
sI3084
S'affection'
p3072
sI3085
S'theshouts'
p3073
sI3086
S'delight'
p3074
sI3087
S'development'
p3075
sI3088
S'packagewas'
p3076
sI3089
S'received'
p3077
sI3090
S'announcement'
p3078
sI3091
S'doll'
p3079
sI3092
S'frying-pan'
p3080
sI3093
S'mouth'
p3081
sI3094
S'thansuspected'
p3082
sI3095
S'fictitious'
p3083
sI3096
S'turkey'
p3084
sI3097
S'glued'
p3085
sI3098
S'woodenplatter'
p3086
sI3099
S'immense'
p3087
sI3100
S'alarm'
p3088
sI3101
S'joy'
p3089
sI3102
S'andgratitude'
p3090
sI3103
S'indescribable'
p3091
sI3104
S'alike'
p3092
sI3105
S'enoughthat'
p3093
sI3106
S'degrees'
p3094
sI3107
S'emotions'
p3095
sI3108
S'parlour'
p3096
sI3109
S'stair'
p3097
sI3110
S'wentto'
p3098
sI3111
S'subsided.and'
p3099
sI3112
S'attentively'
p3100
sI3113
S'leaning'
p3101
sI3114
S'fondly'
p3102
sI3115
S'herand'
p3103
sI3116
S'fireside'
p3104
sI3117
S'suchanother'
p3105
sI3118
S'graceful'
p3106
sI3119
S'promise'
p3107
sI3120
S'havecalled'
p3108
sI3121
S'spring-time'
p3109
sI3122
S'haggard'
p3110
sI3123
S'hislife'
p3111
sI3124
S'dim'
p3112
sI3125
S'belle'
p3113
sI3126
S'husband'
p3114
sI3127
S'anold'
p3115
sI3128
S'yours'
p3116
sI3129
S'guess'
p3117
sI3130
S'tut'
p3118
sI3131
S'laughingas'
p3119
sI3132
S'scrooge.'
p3120
sI3133
S'shutup'
p3121
sI3134
S'inside'
p3122
sI3135
S'hispartner'
p3123
sI3136
S'lies'
p3124
sI3137
S'alone.quite'
p3125
sI3138
S'believe.'
p3126
sI3139
S'remove'
p3127
sI3140
S'theghost'
p3128
sI3141
S'blame'
p3129
sI3142
S'facein'
p3130
sI3143
S'ithad'
p3131
sI3144
S'shown'
p3132
sI3145
S'wrestled'
p3133
sI3146
S'haunt'
p3134
sI3147
S'longer'
p3135
sI3148
S'resistance'
p3136
sI3149
S'anyeffort'
p3137
sI3150
S'adversary'
p3138
sI3151
S'burninghigh'
p3139
sI3152
S'dimly'
p3140
sI3153
S'connecting'
p3141
sI3154
S'pressed'
p3142
sI3155
S'downupon'
p3143
sI3156
S'head.the'
p3144
sI3157
S'beneath'
p3145
sI3158
S'covered'
p3146
sI3159
S'itswhole'
p3147
sI3160
S'streamed'
p3148
sI3161
S'unbrokenflood'
p3149
sI3162
S'ground.he'
p3150
sI3163
S'overcome'
p3151
sI3164
S'irresistibledrowsiness'
p3152
sI3165
S'further'
p3153
sI3166
S'aparting'
p3154
sI3167
S'squeeze'
p3155
sI3168
S'relaxed'
p3156
sI3169
S'barely'
p3157
sI3170
S'reelto'
p3158
sI3171
S'sank'
p3159
sI3172
S'sleep.stave'
p3160
sI3173
S'threethe'
p3161
sI3174
S'spiritsawaking'
p3162
sI3175
S'prodigiously'
p3163
sI3176
S'tough'
p3164
sI3177
S'snore'
p3165
sI3178
S'inbed'
p3166
sI3179
S'toldthat'
p3167
sI3180
S'wasrestored'
p3168
sI3181
S'nick'
p3169
sI3182
S'especialpurpose'
p3170
sI3183
S'holding'
p3171
sI3184
S'conference'
p3172
sI3185
S'messenger'
p3173
sI3186
S'dispatched'
p3174
sI3187
S'tohim'
p3175
sI3188
S'intervention'
p3176
sI3189
S'turneduncomfortably'
p3177
sI3190
S'thisnew'
p3178
sI3191
S'draw'
p3179
sI3192
S'ownhands'
p3180
sI3193
S'lying'
p3181
sI3194
S'established'
p3182
sI3195
S'look-out'
p3183
sI3196
S'thebed'
p3184
sI3197
S'challenge'
p3185
sI3198
S'itsappearance'
p3186
sI3199
S'nervous.gentlemen'
p3187
sI3200
S'free-and-easy'
p3188
sI3201
S'plume'
p3189
sI3202
S'beingacquainted'
p3190
sI3203
S'move'
p3191
sI3204
S'equal'
p3192
sI3205
S'ofday'
p3193
sI3206
S'express'
p3194
sI3207
S'range'
p3195
sI3208
S'capacity'
p3196
sI3209
S'adventure'
p3197
sI3210
S'observingthat'
p3198
sI3211
S'pitch-and-toss'
p3199
sI3212
S'manslaughter'
p3200
sI3213
S'extremes'
p3201
sI3214
S'tolerably'
p3202
sI3215
S'wideand'
p3203
sI3216
S'subjects'
p3204
sI3217
S'venturing'
p3205
sI3218
S'quiteas'
p3206
sI3219
S'hardily'
p3207
sI3220
S'calling'
p3208
sI3221
S'wasready'
p3209
sI3222
S'field'
p3210
sI3223
S'appearances'
p3211
sI3224
S'nothingbetween'
p3212
sI3225
S'rhinoceros'
p3213
sI3226
S'astonished'
p3214
sI3227
S'much.now'
p3215
sI3228
S'prepared'
p3216
sI3229
S'meansprepared'
p3217
sI3230
S'consequently'
p3218
sI3231
S'andno'
p3219
sI3232
S'violent'
p3220
sI3233
S'fit'
p3221
sI3234
S'fiveminutes'
p3222
sI3235
S'ten'
p3223
sI3236
S'minutes'
p3224
sI3237
S'came.all'
p3225
sI3238
S'core'
p3226
sI3239
S'blazeof'
p3227
sI3240
S'proclaimed'
p3228
sI3241
S'dozenghosts'
p3229
sI3242
S'powerless'
p3230
sI3243
S'meant'
p3231
sI3244
S'apprehensive'
p3232
sI3245
S'aninteresting'
p3233
sI3246
S'spontaneous'
p3234
sI3247
S'combustion'
p3235
sI3248
S'theconsolation'
p3236
sI3249
S'however'
p3237
sI3250
S'youor'
p3238
sI3251
S'thepredicament'
p3239
sI3252
S'knows'
p3240
sI3253
S'ought'
p3241
sI3254
S'wouldunquestionably'
p3242
sI3255
S'thatthe'
p3243
sI3256
S'source'
p3244
sI3257
S'adjoiningroom'
p3245
sI3258
S'whence'
p3246
sI3259
S'tracing'
p3247
sI3260
S'shine'
p3248
sI3261
S'ideataking'
p3249
sI3262
S'shuffled'
p3250
sI3263
S'door.the'
p3251
sI3264
S'byhis'
p3252
sI3265
S'enter'
p3253
sI3266
S'obeyed.it'
p3254
sI3267
S'undergonea'
p3255
sI3268
S'surprising'
p3256
sI3269
S'transformation'
p3257
sI3270
S'withliving'
p3258
sI3271
S'perfect'
p3259
sI3272
S'grove'
p3260
sI3273
S'whichbright'
p3261
sI3274
S'gleaming'
p3262
sI3275
S'berries'
p3263
sI3276
S'glistened'
p3264
sI3277
S'mistletoe'
p3265
sI3278
S'ivy'
p3266
sI3279
S'reflected'
p3267
sI3280
S'mirrors'
p3268
sI3281
S'beenscattered'
p3269
sI3282
S'roaring'
p3270
sI3283
S'chimney'
p3271
sI3284
S'asthat'
p3272
sI3285
S'petrifaction'
p3273
sI3286
S'hearth'
p3274
sI3287
S'ormarley'
p3275
sI3288
S'thefloor'
p3276
sI3289
S'throne'
p3277
sI3290
S'turkeys'
p3278
sI3291
S'geese'
p3279
sI3292
S'game'
p3280
sI3293
S'poultry'
p3281
sI3294
S'brawn'
p3282
sI3295
S'joints'
p3283
sI3296
S'sucking-pigs'
p3284
sI3297
S'wreaths'
p3285
sI3298
S'sausages'
p3286
sI3299
S'mince-pies'
p3287
sI3300
S'plum-puddings'
p3288
sI3301
S'barrels'
p3289
sI3302
S'oysters'
p3290
sI3303
S'red-hot'
p3291
sI3304
S'chestnuts'
p3292
sI3305
S'cherry-cheeked'
p3293
sI3306
S'apples'
p3294
sI3307
S'juicy'
p3295
sI3308
S'oranges'
p3296
sI3309
S'luscious'
p3297
sI3310
S'pears'
p3298
sI3311
S'immensetwelfth-cakes'
p3299
sI3312
S'seething'
p3300
sI3313
S'bowls'
p3301
sI3314
S'punch'
p3302
sI3315
S'dimwith'
p3303
sI3316
S'delicious'
p3304
sI3317
S'steam'
p3305
sI3318
S'couch'
p3306
sI3319
S'ajolly'
p3307
sI3320
S'giant'
p3308
sI3321
S'bore'
p3309
sI3322
S'glowing'
p3310
sI3323
S'torch'
p3311
sI3324
S'notunlike'
p3312
sI3325
S'horn'
p3313
sI3326
S'shed'
p3314
sI3327
S'onscrooge'
p3315
sI3328
S'entered'
p3316
sI3329
S'timidly'
p3317
sI3330
S'dogged'
p3318
sI3331
S'wereclear'
p3319
sI3332
S'meet'
p3320
sI3333
S'clothed'
p3321
sI3334
S'simple'
p3322
sI3335
S'mantle'
p3323
sI3336
S'bordered'
p3324
sI3337
S'fur'
p3325
sI3338
S'garment'
p3326
sI3339
S'loosely'
p3327
sI3340
S'thefigure'
p3328
sI3341
S'capacious'
p3329
sI3342
S'breast'
p3330
sI3343
S'disdaining'
p3331
sI3344
S'bewarded'
p3332
sI3345
S'concealed'
p3333
sI3346
S'artifice'
p3334
sI3347
S'observable'
p3335
sI3348
S'theample'
p3336
sI3349
S'folds'
p3337
sI3350
S'noother'
p3338
sI3351
S'covering'
p3339
sI3352
S'wreath'
p3340
sI3353
S'shiningicicles'
p3341
sI3354
S'curls'
p3342
sI3355
S'genialface'
p3343
sI3356
S'sparkling'
p3344
sI3357
S'cheery'
p3345
sI3358
S'itsunconstrained'
p3346
sI3359
S'demeanour'
p3347
sI3360
S'joyful'
p3348
sI3361
S'antique'
p3349
sI3362
S'scabbard'
p3350
sI3363
S'sword'
p3351
sI3364
S'sheath'
p3352
sI3365
S'waseaten'
p3353
sI3366
S'rust'
p3354
sI3367
S'members'
p3355
sI3368
S'meaning'
p3356
sI3369
S'elder'
p3357
sI3370
S'brothers'
p3358
sI3371
S'born'
p3359
sI3372
S'youhad'
p3360
sI3373
S'eighteen'
p3361
sI3374
S'hundred'
p3362
sI3375
S'tremendous'
p3363
sI3376
S'provide'
p3364
sI3377
S'submissively'
p3365
sI3378
S'wentforth'
p3366
sI3379
S'compulsion'
p3367
sI3380
S'learnt'
p3368
sI3381
S'lesson'
p3369
sI3382
S'workingnow'
p3370
sI3383
S'aught'
p3371
sI3384
S'teach'
p3372
sI3385
S'profit'
p3373
sI3386
S'fast.holly'
p3374
sI3387
S'pigs'
p3375
sI3388
S'pies'
p3376
sI3389
S'puddings'
p3377
sI3390
S'fruit'
p3378
sI3391
S'severe'
p3379
sI3392
S'rough'
p3380
sI3393
S'briskand'
p3381
sI3394
S'unpleasant'
p3382
sI3395
S'pavementin'
p3383
sI3396
S'front'
p3384
sI3397
S'dwellings'
p3385
sI3398
S'tops'
p3386
sI3399
S'whenceit'
p3387
sI3400
S'mad'
p3388
sI3401
S'plumping'
p3389
sI3402
S'theroad'
p3390
sI3403
S'splitting'
p3391
sI3404
S'artificial'
p3392
sI3405
S'snow-storms.the'
p3393
sI3406
S'house-fronts'
p3394
sI3407
S'blacker'
p3395
sI3408
S'contrasting'
p3396
sI3409
S'sheet'
p3397
sI3410
S'roofs'
p3398
sI3411
S'withthe'
p3399
sI3412
S'dirtier'
p3400
sI3413
S'deposit'
p3401
sI3414
S'ploughedup'
p3402
sI3415
S'furrows'
p3403
sI3416
S'wheels'
p3404
sI3417
S'waggons'
p3405
sI3418
S'furrowsthat'
p3406
sI3419
S'crossed'
p3407
sI3420
S'recrossed'
p3408
sI3421
S'greatstreets'
p3409
sI3422
S'branched'
p3410
sI3423
S'intricate'
p3411
sI3424
S'channels'
p3412
sI3425
S'trace'
p3413
sI3426
S'thethick'
p3414
sI3427
S'mud'
p3415
sI3428
S'icy'
p3416
sI3429
S'sky'
p3417
sI3430
S'shorteststreets'
p3418
sI3431
S'choked'
p3419
sI3432
S'thawed'
p3420
sI3433
S'heavier'
p3421
sI3434
S'particles'
p3422
sI3435
S'descended'
p3423
sI3436
S'shower'
p3424
sI3437
S'sooty'
p3425
sI3438
S'atoms'
p3426
sI3439
S'chimneys'
p3427
sI3440
S'britain'
p3428
sI3441
S'consent'
p3429
sI3442
S'caught'
p3430
sI3443
S'wereblazing'
p3431
sI3444
S'content'
p3432
sI3445
S'verycheerful'
p3433
sI3446
S'climate'
p3434
sI3447
S'ofcheerfulness'
p3435
sI3448
S'clearest'
p3436
sI3449
S'brightest'
p3437
sI3450
S'summersun'
p3438
sI3451
S'diffuse'
p3439
sI3452
S'vain.for'
p3440
sI3453
S'shovelling'
p3441
sI3454
S'housetops'
p3442
sI3455
S'jovialand'
p3443
sI3456
S'parapets'
p3444
sI3457
S'nowand'
p3445
sI3458
S'exchanging'
p3446
sI3459
S'snowball'
p3447
sI3460
S'better-natured'
p3448
sI3461
S'missile'
p3449
sI3462
S'farthan'
p3450
sI3463
S'wordy'
p3451
sI3464
S'jest'
p3452
sI3465
S'heartily'
p3453
sI3466
S'lessheartily'
p3454
sI3467
S'fruiterers'
p3455
sI3468
S'radiant'
p3456
sI3469
S'glory'
p3457
sI3470
S'pot-bellied'
p3458
sI3471
S'shaped'
p3459
sI3472
S'waistcoats'
p3460
sI3473
S'ofjolly'
p3461
sI3474
S'lolling'
p3462
sI3475
S'tumbling'
p3463
sI3476
S'thestreet'
p3464
sI3477
S'apoplectic'
p3465
sI3478
S'opulence'
p3466
sI3479
S'brown-faced'
p3467
sI3480
S'broad-girthed'
p3468
sI3481
S'spanish'
p3469
sI3482
S'onions'
p3470
sI3483
S'shining'
p3471
sI3484
S'fatness'
p3472
sI3485
S'growthlike'
p3473
sI3486
S'friars'
p3474
sI3487
S'shelves'
p3475
sI3488
S'wanton'
p3476
sI3489
S'slyness'
p3477
sI3490
S'girls'
p3478
sI3491
S'demurely'
p3479
sI3492
S'hung-upmistletoe'
p3480
sI3493
S'clustered'
p3481
sI3494
S'bloomingpyramids'
p3482
sI3495
S'bunches'
p3483
sI3496
S'grapes'
p3484
sI3497
S"shopkeepers'benevolence"
p3485
sI3498
S'dangle'
p3486
sI3499
S'conspicuous'
p3487
sI3500
S'hooks'
p3488
sI3501
S'mouths'
p3489
sI3502
S'mightwater'
p3490
sI3503
S'gratis'
p3491
sI3504
S'piles'
p3492
sI3505
S'filberts'
p3493
sI3506
S'andbrown'
p3494
sI3507
S'recalling'
p3495
sI3508
S'fragrance'
p3496
sI3509
S'walks'
p3497
sI3510
S'woods'
p3498
sI3511
S'andpleasant'
p3499
sI3512
S'shufflings'
p3500
sI3513
S'werenorfolk'
p3501
sI3514
S'biffins'
p3502
sI3515
S'squab'
p3503
sI3516
S'swarthy'
p3504
sI3517
S'setting'
p3505
sI3518
S'theoranges'
p3506
sI3519
S'lemons'
p3507
sI3520
S'compactness'
p3508
sI3521
S'juicypersons'
p3509
sI3522
S'urgently'
p3510
sI3523
S'entreating'
p3511
sI3524
S'beseeching'
p3512
sI3525
S'paperbags'
p3513
sI3526
S'eaten'
p3514
sI3527
S'fish'
p3515
sI3528
S'forthamong'
p3516
sI3529
S'choice'
p3517
sI3530
S'fruits'
p3518
sI3531
S'bowl'
p3519
sI3532
S'andstagnant-blooded'
p3520
sI3533
S'goingon'
p3521
sI3534
S'gasping'
p3522
sI3535
S'inslow'
p3523
sI3536
S'passionless'
p3524
sI3537
S'excitement.the'
p3525
sI3538
S'shuttersdown'
p3526
sI3539
S'gaps'
p3527
sI3540
S'glimpses'
p3528
sI3541
S'alonethat'
p3529
sI3542
S'scales'
p3530
sI3543
S'counter'
p3531
sI3544
S'twine'
p3532
sI3545
S'roller'
p3533
sI3546
S'company'
p3534
sI3547
S'canisterswere'
p3535
sI3548
S'rattled'
p3536
sI3549
S'juggling'
p3537
sI3550
S'tricks'
p3538
sI3551
S'blendedscents'
p3539
sI3552
S'tea'
p3540
sI3553
S'coffee'
p3541
sI3554
S'grateful'
p3542
sI3555
S'theraisins'
p3543
sI3556
S'plentiful'
p3544
sI3557
S'rare'
p3545
sI3558
S'almonds'
p3546
sI3559
S'extremely'
p3547
sI3560
S'thesticks'
p3548
sI3561
S'cinnamon'
p3549
sI3562
S'spices'
p3550
sI3563
S'candied'
p3551
sI3564
S'caked'
p3552
sI3565
S'spotted'
p3553
sI3566
S'molten'
p3554
sI3567
S'sugar'
p3555
sI3568
S'thecoldest'
p3556
sI3569
S'lookers-on'
p3557
sI3570
S'faint'
p3558
sI3571
S'subsequently'
p3559
sI3572
S'bilious'
p3560
sI3573
S'figs'
p3561
sI3574
S'moist'
p3562
sI3575
S'pulpy'
p3563
sI3576
S'french'
p3564
sI3577
S'plums'
p3565
sI3578
S'blushed'
p3566
sI3579
S'inmodest'
p3567
sI3580
S'tartness'
p3568
sI3581
S'highly-decorated'
p3569
sI3582
S'boxes'
p3570
sI3583
S'everythingwas'
p3571
sI3584
S'eat'
p3572
sI3585
S'customers'
p3573
sI3586
S'allso'
p3574
sI3587
S'hurried'
p3575
sI3588
S'hopeful'
p3576
sI3589
S'theytumbled'
p3577
sI3590
S'crashing'
p3578
sI3591
S'wicker'
p3579
sI3592
S'basketswildly'
p3580
sI3593
S'purchases'
p3581
sI3594
S'backto'
p3582
sI3595
S'fetch'
p3583
sI3596
S'committed'
p3584
sI3597
S'mistakes'
p3585
sI3598
S'besthumour'
p3586
sI3599
S'grocer'
p3587
sI3600
S'frank'
p3588
sI3601
S'andfresh'
p3589
sI3602
S'polished'
p3590
sI3603
S'apronsbehind'
p3591
sI3604
S'worn'
p3592
sI3605
S'general'
p3593
sI3606
S'inspection'
p3594
sI3607
S'daws'
p3595
sI3608
S'peck'
p3596
sI3609
S'chose.but'
p3597
sI3610
S'steeples'
p3598
sI3611
S'chapel'
p3599
sI3612
S'andaway'
p3600
sI3613
S'flocking'
p3601
sI3614
S'clothes'
p3602
sI3615
S'andwith'
p3603
sI3616
S'gayest'
p3604
sI3617
S'emerged'
p3605
sI3618
S'scoresof'
p3606
sI3619
S'by-streets'
p3607
sI3620
S'lanes'
p3608
sI3621
S'nameless'
p3609
sI3622
S'turnings'
p3610
sI3623
S'innumerable'
p3611
sI3624
S'carrying'
p3612
sI3625
S'dinners'
p3613
sI3626
S'bakers'
p3614
sI3627
S'poorrevellers'
p3615
sI3628
S'interest'
p3616
sI3629
S'withscrooge'
p3617
sI3630
S'doorway'
p3618
sI3631
S'covers'
p3619
sI3632
S'astheir'
p3620
sI3633
S'bearers'
p3621
sI3634
S'sprinkled'
p3622
sI3635
S'incense'
p3623
sI3636
S'torch.and'
p3624
sI3637
S'therewere'
p3625
sI3638
S'dinner-carriers'
p3626
sI3639
S'jostled'
p3627
sI3640
S'eachother'
p3628
sI3641
S'drops'
p3629
sI3642
S'theirgood-humour'
p3630
sI3643
S'restored'
p3631
sI3644
S'directly'
p3632
sI3645
S'shame'
p3633
sI3646
S'toquarrel'
p3634
sI3647
S'christmas-day'
p3635
sI3648
S'wasa'
p3636
sI3649
S'genial'
p3637
sI3650
S'shadowing'
p3638
sI3651
S'progress'
p3639
sI3652
S'theircooking'
p3640
sI3653
S'blotch'
p3641
sI3654
S'wet'
p3642
sI3655
S'thepavement'
p3643
sI3656
S'cooking'
p3644
sI3657
S'peculiar'
p3645
sI3658
S'flavour'
p3646
sI3659
S'sprinkle'
p3647
sI3660
S'needs'
p3648
sI3661
S'most.'
p3649
sI3662
S'beings'
p3650
sI3663
S'worlds'
p3651
sI3664
S'cramp'
p3652
sI3665
S'thesepeople'
p3653
sI3666
S'innocent'
p3654
sI3667
S'enjoyment.'
p3655
sI3668
S'deprive'
p3656
sI3669
S'dining'
p3657
sI3670
S'seventh'
p3658
sI3671
S'places'
p3659
sI3672
S'andit'
p3660
sI3673
S'forgive'
p3661
sI3674
S'inthat'
p3662
sI3675
S'layclaim'
p3663
sI3676
S'pride'
p3664
sI3677
S'ill-will'
p3665
sI3678
S'hatred'
p3666
sI3679
S'envy'
p3667
sI3680
S'bigotry'
p3668
sI3681
S'selfishness'
p3669
sI3682
S'strangeto'
p3670
sI3683
S'kith'
p3671
sI3684
S'kin'
p3672
sI3685
S'rememberthat'
p3673
sI3686
S'doings'
p3674
sI3687
S'theyhad'
p3675
sI3688
S'suburbs'
p3676
sI3689
S'remarkablequality'
p3677
sI3690
S'gigantic'
p3678
sI3691
S'size'
p3679
sI3692
S'accommodate'
p3680
sI3693
S'anyplace'
p3681
sI3694
S'ease'
p3682
sI3695
S'asgracefully'
p3683
sI3696
S'couldhave'
p3684
sI3697
S'hall.and'
p3685
sI3698
S'showing'
p3686
sI3699
S'thispower'
p3687
sI3700
S'generous'
p3688
sI3701
S'hearty'
p3689
sI3702
S'andhis'
p3690
sI3703
S"scrooge'sclerk"
p3691
sI3704
S'hisrobe'
p3692
sI3705
S'threshold'
p3693
sI3706
S'stoppedto'
p3694
sI3707
S'bob'
p3695
sI3708
S'cratchit'
p3696
sI3709
S'dwelling'
p3697
sI3710
S'sprinklings'
p3698
sI3711
S'torch.think'
p3699
sI3712
S'pocketed'
p3700
sI3713
S'onsaturdays'
p3701
sI3714
S'copies'
p3702
sI3715
S'ofchristmas'
p3703
sI3716
S'four-roomed'
p3704
sI3717
S'dressed'
p3705
sI3718
S'atwice-turned'
p3706
sI3719
S'gown'
p3707
sI3720
S'brave'
p3708
sI3721
S'ribbons'
p3709
sI3722
S'agoodly'
p3710
sI3723
S'sixpence'
p3711
sI3724
S'cloth'
p3712
sI3725
S'assisted'
p3713
sI3726
S'belindacratchit'
p3714
sI3727
S'masterpeter'
p3715
sI3728
S'plunged'
p3716
sI3729
S'fork'
p3717
sI3730
S'potatoes'
p3718
sI3731
S'corners'
p3719
sI3732
S'shirt'
p3720
sI3733
S'collar'
p3721
sI3734
S'privateproperty'
p3722
sI3735
S'conferred'
p3723
sI3736
S'heir'
p3724
sI3737
S'hismouth'
p3725
sI3738
S'gallantly'
p3726
sI3739
S'attired'
p3727
sI3740
S'yearned'
p3728
sI3741
S'toshow'
p3729
sI3742
S'linen'
p3730
sI3743
S'fashionable'
p3731
sI3744
S'parks'
p3732
sI3745
S'cratchits'
p3733
sI3746
S'tearing'
p3734
sI3747
S'screaming'
p3735
sI3748
S'smelt'
p3736
sI3749
S'goose'
p3737
sI3750
S'basking'
p3738
sI3751
S'inluxurious'
p3739
sI3752
S'sage'
p3740
sI3753
S'onion'
p3741
sI3754
S'danced'
p3742
sI3755
S'aboutthe'
p3743
sI3756
S'exalted'
p3744
sI3757
S'peter'
p3745
sI3758
S'skies'
p3746
sI3759
S'notproud'
p3747
sI3760
S'collars'
p3748
sI3761
S'theslow'
p3749
sI3762
S'bubbling'
p3750
sI3763
S'lid'
p3751
sI3764
S'letout'
p3752
sI3765
S'peeled'
p3753
sI3766
S'precious'
p3754
sI3767
S'andyour'
p3755
sI3768
S'tim'
p3756
sI3769
S'martha'
p3757
sI3770
S'war'
p3758
sI3771
S'byhalf'
p3759
sI3772
S'appearing'
p3760
sI3773
S'hurrah'
p3761
sI3774
S"there's_such_"
p3762
sI3775
S'mrs.cratchit'
p3763
sI3776
S'dozen'
p3764
sI3777
S'shawl'
p3765
sI3778
S'bonnetfor'
p3766
sI3779
S'officious'
p3767
sI3780
S'zeal'
p3768
sI3781
S'finish'
p3769
sI3782
S'yedown'
p3770
sI3783
S'ye'
p3771
sI3784
S'wereeverywhere'
p3772
sI3785
S'hid'
p3773
sI3786
S'herself'
p3774
sI3787
S'leastthree'
p3775
sI3788
S'exclusive'
p3776
sI3789
S'fringe'
p3777
sI3790
S'beforehim'
p3778
sI3791
S'threadbare'
p3779
sI3792
S'darned'
p3780
sI3793
S'brushed'
p3781
sI3794
S'lookseasonable'
p3782
sI3795
S'shoulder'
p3783
sI3796
S'alas'
p3784
sI3797
S'crutch'
p3785
sI3798
S'limbs'
p3786
sI3799
S'supported'
p3787
sI3800
S'frame'
p3788
sI3801
S'mrs'
p3789
sI3802
S'declension'
p3790
sI3803
S'forhe'
p3791
sI3804
S'horse'
p3792
sI3805
S'homerampant'
p3793
sI3806
S'disappointed'
p3794
sI3807
S'soshe'
p3795
sI3808
S'prematurely'
p3796
sI3809
S'hisarms'
p3797
sI3810
S'hustled'
p3798
sI3811
S'offinto'
p3799
sI3812
S'wash-house'
p3800
sI3813
S'thecopper'
p3801
sI3814
S'behave'
p3802
sI3815
S'hadrallied'
p3803
sI3816
S'credulity'
p3804
sI3817
S'hugged'
p3805
sI3818
S'hisheart'
p3806
sI3819
S'gets'
p3807
sI3820
S'thinks'
p3808
sI3821
S'everheard'
p3809
sI3822
S'hoped'
p3810
sI3823
S'thechurch'
p3811
sI3824
S'cripple'
p3812
sI3825
S'toremember'
p3813
sI3826
S'lame'
p3814
sI3827
S'beggars'
p3815
sI3828
S'mensee'
p3816
sI3829
S'whenhe'
p3817
sI3830
S'hearty.his'
p3818
sI3831
S'active'
p3819
sI3832
S'tinytim'
p3820
sI3833
S'escorted'
p3821
sI3834
S'sisterto'
p3822
sI3835
S'cuffs'
p3823
sI3836
S'asif'
p3824
sI3837
S'capable'
p3825
sI3838
S'shabby'
p3826
sI3839
S'compoundedsome'
p3827
sI3840
S'mixture'
p3828
sI3841
S'jug'
p3829
sI3842
S'gin'
p3830
sI3843
S'simmer'
p3831
sI3844
S'twoubiquitous'
p3832
sI3845
S'soonreturned'
p3833
sI3846
S'procession.such'
p3834
sI3847
S'bustle'
p3835
sI3848
S'ensued'
p3836
sI3849
S'rarest'
p3837
sI3850
S'ofall'
p3838
sI3851
S'birds'
p3839
sI3852
S'feathered'
p3840
sI3853
S'swan'
p3841
sI3854
S'ofcourse'
p3842
sI3855
S'beforehand'
p3843
sI3856
S'hissinghot'
p3844
sI3857
S'mashed'
p3845
sI3858
S'incredible'
p3846
sI3859
S'missbelinda'
p3847
sI3860
S'sweetened'
p3848
sI3861
S'apple'
p3849
sI3862
S'sauce'
p3850
sI3863
S'dusted'
p3851
sI3864
S'plates'
p3852
sI3865
S'bobtook'
p3853
sI3866
S'youngcratchits'
p3854
sI3867
S'forgetting'
p3855
sI3868
S'mounting'
p3856
sI3869
S'guard'
p3857
sI3870
S'posts'
p3858
sI3871
S'crammed'
p3859
sI3872
S'spoons'
p3860
sI3873
S'lestthey'
p3861
sI3874
S'shriek'
p3862
sI3875
S'turn'
p3863
sI3876
S'helped'
p3864
sI3877
S'atlast'
p3865
sI3878
S'dishes'
p3866
sI3879
S'grace'
p3867
sI3880
S'succeeded'
p3868
sI3881
S'abreathless'
p3869
sI3882
S'thecarving-knife'
p3870
sI3883
S'plunge'
p3871
sI3884
S'long-expected'
p3872
sI3885
S'gush'
p3873
sI3886
S'stuffing'
p3874
sI3887
S'issued'
p3875
sI3888
S'murmur'
p3876
sI3889
S'ofdelight'
p3877
sI3890
S'arose'
p3878
sI3891
S'twoyoung'
p3879
sI3892
S'handle'
p3880
sI3893
S'knife'
p3881
sI3894
S'andfeebly'
p3882
sI3895
S'wassuch'
p3883
sI3896
S'cooked'
p3884
sI3897
S'tenderness'
p3885
sI3898
S'cheapness'
p3886
sI3899
S'themes'
p3887
sI3900
S'universal'
p3888
sI3901
S'admiration'
p3889
sI3902
S'eked'
p3890
sI3903
S'andmashed'
p3891
sI3904
S'sufficient'
p3892
sI3905
S'surveying'
p3893
sI3906
S'smallatom'
p3894
sI3907
S'bone'
p3895
sI3908
S'dish'
p3896
sI3909
S'ate'
p3897
sI3910
S'everyone'
p3898
sI3911
S'youngest'
p3899
sI3912
S'weresteeped'
p3900
sI3913
S'beingchanged'
p3901
sI3914
S'belinda'
p3902
sI3915
S'nervousto'
p3903
sI3916
S'witnesses'
p3904
sI3917
S'in.suppose'
p3905
sI3918
S'break'
p3906
sI3919
S'somebody'
p3907
sI3920
S'back-yard'
p3908
sI3921
S'andstolen'
p3909
sI3922
S'whichthe'
p3910
sI3923
S'sorts'
p3911
sI3924
S'horrors'
p3912
sI3925
S'weresupposed.hallo'
p3913
sI3926
S'copper'
p3914
sI3927
S'smelllike'
p3915
sI3928
S'washing-day'
p3916
sI3929
S'smell'
p3917
sI3930
S'eating-house'
p3918
sI3931
S'anda'
p3919
sI3932
S'pastrycook'
p3920
sI3933
S'laundress'
p3921
sI3934
S'tothat'
p3922
sI3935
S'cratchitentered'
p3923
sI3936
S'smiling'
p3924
sI3937
S'proudly'
p3925
sI3938
S'speckledcannon-ball'
p3926
sI3939
S'blazing'
p3927
sI3940
S'half-a-quartern'
p3928
sI3941
S'ofignited'
p3929
sI3942
S'brandy'
p3930
sI3943
S'bedight'
p3931
sI3944
S'stuck'
p3932
sI3945
S'top.oh'
p3933
sI3946
S'calmly'
p3934
sI3947
S'heregarded'
p3935
sI3948
S'greatest'
p3936
sI3949
S'success'
p3937
sI3950
S'achieved'
p3938
sI3951
S'sincetheir'
p3939
sI3952
S'marriage'
p3940
sI3953
S'hermind'
p3941
sI3954
S'doubts'
p3942
sI3955
S'flour.everybody'
p3943
sI3956
S'flatheresy'
p3944
sI3957
S'hint'
p3945
sI3958
S'athing.at'
p3946
sI3959
S'hearthswept'
p3947
sI3960
S'compound'
p3948
sI3961
S'andconsidered'
p3949
sI3962
S'ashovel'
p3950
sI3963
S'drewround'
p3951
sI3964
S'circle'
p3952
sI3965
S'aone'
p3953
sI3966
S'elbow'
p3954
sI3967
S'display'
p3955
sI3968
S'twotumblers'
p3956
sI3969
S'custard'
p3957
sI3970
S'cup'
p3958
sI3971
S'handle.these'
p3959
sI3972
S'stuff'
p3960
sI3973
S'goldengoblets'
p3961
sI3974
S'served'
p3962
sI3975
S'whilethe'
p3963
sI3976
S'sputtered'
p3964
sI3977
S'noisily'
p3965
sI3978
S'bobproposed'
p3966
sI3979
S'dears'
p3967
sI3980
S're-echoed'
p3968
sI3981
S'all.he'
p3969
sI3982
S'heldhis'
p3970
sI3983
S'loved'
p3971
sI3984
S'tokeep'
p3972
sI3985
S'dreaded'
p3973
sI3986
S'tellme'
p3974
sI3987
S'vacant'
p3975
sI3988
S'seat'
p3976
sI3989
S'chimney-corner'
p3977
sI3990
S'carefully'
p3978
sI3991
S'preserved'
p3979
sI3992
S'shadowsremain'
p3980
sI3993
S'unaltered'
p3981
sI3994
S'future'
p3982
sI3995
S'spared'
p3983
sI3996
S'remain'
p3984
sI3997
S'myrace'
p3985
sI3998
S'liketo'
p3986
sI3999
S'decrease'
p3987
sI4000
S'quoted'
p3988
sI4001
S'andwas'
p3989
sI4002
S'penitence'
p3990
sI4003
S'adamant'
p3991
sI4004
S'forbearthat'
p3992
sI4005
S'wicked'
p3993
sI4006
S'cant'
p3994
sI4007
S'discovered'
p3995
sI4008
S'andwhere'
p3996
sI4009
S'decide'
p3997
sI4010
S'itmay'
p3998
sI4011
S'worthless'
p3999
sI4012
S'less'
p4000
sI4013
S'fitto'
p4001
sI4014
S'millions'
p4002
sI4015
S'theinsect'
p4003
sI4016
S'leaf'
p4004
sI4017
S'pronouncing'
p4005
sI4018
S'hungrybrothers'
p4006
sI4019
S'dust'
p4007
sI4020
S'bent'
p4008
sI4021
S'rebuke'
p4009
sI4022
S'cast'
p4010
sI4023
S'eyesupon'
p4011
sI4024
S'speedily'
p4012
sI4025
S'name.'
p4013
sI4026
S'founder'
p4014
sI4027
S'thefeast'
p4015
sI4028
S'feast'
p4016
sI4029
S'reddening'
p4017
sI4030
S'iwish'
p4018
sI4031
S'andi'
p4019
sI4032
S'appetite'
p4020
sI4033
S'drinksthe'
p4021
sI4034
S'health'
p4022
sI4035
S'odious'
p4023
sI4036
S'stingy'
p4024
sI4037
S'unfeeling'
p4025
sI4038
S'mr.scrooge'
p4026
sI4039
S'robert'
p4027
sI4040
S'mild'
p4028
sI4041
S'drank'
p4029
sI4042
S'toast'
p4030
sI4043
S'theirproceedings'
p4031
sI4044
S'heartiness'
p4032
sI4045
S'twopence'
p4033
sI4046
S'ogre'
p4034
sI4047
S'thefamily'
p4035
sI4048
S'whichwas'
p4036
sI4049
S'dispelled'
p4037
sI4050
S'minutes.after'
p4038
sI4051
S'merrier'
p4039
sI4052
S'fromthe'
p4040
sI4053
S'baleful'
p4041
sI4054
S'cratchittold'
p4042
sI4055
S'whichwould'
p4043
sI4056
S'obtained'
p4044
sI4057
S'five-and-sixpence'
p4045
sI4058
S'weekly'
p4046
sI4059
S'tremendously'
p4047
sI4060
S'manof'
p4048
sI4061
S'frombetween'
p4049
sI4062
S'deliberating'
p4050
sI4063
S'particularinvestments'
p4051
sI4064
S'favour'
p4052
sI4065
S'receipt'
p4053
sI4066
S'thatbewildering'
p4054
sI4067
S'income'
p4055
sI4068
S'apprentice'
p4056
sI4069
S'milliner'
p4057
sI4070
S'sheworked'
p4058
sI4071
S'stretch'
p4059
sI4072
S'abed'
p4060
sI4073
S'fora'
p4061
sI4074
S'holiday'
p4062
sI4075
S'howshe'
p4063
sI4076
S'countess'
p4064
sI4077
S'tall'
p4065
sI4078
S'collarsso'
p4066
sI4079
S'allthis'
p4067
sI4080
S'by-and-bythey'
p4068
sI4081
S'song'
p4069
sI4082
S'plaintive'
p4070
sI4083
S'sang'
p4071
sI4084
S'indeed.there'
p4072
sI4085
S'handsome'
p4073
sI4086
S'waterproof'
p4074
sI4087
S'scanty'
p4075
sI4088
S'likelydid'
p4076
sI4089
S'pawn-broker'
p4077
sI4090
S'pleased'
p4078
sI4091
S'contented'
p4079
sI4092
S'theyfaded'
p4080
sI4093
S'happier'
p4081
sI4094
S"spirit'storch"
p4082
sI4095
S'parting'
p4083
sI4096
S'last.by'
p4084
sI4097
S'snowing'
p4085
sI4098
S'asscrooge'
p4086
sI4099
S'theroaring'
p4087
sI4100
S'fires'
p4088
sI4101
S'kitchens'
p4089
sI4102
S'parlours'
p4090
sI4103
S'waswonderful'
p4091
sI4104
S'flickering'
p4092
sI4105
S'preparations'
p4093
sI4106
S'acosy'
p4094
sI4107
S'baking'
p4095
sI4108
S'darkness.there'
p4096
sI4109
S'tomeet'
p4097
sI4110
S'sisters'
p4098
sI4111
S'cousins'
p4099
sI4112
S'uncles'
p4100
sI4113
S'aunts'
p4101
sI4114
S'thefirst'
p4102
sI4115
S'blinds'
p4103
sI4116
S'ofguests'
p4104
sI4117
S'assembling'
p4105
sI4118
S'hooded'
p4106
sI4119
S'andfur-booted'
p4107
sI4120
S'tripped'
p4108
sI4121
S'lightly'
p4109
sI4122
S'nearneighbour'
p4110
sI4123
S'single'
p4111
sI4124
S'thementer'
p4112
sI4125
S'witches'
p4113
sI4126
S'judged'
p4114
sI4127
S'numbers'
p4115
sI4128
S'tofriendly'
p4116
sI4129
S'gatherings'
p4117
sI4130
S'togive'
p4118
sI4131
S'welcome'
p4119
sI4132
S'expectingcompany'
p4120
sI4133
S'piling'
p4121
sI4134
S'half-chimney'
p4122
sI4135
S'blessings'
p4123
sI4136
S'howthe'
p4124
sI4137
S'exulted'
p4125
sI4138
S'bared'
p4126
sI4139
S'breadth'
p4127
sI4140
S'itscapacious'
p4128
sI4141
S'palm'
p4129
sI4142
S'outpouring'
p4130
sI4143
S'itsbright'
p4131
sI4144
S'harmless'
p4132
sI4145
S'mirth'
p4133
sI4146
S'reach'
p4134
sI4147
S'verylamp-lighter'
p4135
sI4148
S'dotting'
p4136
sI4149
S'dusky'
p4137
sI4150
S'specks'
p4138
sI4151
S'oflight'
p4139
sI4152
S'spend'
p4140
sI4153
S'somewhere'
p4141
sI4154
S'outloudly'
p4142
sI4155
S'kenned'
p4143
sI4156
S'lamp-lighter'
p4144
sI4157
S'thathe'
p4145
sI4158
S'christmas.and'
p4146
sI4159
S'ableak'
p4147
sI4160
S'desert'
p4148
sI4161
S'moor'
p4149
sI4162
S'masses'
p4150
sI4163
S'castabout'
p4151
sI4164
S'burial-place'
p4152
sI4165
S'giants'
p4153
sI4166
S'spreaditself'
p4154
sI4167
S'wheresoever'
p4155
sI4168
S'listed'
p4156
sI4169
S'frostthat'
p4157
sI4170
S'prisoner'
p4158
sI4171
S'moss'
p4159
sI4172
S'furze'
p4160
sI4173
S'coarse'
p4161
sI4174
S'rank'
p4162
sI4175
S'west'
p4163
sI4176
S'streak'
p4164
sI4177
S'fieryred'
p4165
sI4178
S'desolation'
p4166
sI4179
S'instant'
p4167
sI4180
S'sullen'
p4168
sI4181
S'frowning'
p4169
sI4182
S'thick'
p4170
sI4183
S'ofdarkest'
p4171
sI4184
S'miners'
p4172
sI4185
S'hut'
p4173
sI4186
S'swiftly'
p4174
sI4187
S'advancedtowards'
p4175
sI4188
S'passing'
p4176
sI4189
S'assembled'
p4177
sI4190
S'andwoman'
p4178
sI4191
S'anothergeneration'
p4179
sI4192
S'decked'
p4180
sI4193
S'attire.the'
p4181
sI4194
S'seldom'
p4182
sI4195
S'howling'
p4183
sI4196
S'windupon'
p4184
sI4197
S'barren'
p4185
sI4198
S'waste'
p4186
sI4199
S'avery'
p4187
sI4200
S'joinedin'
p4188
sI4201
S'chorus'
p4189
sI4202
S'gotquite'
p4190
sI4203
S'blithe'
p4191
sI4204
S'loud'
p4192
sI4205
S'sankagain.the'
p4193
sI4206
S'tarry'
p4194
sI4207
S'sped'
p4195
sI4208
S'whither'
p4196
sI4209
S'land'
p4197
sI4210
S'frightfulrange'
p4198
sI4211
S'rocks'
p4199
sI4212
S'deafened'
p4200
sI4213
S'thethundering'
p4201
sI4214
S'rolled'
p4202
sI4215
S'raged'
p4203
sI4216
S'thedreadful'
p4204
sI4217
S'caverns'
p4205
sI4218
S'fiercely'
p4206
sI4219
S'undermine'
p4207
sI4220
S'earth.built'
p4208
sI4221
S'reef'
p4209
sI4222
S'sunken'
p4210
sI4223
S'league'
p4211
sI4224
S'shore'
p4212
sI4225
S'waters'
p4213
sI4226
S'chafed'
p4214
sI4227
S'dashed'
p4215
sI4228
S'wild'
p4216
sI4229
S'therestood'
p4217
sI4230
S'lighthouse'
p4218
sI4231
S'heaps'
p4219
sI4232
S'seaweed'
p4220
sI4233
S'clung'
p4221
sI4234
S'base'
p4222
sI4235
S'storm-birds'
p4223
sI4236
S'thewater'
p4224
sI4237
S'waves'
p4225
sI4238
S'skimmed.but'
p4226
sI4239
S'watched'
p4227
sI4240
S'thatthrough'
p4228
sI4241
S'loophole'
p4229
sI4242
S'ray'
p4230
sI4243
S'ofbrightness'
p4231
sI4244
S'joining'
p4232
sI4245
S'horny'
p4233
sI4246
S'roughtable'
p4234
sI4247
S'theircan'
p4235
sI4248
S'grog'
p4236
sI4249
S'damagedand'
p4237
sI4250
S'scarred'
p4238
sI4251
S'figure-head'
p4239
sI4252
S'ship'
p4240
sI4253
S'mightbe'
p4241
sI4254
S'sturdy'
p4242
sI4255
S'gale'
p4243
sI4256
S'itself.again'
p4244
sI4257
S'heaving'
p4245
sI4258
S'aship'
p4246
sI4259
S'helmsman'
p4247
sI4260
S'wheel'
p4248
sI4261
S'thebow'
p4249
sI4262
S'officers'
p4250
sI4263
S'watch'
p4251
sI4264
S'theirseveral'
p4252
sI4265
S'hummed'
p4253
sI4266
S'tune'
p4254
sI4267
S'orhad'
p4255
sI4268
S'companion'
p4256
sI4269
S'ofsome'
p4257
sI4270
S'bygone'
p4258
sI4271
S'homeward'
p4259
sI4272
S'waking'
p4260
sI4273
S'sleeping'
p4261
sI4274
S'kinderword'
p4262
sI4275
S'hadshared'
p4263
sI4276
S'extent'
p4264
sI4277
S'festivities'
p4265
sI4278
S'hecared'
p4266
sI4279
S'delighted'
p4267
sI4280
S'rememberhim.it'
p4268
sI4281
S'solemn'
p4269
sI4282
S'thelonely'
p4270
sI4283
S'unknown'
p4271
sI4284
S'abyss'
p4272
sI4285
S'depths'
p4273
sI4286
S'secrets'
p4274
sI4287
S'asprofound'
p4275
sI4288
S'thusengaged'
p4276
sI4289
S'recognise'
p4277
sI4290
S'abright'
p4278
sI4291
S'hisside'
p4279
sI4292
S'approving'
p4280
sI4293
S'affability'
p4281
sI4294
S'ha'
p4282
sI4295
S'happen'
p4283
sI4296
S'unlikely'
p4284
sI4297
S'blessedin'
p4285
sI4298
S'introduce'
p4286
sI4299
S'cultivate'
p4287
sI4300
S'acquaintance.it'
p4288
sI4301
S'noble'
p4289
sI4302
S'adjustment'
p4290
sI4303
S'infection'
p4291
sI4304
S'disease'
p4292
sI4305
S'sorrow'
p4293
sI4306
S'soirresistibly'
p4294
sI4307
S'contagious'
p4295
sI4308
S'laughter'
p4296
sI4309
S'good-humour'
p4297
sI4310
S"scrooge'snephew"
p4298
sI4311
S'sides'
p4299
sI4312
S'andtwisting'
p4300
sI4313
S'extravagant'
p4301
sI4314
S'contortions'
p4302
sI4315
S"scrooge'sniece"
p4303
sI4316
S'assembledfriends'
p4304
sI4317
S'behindhand'
p4305
sI4318
S'lustily'
p4306
sI4319
S'fred'
p4307
sI4320
S'niece'
p4308
sI4321
S'blessthose'
p4309
sI4322
S'halves'
p4310
sI4323
S'inearnest.she'
p4311
sI4324
S'dimpled'
p4312
sI4325
S'surprised-looking'
p4313
sI4326
S'capital'
p4314
sI4327
S'ripe'
p4315
sI4328
S'madeto'
p4316
sI4329
S'kissed'
p4317
sI4330
S'dots'
p4318
sI4331
S'abouther'
p4319
sI4332
S'thesunniest'
p4320
sI4333
S'head.altogether'
p4321
sI4334
S'provoking'
p4322
sI4335
S'butsatisfactory'
p4323
sI4336
S'satisfactory'
p4324
sI4337
S'comical'
p4325
sI4338
S'offences'
p4326
sI4339
S'carry'
p4327
sI4340
S'theirown'
p4328
sI4341
S'hinted'
p4329
sI4342
S'youalways'
p4330
sI4343
S'useto'
p4331
sI4344
S'comfortablewith'
p4332
sI4345
S'satisfaction'
p4333
sI4346
S'isever'
p4334
sI4347
S'benefit'
p4335
sI4348
S'patience'
p4336
sI4349
S'ladies'
p4337
sI4350
S'opinion'
p4338
sI4351
S'beangry'
p4339
sI4352
S'suffers'
p4340
sI4353
S'whims'
p4341
sI4354
S'always.here'
p4342
sI4355
S'takes'
p4343
sI4356
S'dislike'
p4344
sI4357
S'dinewith'
p4345
sI4358
S'consequence'
p4346
sI4359
S'lose'
p4347
sI4360
S'loses'
p4348
sI4361
S'interrupted'
p4349
sI4362
S'allowed'
p4350
sI4363
S'competent'
p4351
sI4364
S'judges'
p4352
sI4365
S'thedessert'
p4353
sI4366
S'lamp-light.'
p4354
sI4367
S'faith'
p4355
sI4368
S'housekeepers'
p4356
sI4369
S'topper'
p4357
sI4370
S'bachelor'
p4358
sI4371
S'outcast'
p4359
sI4372
S'rightto'
p4360
sI4373
S'subject'
p4361
sI4374
S'whereat'
p4362
sI4375
S"niece'ssister"
p4363
sI4376
S'plump'
p4364
sI4377
S'lace'
p4365
sI4378
S'tucker'
p4366
sI4379
S'theroses'
p4367
sI4380
S'neverfinishes'
p4368
sI4381
S'begins'
p4369
sI4382
S'revelled'
p4370
sI4383
S'witharomatic'
p4371
sI4384
S'vinegar'
p4372
sI4385
S'example'
p4373
sI4386
S'unanimously'
p4374
sI4387
S'consequenceof'
p4375
sI4388
S'ithink'
p4376
sI4389
S'harm.i'
p4377
sI4390
S'pleasanter'
p4378
sI4391
S'companions'
p4379
sI4392
S'ownthoughts'
p4380
sI4393
S'mouldy'
p4381
sI4394
S'dusty'
p4382
sI4395
S'meanto'
p4383
sI4396
S'likes'
p4384
sI4397
S'fori'
p4385
sI4398
S'rail'
p4386
sI4399
S'till'
p4387
sI4400
S'dies'
p4388
sI4401
S'helpthinking'
p4389
sI4402
S'defy'
p4390
sI4403
S'finds'
p4391
sI4404
S'goodtemper'
p4392
sI4405
S"'uncle"
p4393
sI4406
S'itonly'
p4394
sI4407
S'puts'
p4395
sI4408
S'vein'
p4396
sI4409
S"_that's_something"
p4397
sI4410
S'notion'
p4398
sI4411
S'scrooge.but'
p4399
sI4412
S'thoroughly'
p4400
sI4413
S'good-natured'
p4401
sI4414
S'theylaughed'
p4402
sI4415
S'rate'
p4403
sI4416
S'encouraged'
p4404
sI4417
S'intheir'
p4405
sI4418
S'merriment'
p4406
sI4419
S'bottle'
p4407
sI4420
S'joyously.after'
p4408
sI4421
S'musical'
p4409
sI4422
S'knewwhat'
p4410
sI4423
S'sung'
p4411
sI4424
S'catch'
p4412
sI4425
S'assure'
p4413
sI4426
S'growl'
p4414
sI4427
S'bass'
p4415
sI4428
S'andnever'
p4416
sI4429
S'swell'
p4417
sI4430
S'veins'
p4418
sI4431
S'forehead'
p4419
sI4432
S'overit'
p4420
sI4433
S'played'
p4421
sI4434
S'harp'
p4422
sI4435
S'othertunes'
p4423
sI4436
S'learn'
p4424
sI4437
S'whistleit'
p4425
sI4438
S'fetchedscrooge'
p4426
sI4439
S'boarding-school'
p4427
sI4440
S'reminded'
p4428
sI4441
S'ghostof'
p4429
sI4442
S'strain'
p4430
sI4443
S'thingsthat'
p4431
sI4444
S'softened'
p4432
sI4445
S'hemight'
p4433
sI4446
S'cultivated'
p4434
sI4447
S'kindnesses'
p4435
sI4448
S'withhis'
p4436
sI4449
S'resorting'
p4437
sI4450
S'sexton'
p4438
sI4451
S'spade'
p4439
sI4452
S'jacobmarley.but'
p4440
sI4453
S'devote'
p4441
sI4454
S'awhile'
p4442
sI4455
S'theyplayed'
p4443
sI4456
S'neverbetter'
p4444
sI4457
S'himself.stop'
p4445
sI4458
S'blindman'
p4446
sI4459
S'buff'
p4447
sI4460
S'was.and'
p4448
sI4461
S'eyesin'
p4449
sI4462
S'theway'
p4450
sI4463
S'outrage'
p4451
sI4464
S'fire-irons'
p4452
sI4465
S'tumblingover'
p4453
sI4466
S'bumping'
p4454
sI4467
S'piano'
p4455
sI4468
S'smothering'
p4456
sI4469
S'himselfamongst'
p4457
sI4470
S'wherever'
p4458
sI4471
S'knewwhere'
p4459
sI4472
S'hadfallen'
p4460
sI4473
S'havemade'
p4461
sI4474
S'feint'
p4462
sI4475
S'seize'
p4463
sI4476
S'anaffront'
p4464
sI4477
S'understanding'
p4465
sI4478
S'sidled'
p4466
sI4479
S'direction'
p4467
sI4480
S"wasn'tfair"
p4468
sI4481
S'inspite'
p4469
sI4482
S'silken'
p4470
sI4483
S'rustlings'
p4471
sI4484
S'flutterings'
p4472
sI4485
S'escape'
p4473
sI4486
S'conductwas'
p4474
sI4487
S'execrable'
p4475
sI4488
S'pretending'
p4476
sI4489
S'hispretending'
p4477
sI4490
S'head-dress'
p4478
sI4491
S'toassure'
p4479
sI4492
S'identity'
p4480
sI4493
S'pressing'
p4481
sI4494
S'ring'
p4482
sI4495
S'herfinger'
p4483
sI4496
S'vile'
p4484
sI4497
S'nodoubt'
p4485
sI4498
S'inoffice'
p4486
sI4499
S'confidential'
p4487
sI4500
S'curtains.scrooge'
p4488
sI4501
S'madecomfortable'
p4489
sI4502
S'footstool'
p4490
sI4503
S'snug'
p4491
sI4504
S'wherethe'
p4492
sI4505
S'theforfeits'
p4493
sI4506
S'thealphabet'
p4494
sI4507
S'likewise'
p4495
sI4508
S'verygreat'
p4496
sI4509
S'sistershollow'
p4497
sI4510
S'you.there'
p4498
sI4511
S'allplayed'
p4499
sI4512
S'wholly'
p4500
sI4513
S'hehad'
p4501
sI4514
S'hesometimes'
p4502
sI4515
S'guessedright'
p4503
sI4516
S'sharpest'
p4504
sI4517
S'needle'
p4505
sI4518
S'whitechapel'
p4506
sI4519
S'warranted'
p4507
sI4520
S'tocut'
p4508
sI4521
S'sharper'
p4509
sI4522
S'blunt'
p4510
sI4523
S'be.the'
p4511
sI4524
S'mood'
p4512
sI4525
S'stayuntil'
p4513
sI4526
S'guests'
p4514
sI4527
S'departed'
p4515
sI4528
S'half-hour'
p4516
sI4529
S'ofsomething'
p4517
sI4530
S'answering'
p4518
sI4531
S'theirquestions'
p4519
sI4532
S'brisk'
p4520
sI4533
S'questioning'
p4521
sI4534
S'towhich'
p4522
sI4535
S'exposed'
p4523
sI4536
S'elicited'
p4524
sI4537
S'ananimal'
p4525
sI4538
S'animal'
p4526
sI4539
S'disagreeable'
p4527
sI4540
S'savage'
p4528
sI4541
S'grunted'
p4529
sI4542
S'talked'
p4530
sI4543
S'andlived'
p4531
sI4544
S'showof'
p4532
sI4545
S'menagerie'
p4533
sI4546
S'wasnever'
p4534
sI4547
S'killed'
p4535
sI4548
S'market'
p4536
sI4549
S'cow'
p4537
sI4550
S'abull'
p4538
sI4551
S'tiger'
p4539
sI4552
S'pig'
p4540
sI4553
S'cat'
p4541
sI4554
S'everyfresh'
p4542
sI4555
S'burst'
p4543
sI4556
S'roarof'
p4544
sI4557
S'tickled'
p4545
sI4558
S'toget'
p4546
sI4559
S'stamp'
p4547
sI4560
S'asimilar'
p4548
sI4561
S'scro-o-o-o-oge'
p4549
sI4562
S'sentiment'
p4550
sI4563
S'thoughsome'
p4551
sI4564
S'objected'
p4552
sI4565
S'reply'
p4553
sI4566
S'inasmuch'
p4554
sI4567
S'negative'
p4555
sI4568
S'havediverted'
p4556
sI4569
S'supposing'
p4557
sI4570
S'hadany'
p4558
sI4571
S'tendency'
p4559
sI4572
S'ungrateful'
p4560
sI4573
S'mulledwine'
p4561
sI4574
S'itnevertheless'
p4562
sI4575
S'imperceptibly'
p4563
sI4576
S'gay'
p4564
sI4577
S'pledged'
p4565
sI4578
S'unconscious'
p4566
sI4579
S'return'
p4567
sI4580
S'thankedthem'
p4568
sI4581
S'inaudible'
p4569
sI4582
S'speech'
p4570
sI4583
S'hisnephew'
p4571
sI4584
S'travels.much'
p4572
sI4585
S'visited'
p4573
sI4586
S'butalways'
p4574
sI4587
S'sick-beds'
p4575
sI4588
S'lands'
p4576
sI4589
S'bystruggling'
p4577
sI4590
S'almshouse'
p4578
sI4591
S'hospital'
p4579
sI4592
S'gaol'
p4580
sI4593
S'everyrefuge'
p4581
sI4594
S'authority'
p4582
sI4595
S'fastthe'
p4583
sI4596
S'blessing'
p4584
sI4597
S'taughtscrooge'
p4585
sI4598
S'precepts.it'
p4586
sI4599
S'doubtsof'
p4587
sI4600
S'holidays'
p4588
sI4601
S'condensed'
p4589
sI4602
S'whilescrooge'
p4590
sI4603
S'remained'
p4591
sI4604
S'outward'
p4592
sI4605
S'twelfth-night'
p4593
sI4606
S'noticed'
p4594
sI4607
S'hairwas'
p4595
sI4608
S'grey'
p4596
sI4609
S'globe'
p4597
sI4610
S'endsto-night.'
p4598
sI4611
S'midnight'
p4599
sI4612
S'hark'
p4600
sI4613
S'drawing'
p4601
sI4614
S'ringing'
p4602
sI4615
S'three-quarters'
p4603
sI4616
S'lookingintently'
p4604
sI4617
S'notbelonging'
p4605
sI4618
S'protruding'
p4606
sI4619
S'foot'
p4607
sI4620
S'aclaw'
p4608
sI4621
S'claw'
p4609
sI4622
S'flesh'
p4610
sI4623
S"spirit'ssorrowful"
p4611
sI4624
S'foldings'
p4612
sI4625
S'abject'
p4613
sI4626
S'hideous'
p4614
sI4627
S'miserable'
p4615
sI4628
S'knelt'
p4616
sI4629
S'clungupon'
p4617
sI4630
S'ghost.they'
p4618
sI4631
S'scowling'
p4619
sI4632
S'wolfish'
p4620
sI4633
S'butprostrate'
p4621
sI4634
S'youth'
p4622
sI4635
S'havefilled'
p4623
sI4636
S'freshest'
p4624
sI4637
S'tints'
p4625
sI4638
S'astale'
p4626
sI4639
S'pinched'
p4627
sI4640
S'twistedthem'
p4628
sI4641
S'shreds'
p4629
sI4642
S'angels'
p4630
sI4643
S'satenthroned'
p4631
sI4644
S'devils'
p4632
sI4645
S'lurked'
p4633
sI4646
S'menacing'
p4634
sI4647
S'nodegradation'
p4635
sI4648
S'perversion'
p4636
sI4649
S'humanity'
p4637
sI4650
S'grade'
p4638
sI4651
S'themysteries'
p4639
sI4652
S'creation'
p4640
sI4653
S'monsters'
p4641
sI4654
S'anddread.scrooge'
p4642
sI4655
S'started'
p4643
sI4656
S'appalled'
p4644
sI4657
S'hetried'
p4645
sI4658
S'fine'
p4646
sI4659
S'parties'
p4647
sI4660
S'enormous'
p4648
sI4661
S'magnitude.'
p4649
sI4662
S'theycling'
p4650
sI4663
S'appealing'
p4651
sI4664
S'fathers'
p4652
sI4665
S'ignorance'
p4653
sI4666
S'thisgirl'
p4654
sI4667
S'beware'
p4655
sI4668
S'written'
p4656
sI4669
S'doom'
p4657
sI4670
S'unless'
p4658
sI4671
S'writing'
p4659
sI4672
S'erased'
p4660
sI4673
S'deny'
p4661
sI4674
S'stretching'
p4662
sI4675
S'outits'
p4663
sI4676
S'slander'
p4664
sI4677
S'admit'
p4665
sI4678
S'foryour'
p4666
sI4679
S'factious'
p4667
sI4680
S'worse'
p4668
sI4681
S'bide'
p4669
sI4682
S'refuge'
p4670
sI4683
S'resource'
p4671
sI4684
S'lasttime'
p4672
sI4685
S'twelve.scrooge'
p4673
sI4686
S'laststroke'
p4674
sI4687
S'vibrate'
p4675
sI4688
S'prediction'
p4676
sI4689
S'jacobmarley'
p4677
sI4690
S'beheld'
p4678
sI4691
S'draped'
p4679
sI4692
S'andhooded'
p4680
sI4693
S'him.stave'
p4681
sI4694
S'fourthe'
p4682
sI4695
S'spiritsthe'
p4683
sI4696
S'gravely'
p4684
sI4697
S'silently'
p4685
sI4698
S'knee'
p4686
sI4699
S'thisspirit'
p4687
sI4700
S'moved'
p4688
sI4701
S'scatter'
p4689
sI4702
S'mystery.it'
p4690
sI4703
S'shrouded'
p4691
sI4704
S'itsface'
p4692
sI4705
S'outstretchedhand'
p4693
sI4706
S'difficult'
p4694
sI4707
S'detach'
p4695
sI4708
S'figurefrom'
p4696
sI4709
S'separate'
p4697
sI4710
S'wassurrounded.he'
p4698
sI4711
S'stately'
p4699
sI4712
S'thatits'
p4700
sI4713
S'mysterious'
p4701
sI4714
S'presence'
p4702
sI4715
S'neither'
p4703
sI4716
S'saidscrooge.the'
p4704
sI4717
S'onward'
p4705
sI4718
S'upper'
p4706
sI4719
S'portion'
p4707
sI4720
S'contracted'
p4708
sI4721
S'itsfolds'
p4709
sI4722
S'answerhe'
p4710
sI4723
S'received.although'
p4711
sI4724
S'feared'
p4712
sI4725
S'thesilent'
p4713
sI4726
S'foundthat'
p4714
sI4727
S'hardly'
p4715
sI4728
S'stand'
p4716
sI4729
S'spiritpaused'
p4717
sI4730
S'giving'
p4718
sI4731
S'torecover.but'
p4719
sI4732
S'thrilled'
p4720
sI4733
S'vagueuncertain'
p4721
sI4734
S'shroud'
p4722
sI4735
S'wereghostly'
p4723
sI4736
S'intently'
p4724
sI4737
S'stretched'
p4725
sI4738
S'utmost'
p4726
sI4739
S'spectral'
p4727
sI4740
S'greatheap'
p4728
sI4741
S'hopeto'
p4729
sI4742
S'youcompany'
p4730
sI4743
S'thankful'
p4731
sI4744
S'waning'
p4732
sI4745
S'isprecious'
p4733
sI4746
S'himalong.they'
p4734
sI4747
S'tospring'
p4735
sI4748
S'encompass'
p4736
sI4749
S'amongst'
p4737
sI4750
S'merchants'
p4738
sI4751
S'hurriedup'
p4739
sI4752
S'chinked'
p4740
sI4753
S'conversed'
p4741
sI4754
S'ingroups'
p4742
sI4755
S'watches'
p4743
sI4756
S'theirgreat'
p4744
sI4757
S'seals'
p4745
sI4758
S'often.the'
p4746
sI4759
S'knot'
p4747
sI4760
S'advanced'
p4748
sI4761
S'theirtalk'
p4749
sI4762
S'muchabout'
p4750
sI4763
S'vastquantity'
p4751
sI4764
S'snuff'
p4752
sI4765
S'snuff-box'
p4753
sI4766
S'neverdie'
p4754
sI4767
S'yawn'
p4755
sI4768
S'red-faced'
p4756
sI4769
S'apendulous'
p4757
sI4770
S'excrescence'
p4758
sI4771
S'gillsof'
p4759
sI4772
S'turkey-cock'
p4760
sI4773
S'yawning'
p4761
sI4774
S'alli'
p4762
sI4775
S'pleasantry'
p4763
sI4776
S'likely'
p4764
sI4777
S'speaker'
p4765
sI4778
S'aparty'
p4766
sI4779
S'volunteer'
p4767
sI4780
S'lunch'
p4768
sI4781
S'fed'
p4769
sI4782
S'disinterested'
p4770
sI4783
S'firstspeaker'
p4771
sI4784
S'gloves'
p4772
sI4785
S"i'lloffer"
p4773
sI4786
S'atall'
p4774
sI4787
S'stopand'
p4775
sI4788
S'met'
p4776
sI4789
S'bye'
p4777
sI4790
S'speakers'
p4778
sI4791
S'listeners'
p4779
sI4792
S'strolled'
p4780
sI4793
S'mixed'
p4781
sI4794
S'groups.scrooge'
p4782
sI4795
S'explanation.the'
p4783
sI4796
S'glided'
p4784
sI4797
S'finger'
p4785
sI4798
S'personsmeeting'
p4786
sI4799
S'liehere.he'
p4787
sI4800
S'verywealthy'
p4788
sI4801
S'importance'
p4789
sI4802
S'standingwell'
p4790
sI4803
S'esteem'
p4791
sI4804
S'strictly'
p4792
sI4805
S'other.'
p4793
sI4806
S'scratch'
p4794
sI4807
S'hey'
p4795
sI4808
S'seasonable'
p4796
sI4809
S'skater'
p4797
sI4810
S'meeting'
p4798
sI4811
S'conversation'
p4799
sI4812
S'theirparting.scrooge'
p4800
sI4813
S'surprised'
p4801
sI4814
S'shouldattach'
p4802
sI4815
S'conversations'
p4803
sI4816
S'apparently'
p4804
sI4817
S'trivial'
p4805
sI4818
S'feelingassured'
p4806
sI4819
S'hidden'
p4807
sI4820
S'toconsider'
p4808
sI4821
S'supposed'
p4809
sI4822
S'bearing'
p4810
sI4823
S'waspast'
p4811
sI4824
S'province'
p4812
sI4825
S'them.but'
p4813
sI4826
S'doubting'
p4814
sI4827
S'whomsoever'
p4815
sI4828
S'applied'
p4816
sI4829
S'somelatent'
p4817
sI4830
S'moral'
p4818
sI4831
S'improvement'
p4819
sI4832
S'treasure'
p4820
sI4833
S'everyword'
p4821
sI4834
S'theshadow'
p4822
sI4835
S'theconduct'
p4823
sI4836
S'clue'
p4824
sI4837
S'wouldrender'
p4825
sI4838
S'solution'
p4826
sI4839
S'riddles'
p4827
sI4840
S'easy.he'
p4828
sI4841
S'image'
p4829
sI4842
S'manstood'
p4830
sI4843
S'accustomed'
p4831
sI4844
S'hisusual'
p4832
sI4845
S'likeness'
p4833
sI4846
S'multitudes'
p4834
sI4847
S'poured'
p4835
sI4848
S'porch'
p4836
sI4849
S'littlesurprise'
p4837
sI4850
S'revolving'
p4838
sI4851
S'new-born'
p4839
sI4852
S'resolutions'
p4840
sI4853
S'outin'
p4841
sI4854
S'this.quiet'
p4842
sI4855
S'roused'
p4843
sI4856
S'quest'
p4844
sI4857
S'fancied'
p4845
sI4858
S'reference'
p4846
sI4859
S'unseen'
p4847
sI4860
S'shudder'
p4848
sI4861
S'andfeel'
p4849
sI4862
S'cold.they'
p4850
sI4863
S'obscure'
p4851
sI4864
S'penetrated'
p4852
sI4865
S'recognised'
p4853
sI4866
S'itssituation'
p4854
sI4867
S'repute'
p4855
sI4868
S'ways'
p4856
sI4869
S'shopsand'
p4857
sI4870
S'drunken'
p4858
sI4871
S'slipshod'
p4859
sI4872
S'ugly.alleys'
p4860
sI4873
S'archways'
p4861
sI4874
S'cesspools'
p4862
sI4875
S'disgorged'
p4863
sI4876
S'ofsmell'
p4864
sI4877
S'dirt'
p4865
sI4878
S'straggling'
p4866
sI4879
S'wholequarter'
p4867
sI4880
S'reeked'
p4868
sI4881
S'crime'
p4869
sI4882
S'filth'
p4870
sI4883
S'misery.far'
p4871
sI4884
S'den'
p4872
sI4885
S'infamous'
p4873
sI4886
S'resort'
p4874
sI4887
S'low-browed'
p4875
sI4888
S'beetlingshop'
p4876
sI4889
S'pent-house'
p4877
sI4890
S'rags'
p4878
sI4891
S'bottles'
p4879
sI4892
S'andgreasy'
p4880
sI4893
S'offal'
p4881
sI4894
S'bought'
p4882
sI4895
S'piled'
p4883
sI4896
S'ofrusty'
p4884
sI4897
S'nails'
p4885
sI4898
S'chains'
p4886
sI4899
S'hinges'
p4887
sI4900
S'files'
p4888
sI4901
S'weights'
p4889
sI4902
S'refuseiron'
p4890
sI4903
S'scrutinise'
p4891
sI4904
S'bredand'
p4892
sI4905
S'mountains'
p4893
sI4906
S'unseemly'
p4894
sI4907
S'corrupted'
p4895
sI4908
S'andsepulchres'
p4896
sI4909
S'wares'
p4897
sI4910
S'dealt'
p4898
sI4911
S'acharcoal'
p4899
sI4912
S'stove'
p4900
sI4913
S'bricks'
p4901
sI4914
S'grey-haired'
p4902
sI4915
S'rascal'
p4903
sI4916
S'nearlyseventy'
p4904
sI4917
S'screened'
p4905
sI4918
S'withoutby'
p4906
sI4919
S'frouzy'
p4907
sI4920
S'curtaining'
p4908
sI4921
S'miscellaneous'
p4909
sI4922
S'tatters'
p4910
sI4923
S'line'
p4911
sI4924
S'andsmoked'
p4912
sI4925
S'pipe'
p4913
sI4926
S'luxury'
p4914
sI4927
S'calm'
p4915
sI4928
S'retirement.scrooge'
p4916
sI4929
S'awoman'
p4917
sI4930
S'bundle'
p4918
sI4931
S'slunk'
p4919
sI4932
S'shop'
p4920
sI4933
S'scarcelyentered'
p4921
sI4934
S'similarly'
p4922
sI4935
S'wasclosely'
p4923
sI4936
S'bythe'
p4924
sI4937
S'recognition'
p4925
sI4938
S'other.after'
p4926
sI4939
S'charwoman'
p4927
sI4940
S'enteredfirst'
p4928
sI4941
S'joe'
p4929
sI4942
S'achance'
p4930
sI4943
S'removing'
p4931
sI4944
S'hispipe'
p4932
sI4945
S'itlong'
p4933
sI4946
S'strangers'
p4934
sI4947
S'shutthe'
p4935
sI4948
S'skreeks'
p4936
sI4949
S'rusty'
p4937
sI4950
S'ofmetal'
p4938
sI4951
S'nosuch'
p4939
sI4952
S'suitable'
p4940
sI4953
S'matched'
p4941
sI4954
S'screen'
p4942
sI4955
S'rakedthe'
p4943
sI4956
S'stair-rod'
p4944
sI4957
S'smokylamp'
p4945
sI4958
S'stem'
p4946
sI4959
S'mouthagain.while'
p4947
sI4960
S'flaunting'
p4948
sI4961
S'crossing'
p4949
sI4962
S'herelbows'
p4950
sI4963
S'defiance'
p4951
sI4964
S'odds'
p4952
sI4965
S'dilber'
p4953
sI4966
S'personhas'
p4954
sI4967
S'thewiser'
p4955
sI4968
S'pick'
p4956
sI4969
S'holes'
p4957
sI4970
S'coats'
p4958
sI4971
S'hopenot'
p4959
sI4972
S'forthe'
p4960
sI4973
S'loss'
p4961
sI4974
S'wanted'
p4962
sI4975
S'screw'
p4963
sI4976
S'natural'
p4964
sI4977
S'lifetime'
p4965
sI4978
S'hadbeen'
p4966
sI4979
S'withdeath'
p4967
sI4980
S'truest'
p4968
sI4981
S'ajudgment'
p4969
sI4982
S'judgment'
p4970
sI4983
S'itshould'
p4971
sI4984
S'depend'
p4972
sI4985
S'handson'
p4973
sI4986
S'valueof'
p4974
sI4987
S'forthem'
p4975
sI4988
S'helping'
p4976
sI4989
S'ourselvesbefore'
p4977
sI4990
S'sin'
p4978
sI4991
S'gallantry'
p4979
sI4992
S'allow'
p4980
sI4993
S'infaded'
p4981
sI4994
S'breach'
p4982
sI4995
S'_his_'
p4983
sI4996
S'plunder'
p4984
sI4997
S'extensive'
p4985
sI4998
S'seal'
p4986
sI4999
S'pencil-case'
p4987
sI5000
S'sleeve-buttons'
p4988
sI5001
S'brooch'
p4989
sI5002
S'severally'
p4990
sI5003
S'examinedand'
p4991
sI5004
S'appraised'
p4992
sI5005
S'chalked'
p4993
sI5006
S'sums'
p4994
sI5007
S'disposed'
p4995
sI5008
S'givefor'
p4996
sI5009
S'total'
p4997
sI5010
S'account'
p4998
sI5011
S'doing'
p4999
sI5012
S'sheets'
p5000
sI5013
S'towels'
p5001
sI5014
S'wearing'
p5002
sI5015
S'apparel'
p5003
sI5016
S'twoold-fashioned'
p5004
sI5017
S'tea-spoons'
p5005
sI5018
S'sugar-tongs'
p5006
sI5019
S'boots.her'
p5007
sI5020
S'stated'
p5008
sI5021
S'weakness'
p5009
sI5022
S"that'sthe"
p5010
sI5023
S'ruin'
p5011
sI5024
S'askedme'
p5012
sI5025
S'penny'
p5013
sI5026
S'repent'
p5014
sI5027
S'liberal'
p5015
sI5028
S'knock'
p5016
sI5029
S'undo'
p5017
sI5030
S'_my_'
p5018
sI5031
S'woman.joe'
p5019
sI5032
S'convenience'
p5020
sI5033
S'unfastened'
p5021
sI5034
S'knots'
p5022
sI5035
S'dragged'
p5023
sI5036
S'heavyroll'
p5024
sI5037
S'bed-curtains'
p5025
sI5038
S'forward'
p5026
sI5039
S'crossedarms'
p5027
sI5040
S'rings'
p5028
sI5041
S'lyingthere'
p5029
sI5042
S'doit'
p5030
sI5043
S'sha'
p5031
sI5044
S'byreaching'
p5032
sI5045
S'coolly'
p5033
sI5046
S'oil'
p5034
sI5047
S'blankets'
p5035
sI5048
S'takecold'
p5036
sI5049
S'eh'
p5037
sI5050
S'stoppingin'
p5038
sI5051
S'fond'
p5039
sI5052
S'ofhis'
p5040
sI5053
S'loiter'
p5041
sI5054
S'ache'
p5042
sI5055
S'finda'
p5043
sI5056
S'fineone'
p5044
sI5057
S'wasted'
p5045
sI5058
S'wasting'
p5046
sI5059
S'fool'
p5047
sI5060
S'ifcalico'
p5048
sI5061
S'foranything'
p5049
sI5062
S'uglier'
p5050
sI5063
S'dialogue'
p5051
sI5064
S'grouped'
p5052
sI5065
S'abouttheir'
p5053
sI5066
S'spoil'
p5054
sI5067
S'afforded'
p5055
sI5068
S'heviewed'
p5056
sI5069
S'detestation'
p5057
sI5070
S'disgust'
p5058
sI5071
S'beengreater'
p5059
sI5072
S'obscene'
p5060
sI5073
S'demons'
p5061
sI5074
S'marketing'
p5062
sI5075
S'corpseitself'
p5063
sI5076
S'producing'
p5064
sI5077
S'flannel'
p5065
sI5078
S'bagwith'
p5066
sI5079
S'gains'
p5067
sI5080
S'isthe'
p5068
sI5081
S'frightened'
p5069
sI5082
S'hewas'
p5070
sI5083
S'shuddering'
p5071
sI5084
S'thecase'
p5072
sI5085
S'tends'
p5073
sI5086
S'now.merciful'
p5074
sI5087
S'recoiled'
p5075
sI5088
S'almosttouched'
p5076
sI5089
S'uncurtained'
p5077
sI5090
S'raggedsheet'
p5078
sI5091
S'dumb'
p5079
sI5092
S'announced'
p5080
sI5093
S'language.the'
p5081
sI5094
S'accuracy'
p5082
sI5095
S'impulse'
p5083
sI5096
S'anxious'
p5084
sI5097
S'rising'
p5085
sI5098
S'theouter'
p5086
sI5099
S'bereft'
p5087
sI5100
S'unwatched'
p5088
sI5101
S'unwept'
p5089
sI5102
S'uncared'
p5090
sI5103
S'man.scrooge'
p5091
sI5104
S'steady'
p5092
sI5105
S'thehead'
p5093
sI5106
S'cover'
p5094
sI5107
S'carelessly'
p5095
sI5108
S'slightest'
p5096
sI5109
S'ofit'
p5097
sI5110
S'theface'
p5098
sI5111
S'longed'
p5099
sI5112
S'todo'
p5100
sI5113
S'withdraw'
p5101
sI5114
S'veil'
p5102
sI5115
S'thespectre'
p5103
sI5116
S'side.oh'
p5104
sI5117
S'rigid'
p5105
sI5118
S'thine'
p5106
sI5119
S'altar'
p5107
sI5120
S'anddress'
p5108
sI5121
S'terrors'
p5109
sI5122
S'thou'
p5110
sI5123
S'hast'
p5111
sI5124
S'thy'
p5112
sI5125
S'command'
p5113
sI5126
S'thydominion'
p5114
sI5127
S'revered'
p5115
sI5128
S'honoured'
p5116
sI5129
S'canst'
p5117
sI5130
S'notturn'
p5118
sI5131
S'feature'
p5119
sI5132
S'isnot'
p5120
sI5133
S'notthat'
p5121
sI5134
S'tender'
p5122
sI5135
S'aman'
p5123
sI5136
S'strike'
p5124
sI5137
S'springing'
p5125
sI5138
S'thewound'
p5126
sI5139
S'sow'
p5127
sI5140
S'pronounced'
p5128
sI5141
S'themwhen'
p5129
sI5142
S'upnow'
p5130
sI5143
S'foremost'
p5131
sI5144
S'gripingcares'
p5132
sI5145
S'truly'
p5133
sI5146
S'tosay'
p5134
sI5147
S'kindword'
p5135
sI5148
S'gnawing'
p5136
sI5149
S'rats'
p5137
sI5150
S'hearth-stone'
p5138
sI5151
S'_they_'
p5139
sI5152
S'scroogedid'
p5140
sI5153
S'think.'
p5141
sI5154
S'fearful'
p5142
sI5155
S'notleave'
p5143
sI5156
S'trust'
p5144
sI5157
S'unmoved'
p5145
sI5158
S'understand'
p5146
sI5159
S'buti'
p5147
sI5160
S'feels'
p5148
sI5161
S'caused'
p5149
sI5162
S'thisman'
p5150
sI5163
S'agonised'
p5151
sI5164
S'beseech'
p5152
sI5165
S'spread'
p5153
sI5166
S'wing'
p5154
sI5167
S'withdrawing'
p5155
sI5168
S'revealed'
p5156
sI5169
S'daylight'
p5157
sI5170
S'herchildren'
p5158
sI5171
S'were.she'
p5159
sI5172
S'expecting'
p5160
sI5173
S'walkedup'
p5161
sI5174
S'herneedle'
p5162
sI5175
S'play.at'
p5163
sI5176
S'careworn'
p5164
sI5177
S'depressed'
p5165
sI5178
S'thoughhe'
p5166
sI5179
S'ofserious'
p5167
sI5180
S'ashamed'
p5168
sI5181
S'struggled'
p5169
sI5182
S'torepress.he'
p5170
sI5183
S'hoarding'
p5171
sI5184
S'news'
p5172
sI5185
S'embarrassed'
p5173
sI5186
S'ruined'
p5174
sI5187
S'caroline'
p5175
sI5188
S'relents'
p5176
sI5189
S'amazed'
p5177
sI5190
S'ifsuch'
p5178
sI5191
S'miracle'
p5179
sI5192
S'relenting'
p5180
sI5193
S'hands.she'
p5181
sI5194
S'prayed'
p5182
sI5195
S'forgiveness'
p5183
sI5196
S'half-drunken'
p5184
sI5197
S'mewhen'
p5185
sI5198
S'obtain'
p5186
sI5199
S'delay'
p5187
sI5200
S'thoughtwas'
p5188
sI5201
S'avoid'
p5189
sI5202
S'debt'
p5190
sI5203
S'transferred'
p5191
sI5204
S'somerciless'
p5192
sI5205
S'creditor'
p5193
sI5206
S'successor'
p5194
sI5207
S'lighthearts'
p5195
sI5208
S'soften'
p5196
sI5209
S'lighter'
p5197
sI5210
S"children'sfaces"
p5198
sI5211
S'hushed'
p5199
sI5212
S'littleunderstood'
p5200
sI5213
S'brighter'
p5201
sI5214
S"man'sdeath"
p5202
sI5215
S'theevent'
p5203
sI5216
S'orthat'
p5204
sI5217
S'everpresent'
p5205
sI5218
S'conducted'
p5206
sI5219
S'nowhere'
p5207
sI5220
S"cratchit'shouse"
p5208
sI5221
S'seated'
p5209
sI5222
S'fire.quiet'
p5210
sI5223
S'quiet'
p5211
sI5224
S'noisy'
p5212
sI5225
S'statuesin'
p5213
sI5226
S'him.the'
p5214
sI5227
S'engaged'
p5215
sI5228
S'sewing'
p5216
sI5229
S"'and"
p5217
sI5230
S'midst'
p5218
sI5231
S'dreamed'
p5219
sI5232
S'boymust'
p5220
sI5233
S'herface'
p5221
sI5234
S'hurts'
p5222
sI5235
S'said.the'
p5223
sI5236
S'hecomes'
p5224
sI5237
S'hehas'
p5225
sI5238
S'slower'
p5226
sI5239
S'evenings'
p5227
sI5240
S'cheerfulvoice'
p5228
sI5241
S'hadneed'
p5229
sI5242
S'cheekagainst'
p5230
sI5243
S'begrieved'
p5231
sI5244
S'pleasantly'
p5232
sI5245
S'family.he'
p5233
sI5246
S'praised'
p5234
sI5247
S'speedof'
p5235
sI5248
S'sunday'
p5236
sI5249
S'said.'
p5237
sI5250
S'havedone'
p5238
sI5251
S'ipromised'
p5239
sI5252
S'littlechild'
p5240
sI5253
S'helpedit'
p5241
sI5254
S'farther'
p5242
sI5255
S'theywere.he'
p5243
sI5256
S'up-stairs'
p5244
sI5257
S'waslighted'
p5245
sI5258
S'cheerfully'
p5246
sI5259
S'closebeside'
p5247
sI5260
S'therelately'
p5248
sI5261
S'andcomposed'
p5249
sI5262
S'reconciled'
p5250
sI5263
S'whathad'
p5251
sI5264
S'happy.they'
p5252
sI5265
S'workingstill'
p5253
sI5266
S'kindness'
p5254
sI5267
S'littledown'
p5255
sI5268
S'distress'
p5256
sI5269
S'pleasantest-spoken'
p5257
sI5270
S'youever'
p5258
sI5271
S"'i"
p5259
sI5272
S'hesaid'
p5260
sI5273
S'by-the-bye'
p5261
sI5274
S'everknew'
p5262
sI5275
S'_that_'
p5263
sI5276
S"'heartilysorry"
p5264
sI5277
S"'for"
p5265
sI5278
S'service'
p5266
sI5279
S'inany'
p5267
sI5280
S'card'
p5268
sI5281
S"'that"
p5269
sI5282
S'cometo'
p5270
sI5283
S'quitedelightful'
p5271
sI5284
S'feltwith'
p5272
sI5285
S'spoketo'
p5273
sI5286
S'gotpeter'
p5274
sI5287
S'withsome'
p5275
sI5288
S'grinning'
p5276
sI5289
S'thoughthere'
p5277
sI5290
S'wepart'
p5278
sI5291
S'forget'
p5279
sI5292
S'howpatient'
p5280
sI5293
S'weshall'
p5281
sI5294
S'easily'
p5282
sI5295
S'ourselves'
p5283
sI5296
S'indoing'
p5284
sI5297
S'essence'
p5285
sI5298
S'informs'
p5286
sI5299
S'momentis'
p5287
sI5300
S'waswhom'
p5288
sI5301
S'adifferent'
p5289
sI5302
S'theselatter'
p5290
sI5303
S'visions'
p5291
sI5304
S'resorts'
p5292
sI5305
S'ofbusiness'
p5293
sI5306
S'notstay'
p5294
sI5307
S'desired'
p5295
sI5308
S'besought'
p5296
sI5309
S'hurry'
p5297
sI5310
S'myplace'
p5298
sI5311
S'occupation'
p5299
sI5312
S'thehouse'
p5300
sI5313
S'elsewhere'
p5301
sI5314
S'yonder'
p5302
sI5315
S'inexorable'
p5303
sI5316
S'underwent'
p5304
sI5317
S'change.scrooge'
p5305
sI5318
S'hastened'
p5306
sI5319
S'anoffice'
p5307
sI5320
S'furniture'
p5308
sI5321
S'before.he'
p5309
sI5322
S'wondering'
p5310
sI5323
S'paused'
p5311
sI5324
S'roundbefore'
p5312
sI5325
S'entering.a'
p5313
sI5326
S'churchyard'
p5314
sI5327
S'tolearn'
p5315
sI5328
S'underneath'
p5316
sI5329
S'walled'
p5317
sI5330
S'byhouses'
p5318
sI5331
S'weeds'
p5319
sI5332
S'growth'
p5320
sI5333
S'vegetation'
p5321
sI5334
S'burying'
p5322
sI5335
S'repleted'
p5323
sI5336
S'aworthy'
p5324
sI5337
S'graves'
p5325
sI5338
S'exactly'
p5326
sI5339
S'hedreaded'
p5327
sI5340
S'willbe'
p5328
sI5341
S'downward'
p5329
sI5342
S'courses'
p5330
sI5343
S'foreshadow'
p5331
sI5344
S'ends'
p5332
sI5345
S'persevered'
p5333
sI5346
S'theends'
p5334
sI5347
S'immovable'
p5335
sI5348
S'ever.scrooge'
p5336
sI5349
S'crept'
p5337
sI5350
S'following'
p5338
sI5351
S'thefinger'
p5339
sI5352
S'knees.the'
p5340
sI5353
S'there.'
p5341
sI5354
S'theman'
p5342
sI5355
S'thisintercourse'
p5343
sI5356
S'shake'
p5344
sI5357
S'intercedes'
p5345
sI5358
S'pities'
p5346
sI5359
S'maychange'
p5347
sI5360
S'iwill'
p5348
sI5361
S'allthree'
p5349
sI5362
S'strive'
p5350
sI5363
S'lessons'
p5351
sI5364
S'theyteach'
p5352
sI5365
S'sponge'
p5353
sI5366
S'agony'
p5354
sI5367
S'buthe'
p5355
sI5368
S'detained'
p5356
sI5369
S'strongeryet'
p5357
sI5370
S'repulsed'
p5358
sI5371
S'him.holding'
p5359
sI5372
S'prayer'
p5360
sI5373
S'fate'
p5361
sI5374
S'reversed'
p5362
sI5375
S'sawan'
p5363
sI5376
S'alteration'
p5364
sI5377
S'hood'
p5365
sI5378
S'collapsed'
p5366
sI5379
S'anddwindled'
p5367
sI5380
S'bedpost.stave'
p5368
sI5381
S'fivethe'
p5369
sI5382
S'ityes'
p5370
sI5383
S'bedpost'
p5371
sI5384
S'happiest'
p5372
sI5385
S'makeamends'
p5373
sI5386
S'repeatedas'
p5374
sI5387
S'strivewithin'
p5375
sI5388
S'praisedfor'
p5376
sI5389
S'fluttered'
p5377
sI5390
S'intentions'
p5378
sI5391
S'hisbroken'
p5379
sI5392
S'sobbingviolently'
p5380
sI5393
S'conflict'
p5381
sI5394
S'withtears'
p5382
sI5395
S'folding'
p5383
sI5396
S'bed-curtainsin'
p5384
sI5397
S'amhere'
p5385
sI5398
S'dispelled.they'
p5386
sI5399
S'insideout'
p5387
sI5400
S'mislaying'
p5388
sI5401
S'makingthem'
p5389
sI5402
S'extravagance'
p5390
sI5403
S'thesame'
p5391
sI5404
S'laoco\xc3\xb6n'
p5392
sI5405
S'stockings'
p5393
sI5406
S'feather'
p5394
sI5407
S'angel'
p5395
sI5408
S'asa'
p5396
sI5409
S'school-boy'
p5397
sI5410
S'giddy'
p5398
sI5411
S'toeverybody'
p5399
sI5412
S'hallo'
p5400
sI5413
S'whoop'
p5401
sI5414
S'frisked'
p5402
sI5415
S'sitting-room'
p5403
sI5416
S'winded'
p5404
sI5417
S'startingoff'
p5405
sI5418
S'wanderingspirits'
p5406
sI5419
S'practice'
p5407
sI5420
S'illustrious'
p5408
sI5421
S'longline'
p5409
sI5422
S'brilliant'
p5410
sI5423
S'laughs'
p5411
sI5424
S'month'
p5412
sI5425
S'knowhow'
p5413
sI5426
S'quitea'
p5414
sI5427
S'checked'
p5415
sI5428
S'transports'
p5416
sI5429
S'churches'
p5417
sI5430
S'thelustiest'
p5418
sI5431
S'peals'
p5419
sI5432
S'clash'
p5420
sI5433
S'hammer'
p5421
sI5434
S'clang'
p5422
sI5435
S'nomist'
p5423
sI5436
S'stirring'
p5424
sI5437
S'piping'
p5425
sI5438
S'bloodto'
p5426
sI5439
S'sun-light'
p5427
sI5440
S'heavenly'
p5428
sI5441
S'sweet'
p5429
sI5442
S'merrybells'
p5430
sI5443
S'sundayclothes'
p5431
sI5444
S'loitered'
p5432
sI5445
S'him.'
p5433
sI5446
S'thespirits'
p5434
sI5447
S'like.of'
p5435
sI5448
S'poulterer'
p5436
sI5449
S'lad'
p5437
sI5450
S'intelligent'
p5438
sI5451
S'knowwhether'
p5439
sI5452
S"'ve"
p5440
sI5453
S'sold'
p5441
sI5454
S'prize'
p5442
sI5455
S'notthe'
p5443
sI5456
S'big'
p5444
sI5457
S'delightful'
p5445
sI5458
S'him.yes'
p5446
sI5459
S'buck'
p5447
sI5460
S'it.'
p5448
sI5461
S'walk-er'
p5449
sI5462
S'earnest'
p5450
sI5463
S'tobring'
p5451
sI5464
S'directions'
p5452
sI5465
S'it.come'
p5453
sI5466
S'shilling'
p5454
sI5467
S'himin'
p5455
sI5468
S'shot'
p5456
sI5469
S'triggerwho'
p5457
sI5470
S'send'
p5458
sI5471
S'whispered'
p5459
sI5472
S'rubbing'
p5460
sI5473
S'sends'
p5461
sI5474
S'thesize'
p5462
sI5475
S'miller'
p5463
sI5476
S'tobob'
p5464
sI5477
S'wrote'
p5465
sI5478
S'address'
p5466
sI5479
S'writeit'
p5467
sI5480
S'down-stairs'
p5468
sI5481
S'street-door'
p5469
sI5482
S'readyfor'
p5470
sI5483
S'waiting'
p5471
sI5484
S'hisarrival'
p5472
sI5485
S'patting'
p5473
sI5486
S'hishand'
p5474
sI5487
S'bird.he'
p5475
sI5488
S'snapped'
p5476
sI5489
S'sticks'
p5477
sI5490
S'ofsealing-wax'
p5478
sI5491
S'youmust'
p5479
sI5492
S'cab'
p5480
sI5493
S'chuckle'
p5481
sI5494
S'paidfor'
p5482
sI5495
S'paid'
p5483
sI5496
S'thechuckle'
p5484
sI5497
S'recompensed'
p5485
sI5498
S'exceeded'
p5486
sI5499
S'breathless'
p5487
sI5500
S'andchuckled'
p5488
sI5501
S'cried.shaving'
p5489
sI5502
S'task'
p5490
sI5503
S'continued'
p5491
sI5504
S'shaving'
p5492
sI5505
S'requires'
p5493
sI5506
S'areat'
p5494
sI5507
S'apiece'
p5495
sI5508
S'sticking-plaster'
p5496
sI5509
S'satisfied.he'
p5497
sI5510
S'thestreets'
p5498
sI5511
S'themwith'
p5499
sI5512
S'behindhim'
p5500
sI5513
S'regarded'
p5501
sI5514
S'good-humouredfellows'
p5502
sI5515
S'scroogesaid'
p5503
sI5516
S'sounds'
p5504
sI5517
S'blithest'
p5505
sI5518
S'ears.he'
p5506
sI5519
S'portlygentleman'
p5507
sI5520
S'andsaid'
p5508
sI5521
S'pang'
p5509
sI5522
S'heartto'
p5510
sI5523
S'path'
p5511
sI5524
S'quickening'
p5512
sI5525
S'pace'
p5513
sI5526
S'oldgentleman'
p5514
sI5527
S'succeededyesterday'
p5515
sI5528
S'pleasantto'
p5516
sI5529
S'pardon'
p5517
sI5530
S'goodness'
p5518
sI5531
S'serious'
p5519
sI5532
S'please'
p5520
sI5533
S'farthing'
p5521
sI5534
S'manyback-payments'
p5522
sI5535
S'included'
p5523
sI5536
S'thatfavour'
p5524
sI5537
S'knowwhat'
p5525
sI5538
S'munifi'
p5526
sI5539
S'willyou'
p5527
sI5540
S'thank'
p5528
sI5541
S'fiftytimes'
p5529
sI5542
S'peoplehurrying'
p5530
sI5543
S'fro'
p5531
sI5544
S'patted'
p5532
sI5545
S'questionedbeggars'
p5533
sI5546
S'thewindows'
p5534
sI5547
S'muchhappiness'
p5535
sI5548
S'steps'
p5536
sI5549
S"nephew'shouse.he"
p5537
sI5550
S'courage'
p5538
sI5551
S'andknock'
p5539
sI5552
S'dash'
p5540
sI5553
S'nice'
p5541
sI5554
S'dining-room'
p5542
sI5555
S'youup-stairs'
p5543
sI5556
S'please.'
p5544
sI5557
S'thedining-room'
p5545
sI5558
S'werelooking'
p5546
sI5559
S'array'
p5547
sI5560
S'theseyoung'
p5548
sI5561
S'nervous'
p5549
sI5562
S'points'
p5550
sI5563
S'seethat'
p5551
sI5564
S'right.'
p5552
sI5565
S'scrooge.dear'
p5553
sI5566
S'hadforgotten'
p5554
sI5567
S'thefootstool'
p5555
sI5568
S'infive'
p5556
sI5569
S'heartier'
p5557
sI5570
S'same.so'
p5558
sI5571
S'_she_'
p5559
sI5572
S'came.so'
p5560
sI5573
S'games'
p5561
sI5574
S'unanimity'
p5562
sI5575
S'won-der-ful'
p5563
sI5576
S'early'
p5564
sI5577
S'ifhe'
p5565
sI5578
S'thatwas'
p5566
sI5579
S'upon.and'
p5567
sI5580
S'quarterpast'
p5568
sI5581
S'time.scrooge'
p5569
sI5582
S'thetank.his'
p5570
sI5583
S'onhis'
p5571
sI5584
S'jiffy'
p5572
sI5585
S'toovertake'
p5573
sI5586
S"o'clock."
p5574
sI5587
S'couldfeign'
p5575
sI5588
S'_am_'
p5576
sI5589
S'itshall'
p5577
sI5590
S'tostand'
p5578
sI5591
S'leaping'
p5579
sI5592
S'dig'
p5580
sI5593
S'staggered'
p5581
sI5594
S'toraise'
p5582
sI5595
S'salary'
p5583
sI5596
S'momentaryidea'
p5584
sI5597
S'thepeople'
p5585
sI5598
S'strait-waistcoat'
p5586
sI5599
S'couldnot'
p5587
sI5600
S'mistaken'
p5588
sI5601
S'raiseyour'
p5589
sI5602
S'endeavour'
p5590
sI5603
S'willdiscuss'
p5591
sI5604
S'affairs'
p5592
sI5605
S'ofsmoking'
p5593
sI5606
S'bishop'
p5594
sI5607
S'coal-scuttlebefore'
p5595
sI5608
S'dot'
p5596
sI5609
S'*'
sI5610
S'*scrooge'
p5597
sI5611
S'infinitely'
p5598
sI5612
S'asgood'
p5599
sI5613
S'cityknew'
p5600
sI5614
S'borough'
p5601
sI5615
S'oldworld'
p5602
sI5616
S'themlaugh'
p5603
sI5617
S'heeded'
p5604
sI5618
S'thatnothing'
p5605
sI5619
S'didnot'
p5606
sI5620
S'fill'
p5607
sI5621
S'outset'
p5608
sI5622
S'asthese'
p5609
sI5623
S'anyway'
p5610
sI5624
S'theyshould'
p5611
sI5625
S'grins'
p5612
sI5626
S'malady'
p5613
sI5627
S'lessattractive'
p5614
sI5628
S'forhim.he'
p5615
sI5629
S'intercourse'
p5616
sI5630
S'thetotal-abstinence'
p5617
sI5631
S'ofhim'
p5618
sI5632
S'possessedthe'
p5619
sI5633
S'astiny'
p5620
s.