(dp1
I0
S''
sI1
S'a'
sI2
S'christmas'
p2
sI3
S'carol'
p3
sI4
S'in'
p4
sI5
S'prose'
p5
sI6
S'being'
p6
sI7
S'ghost'
p7
sI8
S'story'
p8
sI9
S'of'
p9
sI10
S'stave'
p10
sI11
S'one'
p11
sI12
S'marley'
p12
sI13
S"'s"
p13
sI14
S'was'
p14
sI15
S'dead'
p15
sI16
S','
sI17
S'to'
p16
sI18
S'begin'
p17
sI19
S'with'
p18
sI20
S'.'
sI21
S'there'
p19
sI22
S'is'
p20
sI23
S'no'
p21
sI24
S'doubt'
p22
sI25
S'whatever'
p23
sI26
S'about'
p24
sI27
S'that'
p25
sI28
S'the'
p26
sI29
S'register'
p27
sI30
S'his'
p28
sI31
S'burial'
p29
sI32
S'signed'
p30
sI33
S'by'
p31
sI34
S'clergyman'
p32
sI35
S'clerk'
p33
sI36
S'undertaker'
p34
sI37
S'and'
p35
sI38
S'chief'
p36
sI39
S'mourner'
p37
sI40
S'scrooge'
p38
sI41
S'it'
p39
sI42
S'name'
p40
sI43
S'good'
p41
sI44
S'upon'
p42
sI45
S"'change"
p43
sI46
S'for'
p44
sI47
S'anything'
p45
sI48
S'he'
p46
sI49
S'chose'
p47
sI50
S'put'
p48
sI51
S'hand'
p49
sI52
S'old'
p50
sI53
S'as'
p51
sI54
S'door-nail'
p52
sI55
S'mind'
p53
sI56
S'!'
sI57
S'i'
sI58
S'do'
p54
sI59
S"n't"
p55
sI60
S'mean'
p56
sI61
S'say'
p57
sI62
S'know'
p58
sI63
S'my'
p59
sI64
S'own'
p60
sI65
S'knowledge'
p61
sI66
S'what'
p62
sI67
S'particularly'
p63
sI68
S'might'
p64
sI69
S'have'
p65
sI70
S'been'
p66
sI71
S'inclined'
p67
sI72
S'myself'
p68
sI73
S'regard'
p69
sI74
S'coffin-nail'
p70
sI75
S'deadest'
p71
sI76
S'piece'
p72
sI77
S'ironmongery'
p73
sI78
S'trade'
p74
sI79
S'but'
p75
sI80
S'wisdom'
p76
sI81
S'our'
p77
sI82
S'ancestors'
p78
sI83
S'simile'
p79
sI84
S';'
sI85
S'unhallowed'
p80
sI86
S'hands'
p81
sI87
S'shall'
p82
sI88
S'not'
p83
sI89
S'disturb'
p84
sI90
S'or'
p85
sI91
S'country'
p86
sI92
S'done'
p87
sI93
S'you'
p88
sI94
S'will'
p89
sI95
S'therefore'
p90
sI96
S'permit'
p91
sI97
S'me'
p92
sI98
S'repeat'
p93
sI99
S'emphatically'
p94
sI100
S'knew'
p95
sI101
S'?'
sI102
S'course'
p96
sI103
S'did'
p97
sI104
S'how'
p98
sI105
S'could'
p99
sI106
S'be'
p100
sI107
S'otherwise'
p101
sI108
S'were'
p102
sI109
S'partners'
p103
sI110
S'many'
p104
sI111
S'years'
p105
sI112
S'sole'
p106
sI113
S'executor'
p107
sI114
S'administrator'
p108
sI115
S'assign'
p109
sI116
S'residuary'
p110
sI117
S'legatee'
p111
sI118
S'friend'
p112
sI119
S'even'
p113
sI120
S'so'
p114
sI121
S'dreadfully'
p115
sI122
S'cut'
p116
sI123
S'up'
p117
sI124
S'sad'
p118
sI125
S'event'
p119
sI126
S'an'
p120
sI127
S'excellent'
p121
sI128
S'man'
p122
sI129
S'business'
p123
sI130
S'on'
p124
sI131
S'very'
p125
sI132
S'day'
p126
sI133
S'funeral'
p127
sI134
S'solemnised'
p128
sI135
S'undoubted'
p129
sI136
S'bargain'
p130
sI137
S'mention'
p131
sI138
S'brings'
p132
sI139
S'back'
p133
sI140
S'point'
p134
sI141
S'started'
p135
sI142
S'from'
p136
sI143
S'this'
p137
sI144
S'must'
p138
sI145
S'distinctly'
p139
sI146
S'understood'
p140
sI147
S'nothing'
p141
sI148
S'wonderful'
p142
sI149
S'can'
p143
sI150
S'come'
p144
sI151
S'am'
p145
sI152
S'going'
p146
sI153
S'relate'
p147
sI154
S'if'
p148
sI155
S'we'
p149
sI156
S'perfectly'
p150
sI157
S'convinced'
p151
sI158
S'hamlet'
p152
sI159
S'father'
p153
sI160
S'died'
p154
sI161
S'before'
p155
sI162
S'play'
p156
sI163
S'began'
p157
sI164
S'would'
p158
sI165
S'more'
p159
sI166
S'remarkable'
p160
sI167
S'taking'
p161
sI168
S'stroll'
p162
sI169
S'at'
p163
sI170
S'night'
p164
sI171
S'easterly'
p165
sI172
S'wind'
p166
sI173
S'ramparts'
p167
sI174
S'than'
p168
sI175
S'any'
p169
sI176
S'other'
p170
sI177
S'middle-aged'
p171
sI178
S'gentleman'
p172
sI179
S'rashly'
p173
sI180
S'turning'
p174
sI181
S'out'
p175
sI182
S'after'
p176
sI183
S'dark'
p177
sI184
S'breezy'
p178
sI185
S'spot'
p179
sI186
S'--'
p180
sI187
S'st.'
p181
sI188
S'paul'
p182
sI189
S'church-yard'
p183
sI190
S'instance'
p184
sI191
S'literally'
p185
sI192
S'astonish'
p186
sI193
S'son'
p187
sI194
S'weak'
p188
sI195
S'never'
p189
sI196
S'painted'
p190
sI197
S'stood'
p191
sI198
S'afterwards'
p192
sI199
S'above'
p193
sI200
S'warehouse'
p194
sI201
S'door'
p195
sI202
S':'
sI203
S'firm'
p196
sI204
S'known'
p197
sI205
S'sometimes'
p198
sI206
S'people'
p199
sI207
S'new'
p200
sI208
S'called'
p201
sI209
S'answered'
p202
sI210
S'both'
p203
sI211
S'names'
p204
sI212
S'all'
p205
sI213
S'same'
p206
sI214
S'him'
p207
sI215
S'oh'
p208
sI216
S'tight-fisted'
p209
sI217
S'grindstone'
p210
sI218
S'squeezing'
p211
sI219
S'wrenching'
p212
sI220
S'grasping'
p213
sI221
S'scraping'
p214
sI222
S'clutching'
p215
sI223
S'covetous'
p216
sI224
S'sinner'
p217
sI225
S'hard'
p218
sI226
S'sharp'
p219
sI227
S'flint'
p220
sI228
S'which'
p221
sI229
S'steel'
p222
sI230
S'had'
p223
sI231
S'ever'
p224
sI232
S'struck'
p225
sI233
S'generous'
p226
sI234
S'fire'
p227
sI235
S'secret'
p228
sI236
S'self-contained'
p229
sI237
S'solitary'
p230
sI238
S'oyster'
p231
sI239
S'cold'
p232
sI240
S'within'
p233
sI241
S'froze'
p234
sI242
S'features'
p235
sI243
S'nipped'
p236
sI244
S'pointed'
p237
sI245
S'nose'
p238
sI246
S'shrivelled'
p239
sI247
S'cheek'
p240
sI248
S'stiffened'
p241
sI249
S'gait'
p242
sI250
S'made'
p243
sI251
S'eyes'
p244
sI252
S'red'
p245
sI253
S'thin'
p246
sI254
S'lips'
p247
sI255
S'blue'
p248
sI256
S'spoke'
p249
sI257
S'shrewdly'
p250
sI258
S'grating'
p251
sI259
S'voice'
p252
sI260
S'frosty'
p253
sI261
S'rime'
p254
sI262
S'head'
p255
sI263
S'eyebrows'
p256
sI264
S'wiry'
p257
sI265
S'chin'
p258
sI266
S'carried'
p259
sI267
S'low'
p260
sI268
S'temperature'
p261
sI269
S'always'
p262
sI270
S'iced'
p263
sI271
S'office'
p264
sI272
S'dog-days'
p265
sI273
S'thaw'
p266
sI274
S'degree'
p267
sI275
S'external'
p268
sI276
S'heat'
p269
sI277
S'little'
p270
sI278
S'influence'
p271
sI279
S'warmth'
p272
sI280
S'warm'
p273
sI281
S'wintry'
p274
sI282
S'weather'
p275
sI283
S'chill'
p276
sI284
S'blew'
p277
sI285
S'bitterer'
p278
sI286
S'falling'
p279
sI287
S'snow'
p280
sI288
S'intent'
p281
sI289
S'its'
p282
sI290
S'purpose'
p283
sI291
S'pelting'
p284
sI292
S'rain'
p285
sI293
S'less'
p286
sI294
S'open'
p287
sI295
S'entreaty'
p288
sI296
S'foul'
p289
sI297
S'where'
p290
sI298
S'heaviest'
p291
sI299
S'hail'
p292
sI300
S'sleet'
p293
sI301
S'boast'
p294
sI302
S'advantage'
p295
sI303
S'over'
p296
sI304
S'only'
p297
sI305
S'respect'
p298
sI306
S'they'
p299
sI307
S'often'
p300
sI308
S'``'
p301
sI309
S'came'
p302
sI310
S'down'
p303
sI311
S"''"
p304
sI312
S'handsomely'
p305
sI313
S'nobody'
p306
sI314
S'stopped'
p307
sI315
S'street'
p308
sI316
S'gladsome'
p309
sI317
S'looks'
p310
sI318
S'dear'
p311
sI319
S'are'
p312
sI320
S'when'
p313
sI321
S'see'
p314
sI322
S'beggars'
p315
sI323
S'implored'
p316
sI324
S'bestow'
p317
sI325
S'trifle'
p318
sI326
S'children'
p319
sI327
S'asked'
p320
sI328
S"o'clock"
p321
sI329
S'woman'
p322
sI330
S'once'
p323
sI331
S'life'
p324
sI332
S'inquired'
p325
sI333
S'way'
p326
sI334
S'such'
p327
sI335
S'place'
p328
sI336
S'blind'
p329
sI337
S'men'
p330
sI338
S'dogs'
p331
sI339
S'appeared'
p332
sI340
S'saw'
p333
sI341
S'coming'
p334
sI342
S'tug'
p335
sI343
S'their'
p336
sI344
S'owners'
p337
sI345
S'into'
p338
sI346
S'doorways'
p339
sI347
S'courts'
p340
sI348
S'then'
p341
sI349
S'wag'
p342
sI350
S'tails'
p343
sI351
S'though'
p344
sI352
S'said'
p345
sI353
S'eye'
p346
sI354
S'better'
p347
sI355
S'evil'
p348
sI356
S'master'
p349
sI357
S'care'
p350
sI358
S'thing'
p351
sI359
S'liked'
p352
sI360
S'edge'
p353
sI361
S'along'
p354
sI362
S'crowded'
p355
sI363
S'paths'
p356
sI364
S'warning'
p357
sI365
S'human'
p358
sI366
S'sympathy'
p359
sI367
S'keep'
p360
sI368
S'distance'
p361
sI369
S'knowing'
p362
sI370
S'ones'
p363
sI371
S'call'
p364
sI372
S'nuts'
p365
sI373
S'time'
p366
sI374
S'days'
p367
sI375
S'year'
p368
sI376
S'eve'
p369
sI377
S'sat'
p370
sI378
S'busy'
p371
sI379
S'counting-house'
p372
sI380
S'bleak'
p373
sI381
S'biting'
p374
sI382
S'foggy'
p375
sI383
S'withal'
p376
sI384
S'hear'
p377
sI385
S'court'
p378
sI386
S'outside'
p379
sI387
S'go'
p380
sI388
S'wheezing'
p381
sI389
S'beating'
p382
sI390
S'breasts'
p383
sI391
S'stamping'
p384
sI392
S'feet'
p385
sI393
S'pavement'
p386
sI394
S'stones'
p387
sI395
S'them'
p388
sI396
S'city'
p389
sI397
S'clocks'
p390
sI398
S'just'
p391
sI399
S'gone'
p392
sI400
S'three'
p393
sI401
S'quite'
p394
sI402
S'already'
p395
sI403
S'light'
p396
sI404
S'candles'
p397
sI405
S'flaring'
p398
sI406
S'windows'
p399
sI407
S'neighbouring'
p400
sI408
S'offices'
p401
sI409
S'like'
p402
sI410
S'ruddy'
p403
sI411
S'smears'
p404
sI412
S'palpable'
p405
sI413
S'brown'
p406
sI414
S'air'
p407
sI415
S'fog'
p408
sI416
S'pouring'
p409
sI417
S'every'
p410
sI418
S'chink'
p411
sI419
S'keyhole'
p412
sI420
S'dense'
p413
sI421
S'without'
p414
sI422
S'although'
p415
sI423
S'narrowest'
p416
sI424
S'houses'
p417
sI425
S'opposite'
p418
sI426
S'mere'
p419
sI427
S'phantoms'
p420
sI428
S'dingy'
p421
sI429
S'cloud'
p422
sI430
S'drooping'
p423
sI431
S'obscuring'
p424
sI432
S'everything'
p425
sI433
S'thought'
p426
sI434
S'nature'
p427
sI435
S'lived'
p428
sI436
S'brewing'
p429
sI437
S'large'
p430
sI438
S'scale'
p431
sI439
S'who'
p432
sI440
S'dismal'
p433
sI441
S'cell'
p434
sI442
S'beyond'
p435
sI443
S'sort'
p436
sI444
S'tank'
p437
sI445
S'copying'
p438
sI446
S'letters'
p439
sI447
S'small'
p440
sI448
S'much'
p441
sI449
S'smaller'
p442
sI450
S'looked'
p443
sI451
S'coal'
p444
sI452
S'replenish'
p445
sI453
S'kept'
p446
sI454
S'coal-box'
p447
sI455
S'room'
p448
sI456
S'surely'
p449
sI457
S'shovel'
p450
sI458
S'predicted'
p451
sI459
S'necessary'
p452
sI460
S'part'
p453
sI461
S'wherefore'
p454
sI462
S'white'
p455
sI463
S'comforter'
p456
sI464
S'tried'
p457
sI465
S'himself'
p458
sI466
S'candle'
p459
sI467
S'effort'
p460
sI468
S'strong'
p461
sI469
S'imagination'
p462
sI470
S'failed'
p463
sI471
S'merry'
p464
sI472
S'uncle'
p465
sI473
S'god'
p466
sI474
S'save'
p467
sI475
S'cried'
p468
sI476
S'cheerful'
p469
sI477
S'nephew'
p470
sI478
S'quickly'
p471
sI479
S'first'
p472
sI480
S'intimation'
p473
sI481
S'approach'
p474
sI482
S'bah'
p475
sI483
S'humbug'
p476
sI484
S'heated'
p477
sI485
S'rapid'
p478
sI486
S'walking'
p479
sI487
S'frost'
p480
sI488
S'glow'
p481
sI489
S'face'
p482
sI490
S'handsome'
p483
sI491
S'sparkled'
p484
sI492
S'breath'
p485
sI493
S'smoked'
p486
sI494
S'again'
p487
sI495
S'sure'
p488
sI496
S'right'
p489
sI497
S'reason'
p490
sI498
S"'re"
p491
sI499
S'poor'
p492
sI500
S'enough'
p493
sI501
S'returned'
p494
sI502
S'gaily'
p495
sI503
S'morose'
p496
sI504
S'rich'
p497
sI505
S'having'
p498
sI506
S'answer'
p499
sI507
S'ready'
p500
sI508
S'spur'
p501
sI509
S'moment'
p502
sI510
S'followed'
p503
sI511
S'cross'
p504
sI512
S'['
sI513
S'illustration'
p505
sI514
S'_'
sI515
S'voice._'
p506
sI516
S']'
sI517
S'else'
p507
sI518
S'live'
p508
sI519
S'world'
p509
sI520
S'fools'
p510
sI521
S'christmas-time'
p511
sI522
S'paying'
p512
sI523
S'bills'
p513
sI524
S'money'
p514
sI525
S'finding'
p515
sI526
S'yourself'
p516
sI527
S'older'
p517
sI528
S'hour'
p518
sI529
S'richer'
p519
sI530
S'balancing'
p520
sI531
S'your'
p521
sI532
S'books'
p522
sI533
S'item'
p523
sI534
S"'em"
p524
sI535
S'through'
p525
sI536
S'round'
p526
sI537
S'dozen'
p527
sI538
S'months'
p528
sI539
S'presented'
p529
sI540
S'against'
p530
sI541
S'work'
p531
sI542
S'indignantly'
p532
sI543
S'idiot'
p533
sI544
S'goes'
p534
sI545
S"'merry"
p535
sI546
S"'"
sI547
S'should'
p536
sI548
S'boiled'
p537
sI549
S'pudding'
p538
sI550
S'buried'
p539
sI551
S'stake'
p540
sI552
S'holly'
p541
sI553
S'heart'
p542
sI554
S'pleaded'
p543
sI555
S'sternly'
p544
sI556
S'let'
p545
sI557
S'mine'
p546
sI558
S'repeated'
p547
sI559
S'leave'
p548
sI560
S'alone'
p549
sI561
S'may'
p550
sI562
S'has'
p551
sI563
S'things'
p552
sI564
S'derived'
p553
sI565
S'profited'
p554
sI566
S'dare'
p555
sI567
S'among'
p556
sI568
S'rest'
p557
sI569
S'apart'
p558
sI570
S'veneration'
p559
sI571
S'due'
p560
sI572
S'sacred'
p561
sI573
S'origin'
p562
sI574
S'belonging'
p563
sI575
S'kind'
p564
sI576
S'forgiving'
p565
sI577
S'charitable'
p566
sI578
S'pleasant'
p567
sI579
S'long'
p568
sI580
S'calendar'
p569
sI581
S'women'
p570
sI582
S'seem'
p571
sI583
S'consent'
p572
sI584
S'shut-up'
p573
sI585
S'hearts'
p574
sI586
S'freely'
p575
sI587
S'think'
p576
sI588
S'below'
p577
sI589
S'really'
p578
sI590
S'fellow-passengers'
p579
sI591
S'grave'
p580
sI592
S'another'
p581
sI593
S'race'
p582
sI594
S'creatures'
p583
sI595
S'bound'
p584
sI596
S'journeys'
p585
sI597
S'scrap'
p586
sI598
S'gold'
p587
sI599
S'silver'
p588
sI600
S'pocket'
p589
sI601
S'believe'
p590
sI602
S'_has_'
p591
sI603
S'_will_'
p592
sI604
S'bless'
p593
sI605
S'involuntarily'
p594
sI606
S'applauded'
p595
sI607
S'becoming'
p596
sI608
S'immediately'
p597
sI609
S'sensible'
p598
sI610
S'impropriety'
p599
sI611
S'poked'
p600
sI612
S'extinguished'
p601
sI613
S'last'
p602
sI614
S'frail'
p603
sI615
S'spark'
p604
sI616
S'sound'
p605
sI617
S'_you_'
p606
sI618
S"'ll"
p607
sI619
S'losing'
p608
sI620
S'situation'
p609
sI621
S'powerful'
p610
sI622
S'speaker'
p611
sI623
S'sir'
p612
sI624
S'added'
p613
sI625
S'wonder'
p614
sI626
S'parliament'
p615
sI627
S'angry'
p616
sI628
S'dine'
p617
sI629
S'us'
p618
sI630
S'to-morrow'
p619
sI631
S'yes'
p620
sI632
S'indeed'
p621
sI633
S'went'
p622
sI634
S'whole'
p623
sI635
S'length'
p624
sI636
S'expression'
p625
sI637
S'extremity'
p626
sI638
S'why'
p627
sI639
S'get'
p628
sI640
S'married'
p629
sI641
S'because'
p630
sI642
S'fell'
p631
sI643
S'love'
p632
sI644
S'growled'
p633
sI645
S'ridiculous'
p634
sI646
S'afternoon'
p635
sI647
S'nay'
p636
sI648
S'happened'
p637
sI649
S'give'
p638
sI650
S'now'
p639
sI651
S'want'
p640
sI652
S'ask'
p641
sI653
S'friends'
p642
sI654
S'sorry'
p643
sI655
S'find'
p644
sI656
S'resolute'
p645
sI657
S'quarrel'
p646
sI658
S'party'
p647
sI659
S'trial'
p648
sI660
S'homage'
p649
sI661
S'humour'
p650
sI662
S'happy'
p651
sI663
S'left'
p652
sI664
S'word'
p653
sI665
S'notwithstanding'
p654
sI666
S'outer'
p655
sI667
S'greetings'
p656
sI668
S'season'
p657
sI669
S'warmer'
p658
sI670
S'cordially'
p659
sI671
S'fellow'
p660
sI672
S'muttered'
p661
sI673
S'overheard'
p662
sI674
S'fifteen'
p663
sI675
S'shillings'
p664
sI676
S'week'
p665
sI677
S'wife'
p666
sI678
S'family'
p667
sI679
S'talking'
p668
sI680
S'retire'
p669
sI681
S'bedlam'
p670
sI682
S'lunatic'
p671
sI683
S'letting'
p672
sI684
S'two'
p673
sI685
S'portly'
p674
sI686
S'gentlemen'
p675
sI687
S'behold'
p676
sI688
S'hats'
p677
sI689
S'off'
p678
sI690
S'papers'
p679
sI691
S'bowed'
p680
sI692
S'referring'
p681
sI693
S'list'
p682
sI694
S'pleasure'
p683
sI695
S'addressing'
p684
sI696
S'mr.'
p685
sI697
S'mr'
p686
sI698
S'these'
p687
sI699
S'seven'
p688
sI700
S'replied'
p689
sI701
S'ago'
p690
sI702
S'liberality'
p691
sI703
S'well'
p692
sI704
S'represented'
p693
sI705
S'surviving'
p694
sI706
S'partner'
p695
sI707
S'presenting'
p696
sI708
S'credentials'
p697
sI709
S'certainly'
p698
sI710
S'kindred'
p699
sI711
S'spirits'
p700
sI712
S'ominous'
p701
sI713
S'frowned'
p702
sI714
S'shook'
p703
sI715
S'handed'
p704
sI716
S'festive'
p705
sI717
S'pen'
p706
sI718
S'usually'
p707
sI719
S'desirable'
p708
sI720
S'make'
p709
sI721
S'some'
p710
sI722
S'slight'
p711
sI723
S'provision'
p712
sI724
S'destitute'
p713
sI725
S'suffer'
p714
sI726
S'greatly'
p715
sI727
S'present'
p716
sI728
S'thousands'
p717
sI729
S'common'
p718
sI730
S'necessaries'
p719
sI731
S'hundreds'
p720
sI732
S'comforts'
p721
sI733
S'prisons'
p722
sI734
S'plenty'
p723
sI735
S'laying'
p724
sI736
S'union'
p725
sI737
S'workhouses'
p726
sI738
S'demanded'
p727
sI739
S'still'
p728
sI740
S'operation'
p729
sI741
S'wish'
p730
sI742
S'treadmill'
p731
sI743
S'law'
p732
sI744
S'full'
p733
sI745
S'vigour'
p734
sI746
S'afraid'
p735
sI747
S'something'
p736
sI748
S'occurred'
p737
sI749
S'stop'
p738
sI750
S'useful'
p739
sI751
S'glad'
p740
sI752
S'under'
p741
sI753
S'impression'
p742
sI754
S'scarcely'
p743
sI755
S'furnish'
p744
sI756
S'christian'
p745
sI757
S'cheer'
p746
sI758
S'body'
p747
sI759
S'multitude'
p748
sI760
S'few'
p749
sI761
S'endeavouring'
p750
sI762
S'raise'
p751
sI763
S'fund'
p752
sI764
S'buy'
p753
sI765
S'meat'
p754
sI766
S'drink'
p755
sI767
S'means'
p756
sI768
S'choose'
p757
sI769
S'others'
p758
sI770
S'keenly'
p759
sI771
S'felt'
p760
sI772
S'abundance'
p761
sI773
S'rejoices'
p762
sI774
S'anonymous'
p763
sI775
S'since'
p764
sI776
S'ca'
p765
sI777
S'afford'
p766
sI778
S'idle'
p767
sI779
S'help'
p768
sI780
S'support'
p769
sI781
S'establishments'
p770
sI782
S'mentioned'
p771
sI783
S'cost'
p772
sI784
S'those'
p773
sI785
S'badly'
p774
sI786
S'rather'
p775
sI787
S'die'
p776
sI788
S'decrease'
p777
sI789
S'surplus'
p778
sI790
S'population'
p779
sI791
S'besides'
p780
sI792
S'excuse'
p781
sI793
S'observed'
p782
sI794
S'understand'
p783
sI795
S'interfere'
p784
sI796
S'occupies'
p785
sI797
S'constantly'
p786
sI798
S'seeing'
p787
sI799
S'clearly'
p788
sI800
S'useless'
p789
sI801
S'pursue'
p790
sI802
S'withdrew'
p791
sI803
S'resumed'
p792
sI804
S'labours'
p793
sI805
S'improved'
p794
sI806
S'opinion'
p795
sI807
S'facetious'
p796
sI808
S'temper'
p797
sI809
S'usual'
p798
sI810
S'meanwhile'
p799
sI811
S'darkness'
p800
sI812
S'thickened'
p801
sI813
S'ran'
p802
sI814
S'links'
p803
sI815
S'proffering'
p804
sI816
S'services'
p805
sI817
S'horses'
p806
sI818
S'carriages'
p807
sI819
S'conduct'
p808
sI820
S'ancient'
p809
sI821
S'tower'
p810
sI822
S'church'
p811
sI823
S'whose'
p812
sI824
S'gruff'
p813
sI825
S'bell'
p814
sI826
S'peeping'
p815
sI827
S'slily'
p816
sI828
S'gothic'
p817
sI829
S'window'
p818
sI830
S'wall'
p819
sI831
S'became'
p820
sI832
S'invisible'
p821
sI833
S'hours'
p822
sI834
S'quarters'
p823
sI835
S'clouds'
p824
sI836
S'tremulous'
p825
sI837
S'vibrations'
p826
sI838
S'teeth'
p827
sI839
S'chattering'
p828
sI840
S'frozen'
p829
sI841
S'intense'
p830
sI842
S'main'
p831
sI843
S'corner'
p832
sI844
S'labourers'
p833
sI845
S'repairing'
p834
sI846
S'gas-pipes'
p835
sI847
S'lighted'
p836
sI848
S'great'
p837
sI849
S'brazier'
p838
sI850
S'ragged'
p839
sI851
S'boys'
p840
sI852
S'gathered'
p841
sI853
S'warming'
p842
sI854
S'winking'
p843
sI855
S'blaze'
p844
sI856
S'rapture'
p845
sI857
S'water-plug'
p846
sI858
S'solitude'
p847
sI859
S'overflowings'
p848
sI860
S'suddenly'
p849
sI861
S'congealed'
p850
sI862
S'turned'
p851
sI863
S'misanthropic'
p852
sI864
S'ice'
p853
sI865
S'brightness'
p854
sI866
S'shops'
p855
sI867
S'sprigs'
p856
sI868
S'berries'
p857
sI869
S'crackled'
p858
sI870
S'lamp'
p859
sI871
S'pale'
p860
sI872
S'faces'
p861
sI873
S'passed'
p862
sI874
S'poulterers'
p863
sI875
S'grocers'
p864
sI876
S'trades'
p865
sI877
S'splendid'
p866
sI878
S'joke'
p867
sI879
S'glorious'
p868
sI880
S'pageant'
p869
sI881
S'next'
p870
sI882
S'impossible'
p871
sI883
S'dull'
p872
sI884
S'principles'
p873
sI885
S'sale'
p874
sI886
S'lord'
p875
sI887
S'mayor'
p876
sI888
S'stronghold'
p877
sI889
S'mighty'
p878
sI890
S'mansion'
p879
sI891
S'house'
p880
sI892
S'gave'
p881
sI893
S'orders'
p882
sI894
S'fifty'
p883
sI895
S'cooks'
p884
sI896
S'butlers'
p885
sI897
S'household'
p886
sI898
S'tailor'
p887
sI899
S'whom'
p888
sI900
S'fined'
p889
sI901
S'five'
p890
sI902
S'previous'
p891
sI903
S'monday'
p892
sI904
S'drunk'
p893
sI905
S'blood-thirsty'
p894
sI906
S'streets'
p895
sI907
S'stirred'
p896
sI908
S'garret'
p897
sI909
S'while'
p898
sI910
S'lean'
p899
sI911
S'baby'
p900
sI912
S'sallied'
p901
sI913
S'beef'
p902
sI914
S'foggier'
p903
sI915
S'yet'
p904
sI916
S'colder'
p905
sI917
S'piercing'
p906
sI918
S'searching'
p907
sI919
S'dunstan'
p908
sI920
S'spirit'
p909
sI921
S'touch'
p910
sI922
S'instead'
p911
sI923
S'using'
p912
sI924
S'familiar'
p913
sI925
S'weapons'
p914
sI926
S'roared'
p915
sI927
S'lusty'
p916
sI928
S'owner'
p917
sI929
S'scant'
p918
sI930
S'young'
p919
sI931
S'gnawed'
p920
sI932
S'mumbled'
p921
sI933
S'hungry'
p922
sI934
S'bones'
p923
sI935
S'stooped'
p924
sI936
S'regale'
p925
sI937
S'dismay'
p926
sI938
S'seized'
p927
sI939
S'ruler'
p928
sI940
S'energy'
p929
sI941
S'action'
p930
sI942
S'singer'
p931
sI943
S'fled'
p932
sI944
S'terror'
p933
sI945
S'leaving'
p934
sI946
S'congenial'
p935
sI947
S'shutting'
p936
sI948
S'arrived'
p937
sI949
S'ill-will'
p938
sI950
S'dismounted'
p939
sI951
S'stool'
p940
sI952
S'tacitly'
p941
sI953
S'admitted'
p942
sI954
S'fact'
p943
sI955
S'expectant'
p944
sI956
S'instantly'
p945
sI957
S'snuffed'
p946
sI958
S'hat'
p947
sI959
S'suppose'
p948
sI960
S'convenient'
p949
sI961
S'fair'
p950
sI962
S'half-a-crown'
p951
sI963
S"'d"
p952
sI964
S'ill'
p953
sI965
S'used'
p954
sI966
S'smiled'
p955
sI967
S'faintly'
p956
sI968
S'_me_'
p957
sI969
S'pay'
p958
sI970
S'wages'
p959
sI971
S'picking'
p960
sI972
S'twenty-fifth'
p961
sI973
S'december'
p962
sI974
S'buttoning'
p963
sI975
S'great-coat'
p964
sI976
S'here'
p965
sI977
S'earlier'
p966
sI978
S'morning'
p967
sI979
S'promised'
p968
sI980
S'walked'
p969
sI981
S'growl'
p970
sI982
S'closed'
p971
sI983
S'twinkling'
p972
sI984
S'ends'
p973
sI985
S'dangling'
p974
sI986
S'waist'
p975
sI987
S'('
sI988
S'boasted'
p976
sI989
S')'
sI990
S'slide'
p977
sI991
S'cornhill'
p978
sI992
S'end'
p979
sI993
S'lane'
p980
sI994
S'twenty'
p981
sI995
S'times'
p982
sI996
S'honour'
p983
sI997
S'christmas-eve'
p984
sI998
S'home'
p985
sI999
S'camden'
p986
sI1000
S'town'
p987
sI1001
S'pelt'
p988
sI1002
S'blindman'
p989
sI1003
S'buff'
p990
sI1004
S'took'
p991
sI1005
S'melancholy'
p992
sI1006
S'dinner'
p993
sI1007
S'tavern'
p994
sI1008
S'read'
p995
sI1009
S'newspapers'
p996
sI1010
S'beguiled'
p997
sI1011
S'evening'
p998
sI1012
S'banker'
p999
sI1013
S'book'
p1000
sI1014
S'bed'
p1001
sI1015
S'chambers'
p1002
sI1016
S'belonged'
p1003
sI1017
S'deceased'
p1004
sI1018
S'gloomy'
p1005
sI1019
S'suite'
p1006
sI1020
S'rooms'
p1007
sI1021
S'lowering'
p1008
sI1022
S'pile'
p1009
sI1023
S'building'
p1010
sI1024
S'yard'
p1011
sI1025
S'fancying'
p1012
sI1026
S'run'
p1013
sI1027
S'playing'
p1014
sI1028
S'hide-and-seek'
p1015
sI1029
S'forgotten'
p1016
sI1030
S'dreary'
p1017
sI1031
S'stone'
p1018
sI1032
S'fain'
p1019
sI1033
S'grope'
p1020
sI1034
S'hung'
p1021
sI1035
S'black'
p1022
sI1036
S'gateway'
p1023
sI1037
S'seemed'
p1024
sI1038
S'genius'
p1025
sI1039
S'mournful'
p1026
sI1040
S'meditation'
p1027
sI1041
S'threshold'
p1028
sI1042
S'particular'
p1029
sI1043
S'knocker'
p1030
sI1044
S'except'
p1031
sI1045
S'also'
p1032
sI1046
S'seen'
p1033
sI1047
S'during'
p1034
sI1048
S'residence'
p1035
sI1049
S'fancy'
p1036
sI1050
S'london'
p1037
sI1051
S'including'
p1038
sI1052
S'bold'
p1039
sI1053
S'corporation'
p1040
sI1054
S'aldermen'
p1041
sI1055
S'livery'
p1042
sI1056
S'borne'
p1043
sI1057
S'bestowed'
p1044
sI1058
S"seven-years'-dead"
p1045
sI1059
S'explain'
p1046
sI1060
S'key'
p1047
sI1061
S'lock'
p1048
sI1062
S'undergoing'
p1049
sI1063
S'intermediate'
p1050
sI1064
S'process'
p1051
sI1065
S'change'
p1052
sI1066
S'impenetrable'
p1053
sI1067
S'shadow'
p1054
sI1068
S'objects'
p1055
sI1069
S'bad'
p1056
sI1070
S'lobster'
p1057
sI1071
S'cellar'
p1058
sI1072
S'ferocious'
p1059
sI1073
S'look'
p1060
sI1074
S'ghostly'
p1061
sI1075
S'spectacles'
p1062
sI1076
S'forehead'
p1063
sI1077
S'hair'
p1064
sI1078
S'curiously'
p1065
sI1079
S'hot'
p1066
sI1080
S'wide'
p1067
sI1081
S'motionless'
p1068
sI1082
S'livid'
p1069
sI1083
S'colour'
p1070
sI1084
S'horrible'
p1071
sI1085
S'horror'
p1072
sI1086
S'spite'
p1073
sI1087
S'control'
p1074
sI1088
S'fixedly'
p1075
sI1089
S'phenomenon'
p1076
sI1090
S'startled'
p1077
sI1091
S'blood'
p1078
sI1092
S'conscious'
p1079
sI1093
S'terrible'
p1080
sI1094
S'sensation'
p1081
sI1095
S'stranger'
p1082
sI1096
S'infancy'
p1083
sI1097
S'untrue'
p1084
sI1098
S'relinquished'
p1085
sI1099
S'sturdily'
p1086
sI1100
S'_did_'
p1087
sI1101
S'pause'
p1088
sI1102
S'irresolution'
p1089
sI1103
S'shut'
p1090
sI1104
S'cautiously'
p1091
sI1105
S'behind'
p1092
sI1106
S'half'
p1093
sI1107
S'expected'
p1094
sI1108
S'terrified'
p1095
sI1109
S'sight'
p1096
sI1110
S'pigtail'
p1097
sI1111
S'sticking'
p1098
sI1112
S'hall'
p1099
sI1113
S'screws'
p1100
sI1114
S'held'
p1101
sI1115
S'pooh'
p1102
sI1116
S'bang'
p1103
sI1117
S'resounded'
p1104
sI1118
S'thunder'
p1105
sI1119
S'cask'
p1106
sI1120
S'wine'
p1107
sI1121
S'merchant'
p1108
sI1122
S'cellars'
p1109
sI1123
S'separate'
p1110
sI1124
S'peal'
p1111
sI1125
S'echoes'
p1112
sI1126
S'frightened'
p1113
sI1127
S'fastened'
p1114
sI1128
S'across'
p1115
sI1129
S'stairs'
p1116
sI1130
S'slowly'
p1117
sI1131
S'too'
p1118
sI1132
S'trimming'
p1119
sI1133
S'talk'
p1120
sI1134
S'vaguely'
p1121
sI1135
S'driving'
p1122
sI1136
S'coach'
p1123
sI1137
S'six'
p1124
sI1138
S'flight'
p1125
sI1139
S'act'
p1126
sI1140
S'got'
p1127
sI1141
S'hearse'
p1128
sI1142
S'staircase'
p1129
sI1143
S'taken'
p1130
sI1144
S'broadwise'
p1131
sI1145
S'splinter-bar'
p1132
sI1146
S'towards'
p1133
sI1147
S'balustrades'
p1134
sI1148
S'easy'
p1135
sI1149
S'width'
p1136
sI1150
S'spare'
p1137
sI1151
S'perhaps'
p1138
sI1152
S'locomotive'
p1139
sI1153
S'gloom'
p1140
sI1154
S'half-a-dozen'
p1141
sI1155
S'gas-lamps'
p1142
sI1156
S'entry'
p1143
sI1157
S'pretty'
p1144
sI1158
S'dip'
p1145
sI1159
S'caring'
p1146
sI1160
S'button'
p1147
sI1161
S'cheap'
p1148
sI1162
S'heavy'
p1149
sI1163
S'recollection'
p1150
sI1164
S'desire'
p1151
sI1165
S'sitting-room'
p1152
sI1166
S'bedroom'
p1153
sI1167
S'lumber-room'
p1154
sI1168
S'table'
p1155
sI1169
S'sofa'
p1156
sI1170
S'grate'
p1157
sI1171
S'spoon'
p1158
sI1172
S'basin'
p1159
sI1173
S'saucepan'
p1160
sI1174
S'gruel'
p1161
sI1175
S'hob'
p1162
sI1176
S'closet'
p1163
sI1177
S'dressing-gown'
p1164
sI1178
S'hanging'
p1165
sI1179
S'suspicious'
p1166
sI1180
S'attitude'
p1167
sI1181
S'fire-guard'
p1168
sI1182
S'shoes'
p1169
sI1183
S'fish'
p1170
sI1184
S'baskets'
p1171
sI1185
S'washing-stand'
p1172
sI1186
S'legs'
p1173
sI1187
S'poker'
p1174
sI1188
S'satisfied'
p1175
sI1189
S'locked'
p1176
sI1190
S'double'
p1177
sI1191
S'custom'
p1178
sI1192
S'thus'
p1179
sI1193
S'secured'
p1180
sI1194
S'surprise'
p1181
sI1195
S'cravat'
p1182
sI1196
S'slippers'
p1183
sI1197
S'nightcap'
p1184
sI1198
S'take'
p1185
sI1199
S'bitter'
p1186
sI1200
S'obliged'
p1187
sI1201
S'sit'
p1188
sI1202
S'close'
p1189
sI1203
S'brood'
p1190
sI1204
S'extract'
p1191
sI1205
S'least'
p1192
sI1206
S'handful'
p1193
sI1207
S'fuel'
p1194
sI1208
S'fire-place'
p1195
sI1209
S'built'
p1196
sI1210
S'dutch'
p1197
sI1211
S'paved'
p1198
sI1212
S'quaint'
p1199
sI1213
S'tiles'
p1200
sI1214
S'designed'
p1201
sI1215
S'illustrate'
p1202
sI1216
S'scriptures'
p1203
sI1217
S'cains'
p1204
sI1218
S'abels'
p1205
sI1219
S'pharaoh'
p1206
sI1220
S'daughters'
p1207
sI1221
S'queens'
p1208
sI1222
S'sheba'
p1209
sI1223
S'angelic'
p1210
sI1224
S'messengers'
p1211
sI1225
S'descending'
p1212
sI1226
S'feather'
p1213
sI1227
S'beds'
p1214
sI1228
S'abrahams'
p1215
sI1229
S'belshazzars'
p1216
sI1230
S'apostles'
p1217
sI1231
S'putting'
p1218
sI1232
S'sea'
p1219
sI1233
S'butter-boats'
p1220
sI1234
S'figures'
p1221
sI1235
S'attract'
p1222
sI1236
S'thoughts'
p1223
sI1237
S'prophet'
p1224
sI1238
S'rod'
p1225
sI1239
S'swallowed'
p1226
sI1240
S'each'
p1227
sI1241
S'smooth'
p1228
sI1242
S'tile'
p1229
sI1243
S'blank'
p1230
sI1244
S'power'
p1231
sI1245
S'shape'
p1232
sI1246
S'picture'
p1233
sI1247
S'surface'
p1234
sI1248
S'disjointed'
p1235
sI1249
S'fragments'
p1236
sI1250
S'copy'
p1237
sI1251
S'several'
p1238
sI1252
S'turns'
p1239
sI1253
S'threw'
p1240
sI1254
S'chair'
p1241
sI1255
S'glance'
p1242
sI1256
S'disused'
p1243
sI1257
S'communicated'
p1244
sI1258
S'chamber'
p1245
sI1259
S'highest'
p1246
sI1260
S'astonishment'
p1247
sI1261
S'strange'
p1248
sI1262
S'inexplicable'
p1249
sI1263
S'dread'
p1250
sI1264
S'swing'
p1251
sI1265
S'swung'
p1252
sI1266
S'softly'
p1253
sI1267
S'outset'
p1254
sI1268
S'soon'
p1255
sI1269
S'rang'
p1256
sI1270
S'loudly'
p1257
sI1271
S'lasted'
p1258
sI1272
S'minute'
p1259
sI1273
S'bells'
p1260
sI1274
S'ceased'
p1261
sI1275
S'begun'
p1262
sI1276
S'together'
p1263
sI1277
S'succeeded'
p1264
sI1278
S'clanking'
p1265
sI1279
S'noise'
p1266
sI1280
S'deep'
p1267
sI1281
S'person'
p1268
sI1282
S'dragging'
p1269
sI1283
S'chain'
p1270
sI1284
S'casks'
p1271
sI1285
S'remembered'
p1272
sI1286
S'heard'
p1273
sI1287
S'ghosts'
p1274
sI1288
S'haunted'
p1275
sI1289
S'described'
p1276
sI1290
S'chains'
p1277
sI1291
S'flew'
p1278
sI1292
S'booming'
p1279
sI1293
S'louder'
p1280
sI1294
S'floors'
p1281
sI1295
S'straight'
p1282
sI1296
S'wo'
p1283
sI1297
S'changed'
p1284
sI1298
S'dying'
p1285
sI1299
S'flame'
p1286
sI1300
S'leaped'
p1287
sI1301
S'waistcoat'
p1288
sI1302
S'tights'
p1289
sI1303
S'boots'
p1290
sI1304
S'tassels'
p1291
sI1305
S'latter'
p1292
sI1306
S'bristling'
p1293
sI1307
S'coat-skirts'
p1294
sI1308
S'drew'
p1295
sI1309
S'clasped'
p1296
sI1310
S'middle'
p1297
sI1311
S'wound'
p1298
sI1312
S'tail'
p1299
sI1313
S'closely'
p1300
sI1314
S'cash-boxes'
p1301
sI1315
S'keys'
p1302
sI1316
S'padlocks'
p1303
sI1317
S'ledgers'
p1304
sI1318
S'deeds'
p1305
sI1319
S'purses'
p1306
sI1320
S'wrought'
p1307
sI1321
S'transparent'
p1308
sI1322
S'observing'
p1309
sI1323
S'looking'
p1310
sI1324
S'buttons'
p1311
sI1325
S'coat'
p1312
sI1326
S'bowels'
p1313
sI1327
S'believed'
p1314
sI1328
S'until'
p1315
sI1329
S'nor'
p1316
sI1330
S'phantom'
p1317
sI1331
S'standing'
p1318
sI1332
S'chilling'
p1319
sI1333
S'death-cold'
p1320
sI1334
S'marked'
p1321
sI1335
S'texture'
p1322
sI1336
S'folded'
p1323
sI1337
S'kerchief'
p1324
sI1338
S'wrapper'
p1325
sI1339
S'incredulous'
p1326
sI1340
S'fought'
p1327
sI1341
S'senses'
p1328
sI1342
S'caustic'
p1329
sI1343
S'_was_'
p1330
sI1344
S'_were_'
p1331
sI1345
S'raising'
p1332
sI1346
S'shade'
p1333
sI1347
S'_to_'
p1334
sI1348
S'substituted'
p1335
sI1349
S'appropriate'
p1336
sI1350
S'jacob'
p1337
sI1351
S'doubtfully'
p1338
sI1352
S'question'
p1339
sI1353
S'whether'
p1340
sI1354
S'condition'
p1341
sI1355
S'involve'
p1342
sI1356
S'necessity'
p1343
sI1357
S'embarrassing'
p1344
sI1358
S'explanation'
p1345
sI1359
S'side'
p1346
sI1360
S'evidence'
p1347
sI1361
S'reality'
p1348
sI1362
S'affects'
p1349
sI1363
S'disorder'
p1350
sI1364
S'stomach'
p1351
sI1365
S'makes'
p1352
sI1366
S'cheats'
p1353
sI1367
S'undigested'
p1354
sI1368
S'bit'
p1355
sI1369
S'blot'
p1356
sI1370
S'mustard'
p1357
sI1371
S'crumb'
p1358
sI1372
S'cheese'
p1359
sI1373
S'fragment'
p1360
sI1374
S'underdone'
p1361
sI1375
S'potato'
p1362
sI1376
S'gravy'
p1363
sI1377
S'habit'
p1364
sI1378
S'cracking'
p1365
sI1379
S'jokes'
p1366
sI1380
S'feel'
p1367
sI1381
S'waggish'
p1368
sI1382
S'truth'
p1369
sI1383
S'smart'
p1370
sI1384
S'distracting'
p1371
sI1385
S'attention'
p1372
sI1386
S'keeping'
p1373
sI1387
S'spectre'
p1374
sI1388
S'disturbed'
p1375
sI1389
S'marrow'
p1376
sI1390
S'staring'
p1377
sI1391
S'fixed'
p1378
sI1392
S'glazed'
p1379
sI1393
S'silence'
p1380
sI1394
S'deuce'
p1381
sI1395
S'awful'
p1382
sI1396
S'provided'
p1383
sI1397
S'infernal'
p1384
sI1398
S'atmosphere'
p1385
sI1399
S'case'
p1386
sI1400
S'skirts'
p1387
sI1401
S'agitated'
p1388
sI1402
S'vapour'
p1389
sI1403
S'oven'
p1390
sI1404
S'toothpick'
p1391
sI1405
S'returning'
p1392
sI1406
S'charge'
p1393
sI1407
S'assigned'
p1394
sI1408
S'wishing'
p1395
sI1409
S'second'
p1396
sI1410
S'divert'
p1397
sI1411
S'vision'
p1398
sI1412
S'stony'
p1399
sI1413
S'gaze'
p1400
sI1414
S'swallow'
p1401
sI1415
S'persecuted'
p1402
sI1416
S'legion'
p1403
sI1417
S'goblins'
p1404
sI1418
S'creation'
p1405
sI1419
S'tell'
p1406
sI1420
S'raised'
p1407
sI1421
S'frightful'
p1408
sI1422
S'cry'
p1409
sI1423
S'appalling'
p1410
sI1424
S'tight'
p1411
sI1425
S'swoon'
p1412
sI1426
S'greater'
p1413
sI1427
S'bandage'
p1414
sI1428
S'wear'
p1415
sI1429
S'indoors'
p1416
sI1430
S'lower'
p1417
sI1431
S'jaw'
p1418
sI1432
S'dropped'
p1419
sI1433
S'breast'
p1420
sI1434
S'knees'
p1421
sI1435
S'mercy'
p1422
sI1436
S'dreadful'
p1423
sI1437
S'apparition'
p1424
sI1438
S'trouble'
p1425
sI1439
S'worldly'
p1426
sI1440
S'walk'
p1427
sI1441
S'earth'
p1428
sI1442
S'_to'
p1429
sI1443
S'him._'
p1430
sI1444
S'required'
p1431
sI1445
S'abroad'
p1432
sI1446
S'fellow-men'
p1433
sI1447
S'travel'
p1434
sI1448
S'far'
p1435
sI1449
S'forth'
p1436
sI1450
S'condemned'
p1437
sI1451
S'death'
p1438
sI1452
S'doomed'
p1439
sI1453
S'wander'
p1440
sI1454
S'woe'
p1441
sI1455
S'witness'
p1442
sI1456
S'share'
p1443
sI1457
S'shared'
p1444
sI1458
S'happiness'
p1445
sI1459
S'wrung'
p1446
sI1460
S'shadowy'
p1447
sI1461
S'fettered'
p1448
sI1462
S'trembling'
p1449
sI1463
S'forged'
p1450
sI1464
S'link'
p1451
sI1465
S'girded'
p1452
sI1466
S'free-will'
p1453
sI1467
S'wore'
p1454
sI1468
S'pattern'
p1455
sI1469
S'trembled'
p1456
sI1470
S'pursued'
p1457
sI1471
S'weight'
p1458
sI1472
S'coil'
p1459
sI1473
S'bear'
p1460
sI1474
S'christmas-eves'
p1461
sI1475
S'laboured'
p1462
sI1476
S'ponderous'
p1463
sI1477
S'glanced'
p1464
sI1478
S'floor'
p1465
sI1479
S'expectation'
p1466
sI1480
S'surrounded'
p1467
sI1481
S'sixty'
p1468
sI1482
S'fathoms'
p1469
sI1483
S'iron'
p1470
sI1484
S'cable'
p1471
sI1485
S'imploringly'
p1472
sI1486
S'speak'
p1473
sI1487
S'comfort'
p1474
sI1488
S'none'
p1475
sI1489
S'comes'
p1476
sI1490
S'regions'
p1477
sI1491
S'ebenezer'
p1478
sI1492
S'conveyed'
p1479
sI1493
S'ministers'
p1480
sI1494
S'kinds'
p1481
sI1495
S'permitted'
p1482
sI1496
S'stay'
p1483
sI1497
S'linger'
p1484
sI1498
S'anywhere'
p1485
sI1499
S'mark'
p1486
sI1500
S'roved'
p1487
sI1501
S'narrow'
p1488
sI1502
S'limits'
p1489
sI1503
S'money-changing'
p1490
sI1504
S'hole'
p1491
sI1505
S'weary'
p1492
sI1506
S'lie'
p1493
sI1507
S'whenever'
p1494
sI1508
S'thoughtful'
p1495
sI1509
S'breeches'
p1496
sI1510
S'pockets'
p1497
sI1511
S'pondering'
p1498
sI1512
S'lifting'
p1499
sI1513
S'getting'
p1500
sI1514
S'slow'
p1501
sI1515
S'business-like'
p1502
sI1516
S'manner'
p1503
sI1517
S'humility'
p1504
sI1518
S'deference'
p1505
sI1519
S'mused'
p1506
sI1520
S'travelling'
p1507
sI1521
S'peace'
p1508
sI1522
S'incessant'
p1509
sI1523
S'torture'
p1510
sI1524
S'remorse'
p1511
sI1525
S'fast'
p1512
sI1526
S'wings'
p1513
sI1527
S'quantity'
p1514
sI1528
S'ground'
p1515
sI1529
S'hearing'
p1516
sI1530
S'set'
p1517
sI1531
S'clanked'
p1518
sI1532
S'hideously'
p1519
sI1533
S'ward'
p1520
sI1534
S'justified'
p1521
sI1535
S'indicting'
p1522
sI1536
S'nuisance'
p1523
sI1537
S'captive'
p1524
sI1538
S'double-ironed'
p1525
sI1539
S'ages'
p1526
sI1540
S'labour'
p1527
sI1541
S'immortal'
p1528
sI1542
S'pass'
p1529
sI1543
S'eternity'
p1530
sI1544
S'susceptible'
p1531
sI1545
S'developed'
p1532
sI1546
S'working'
p1533
sI1547
S'kindly'
p1534
sI1548
S'sphere'
p1535
sI1549
S'mortal'
p1536
sI1550
S'short'
p1537
sI1551
S'vast'
p1538
sI1552
S'usefulness'
p1539
sI1553
S'space'
p1540
sI1554
S'regret'
p1541
sI1555
S'amends'
p1542
sI1556
S'opportunities'
p1543
sI1557
S'misused'
p1544
sI1558
S'faltered'
p1545
sI1559
S'apply'
p1546
sI1560
S'wringing'
p1547
sI1561
S'mankind'
p1548
sI1562
S'welfare'
p1549
sI1563
S'charity'
p1550
sI1564
S'forbearance'
p1551
sI1565
S'benevolence'
p1552
sI1566
S'dealings'
p1553
sI1567
S'drop'
p1554
sI1568
S'water'
p1555
sI1569
S'comprehensive'
p1556
sI1570
S'ocean'
p1557
sI1571
S'arm'
p1558
sI1572
S'cause'
p1559
sI1573
S'unavailing'
p1560
sI1574
S'grief'
p1561
sI1575
S'flung'
p1562
sI1576
S'heavily'
p1563
sI1577
S'rolling'
p1564
sI1578
S'most'
p1565
sI1579
S'crowds'
p1566
sI1580
S'fellow-beings'
p1567
sI1581
S'blessed'
p1568
sI1582
S'star'
p1569
sI1583
S'led'
p1570
sI1584
S'wise'
p1571
sI1585
S'abode'
p1572
sI1586
S'homes'
p1573
sI1587
S'conducted'
p1574
sI1588
S'dismayed'
p1575
sI1589
S'rate'
p1576
sI1590
S'quake'
p1577
sI1591
S'exceedingly'
p1578
sI1592
S'nearly'
p1579
sI1593
S'flowery'
p1580
sI1594
S'pray'
p1581
sI1595
S'appear'
p1582
sI1596
S'beside'
p1583
sI1597
S'agreeable'
p1584
sI1598
S'idea'
p1585
sI1599
S'shivered'
p1586
sI1600
S'wiped'
p1587
sI1601
S'perspiration'
p1588
sI1602
S'brow'
p1589
sI1603
S'penance'
p1590
sI1604
S'to-night'
p1591
sI1605
S'warn'
p1592
sI1606
S'chance'
p1593
sI1607
S'hope'
p1594
sI1608
S'escaping'
p1595
sI1609
S'fate'
p1596
sI1610
S'procuring'
p1597
sI1611
S'thankee'
p1598
sI1612
S'countenance'
p1599
sI1613
S'almost'
p1600
sI1614
S'faltering'
p1601
sI1615
S'visits'
p1602
sI1616
S'shun'
p1603
sI1617
S'path'
p1604
sI1618
S'tread'
p1605
sI1619
S'expect'
p1606
sI1620
S'tolls'
p1607
sI1621
S'hinted'
p1608
sI1622
S'third'
p1609
sI1623
S'stroke'
p1610
sI1624
S'twelve'
p1611
sI1625
S'vibrate'
p1612
sI1626
S'sake'
p1613
sI1627
S'remember'
p1614
sI1628
S'between'
p1615
sI1629
S'words'
p1616
sI1630
S'jaws'
p1617
sI1631
S'brought'
p1618
sI1632
S'ventured'
p1619
sI1633
S'found'
p1620
sI1634
S'supernatural'
p1621
sI1635
S'visitor'
p1622
sI1636
S'confronting'
p1623
sI1637
S'erect'
p1624
sI1638
S'backward'
p1625
sI1639
S'step'
p1626
sI1640
S'itself'
p1627
sI1641
S'reached'
p1628
sI1642
S'beckoned'
p1629
sI1643
S'paces'
p1630
sI1644
S'nearer'
p1631
sI1645
S'obedience'
p1632
sI1646
S'fear'
p1633
sI1647
S'confused'
p1634
sI1648
S'noises'
p1635
sI1649
S'incoherent'
p1636
sI1650
S'sounds'
p1637
sI1651
S'lamentation'
p1638
sI1652
S'wailings'
p1639
sI1653
S'inexpressibly'
p1640
sI1654
S'sorrowful'
p1641
sI1655
S'self-accusatory'
p1642
sI1656
S'listening'
p1643
sI1657
S'joined'
p1644
sI1658
S'dirge'
p1645
sI1659
S'floated'
p1646
sI1660
S'desperate'
p1647
sI1661
S'curiosity'
p1648
sI1662
S'filled'
p1649
sI1663
S'wandering'
p1650
sI1664
S'hither'
p1651
sI1665
S'thither'
p1652
sI1666
S'restless'
p1653
sI1667
S'haste'
p1654
sI1668
S'moaning'
p1655
sI1669
S'guilty'
p1656
sI1670
S'governments'
p1657
sI1671
S'linked'
p1658
sI1672
S'free'
p1659
sI1673
S'personally'
p1660
sI1674
S'lives'
p1661
sI1675
S'monstrous'
p1662
sI1676
S'safe'
p1663
sI1677
S'attached'
p1664
sI1678
S'ankle'
p1665
sI1679
S'piteously'
p1666
sI1680
S'unable'
p1667
sI1681
S'assist'
p1668
sI1682
S'wretched'
p1669
sI1683
S'infant'
p1670
sI1684
S'doorstep'
p1671
sI1685
S'misery'
p1672
sI1686
S'sought'
p1673
sI1687
S'matters'
p1674
sI1688
S'lost'
p1675
sI1689
S'faded'
p1676
sI1690
S'mist'
p1677
sI1691
S'enshrouded'
p1678
sI1692
S'voices'
p1679
sI1693
S'examined'
p1680
sI1694
S'entered'
p1681
sI1695
S'bolts'
p1682
sI1696
S'undisturbed'
p1683
sI1697
S'syllable'
p1684
sI1698
S'emotion'
p1685
sI1699
S'undergone'
p1686
sI1700
S'fatigues'
p1687
sI1701
S'glimpse'
p1688
sI1702
S'conversation'
p1689
sI1703
S'lateness'
p1690
sI1704
S'need'
p1691
sI1705
S'repose'
p1692
sI1706
S'undressing'
p1693
sI1707
S'asleep'
p1694
sI1708
S'instant'
p1695
sI1709
S'awoke'
p1696
sI1710
S'distinguish'
p1697
sI1711
S'opaque'
p1698
sI1712
S'walls'
p1699
sI1713
S'pierce'
p1700
sI1714
S'ferret'
p1701
sI1715
S'chimes'
p1702
sI1716
S'four'
p1703
sI1717
S'listened'
p1704
sI1718
S'eight'
p1705
sI1719
S'regularly'
p1706
sI1720
S'past'
p1707
sI1721
S'clock'
p1708
sI1722
S'wrong'
p1709
sI1723
S'icicle'
p1710
sI1724
S'works'
p1711
sI1725
S'touched'
p1712
sI1726
S'spring'
p1713
sI1727
S'repeater'
p1714
sI1728
S'correct'
p1715
sI1729
S'preposterous'
p1716
sI1730
S'pulse'
p1717
sI1731
S'beat'
p1718
sI1732
S'possible'
p1719
sI1733
S'slept'
p1720
sI1734
S'sun'
p1721
sI1735
S'noon'
p1722
sI1736
S'alarming'
p1723
sI1737
S'scrambled'
p1724
sI1738
S'groped'
p1725
sI1739
S'rub'
p1726
sI1740
S'sleeve'
p1727
sI1741
S'extremely'
p1728
sI1742
S'running'
p1729
sI1743
S'fro'
p1730
sI1744
S'making'
p1731
sI1745
S'stir'
p1732
sI1746
S'unquestionably'
p1733
sI1747
S'beaten'
p1734
sI1748
S'bright'
p1735
sI1749
S'possession'
p1736
sI1750
S'relief'
p1737
sI1751
S'exchange'
p1738
sI1752
S'order'
p1739
sI1753
S'become'
p1740
sI1754
S'united'
p1741
sI1755
S'states'
p1742
sI1756
S'security'
p1743
sI1757
S'count'
p1744
sI1758
S'perplexed'
p1745
sI1759
S'endeavoured'
p1746
sI1760
S'bothered'
p1747
sI1761
S'resolved'
p1748
sI1762
S'mature'
p1749
sI1763
S'inquiry'
p1750
sI1764
S'dream'
p1751
sI1765
S'released'
p1752
sI1766
S'position'
p1753
sI1767
S'problem'
p1754
sI1768
S'worked'
p1755
sI1769
S'lay'
p1756
sI1770
S'state'
p1757
sI1771
S'chime'
p1758
sI1772
S'sudden'
p1759
sI1773
S'warned'
p1760
sI1774
S'visitation'
p1761
sI1775
S'tolled'
p1762
sI1776
S'awake'
p1763
sI1777
S'considering'
p1764
sI1778
S'sleep'
p1765
sI1779
S'heaven'
p1766
sI1780
S'wisest'
p1767
sI1781
S'resolution'
p1768
sI1782
S'quarter'
p1769
sI1783
S'sunk'
p1770
sI1784
S'doze'
p1771
sI1785
S'unconsciously'
p1772
sI1786
S'missed'
p1773
sI1787
S'broke'
p1774
sI1788
S'ear'
p1775
sI1789
S'ding'
p1776
sI1790
S'dong'
p1777
sI1791
S'counting'
p1778
sI1792
S'triumphantly'
p1779
sI1793
S'sounded'
p1780
sI1794
S'hollow'
p1781
sI1795
S'flashed'
p1782
sI1796
S'curtains'
p1783
sI1797
S'drawn'
p1784
sI1798
S'aside'
p1785
sI1799
S'addressed'
p1786
sI1800
S'starting'
p1787
sI1801
S'half-recumbent'
p1788
sI1802
S'unearthly'
p1789
sI1803
S'elbow'
p1790
sI1804
S'figure'
p1791
sI1805
S'child'
p1792
sI1806
S'viewed'
p1793
sI1807
S'medium'
p1794
sI1808
S'appearance'
p1795
sI1809
S'receded'
p1796
sI1810
S'view'
p1797
sI1811
S'diminished'
p1798
sI1812
S'proportions'
p1799
sI1813
S'neck'
p1800
sI1814
S'age'
p1801
sI1815
S'wrinkle'
p1802
sI1816
S'tenderest'
p1803
sI1817
S'bloom'
p1804
sI1818
S'skin'
p1805
sI1819
S'arms'
p1806
sI1820
S'muscular'
p1807
sI1821
S'hold'
p1808
sI1822
S'uncommon'
p1809
sI1823
S'strength'
p1810
sI1824
S'delicately'
p1811
sI1825
S'formed'
p1812
sI1826
S'upper'
p1813
sI1827
S'members'
p1814
sI1828
S'bare'
p1815
sI1829
S'tunic'
p1816
sI1830
S'purest'
p1817
sI1831
S'lustrous'
p1818
sI1832
S'belt'
p1819
sI1833
S'sheen'
p1820
sI1834
S'beautiful'
p1821
sI1835
S'branch'
p1822
sI1836
S'fresh'
p1823
sI1837
S'green'
p1824
sI1838
S'singular'
p1825
sI1839
S'contradiction'
p1826
sI1840
S'emblem'
p1827
sI1841
S'dress'
p1828
sI1842
S'trimmed'
p1829
sI1843
S'summer'
p1830
sI1844
S'flowers'
p1831
sI1845
S'strangest'
p1832
sI1846
S'crown'
p1833
sI1847
S'sprung'
p1834
sI1848
S'clear'
p1835
sI1849
S'jet'
p1836
sI1850
S'visible'
p1837
sI1851
S'doubtless'
p1838
sI1852
S'occasion'
p1839
sI1853
S'duller'
p1840
sI1854
S'moments'
p1841
sI1855
S'extinguisher'
p1842
sI1856
S'cap'
p1843
sI1857
S'increasing'
p1844
sI1858
S'steadiness'
p1845
sI1859
S'_not_'
p1846
sI1860
S'quality'
p1847
sI1861
S'glittered'
p1848
sI1862
S'fluctuated'
p1849
sI1863
S'distinctness'
p1850
sI1864
S'leg'
p1851
sI1865
S'pair'
p1852
sI1866
S'dissolving'
p1853
sI1867
S'parts'
p1854
sI1868
S'outline'
p1855
sI1869
S'wherein'
p1856
sI1870
S'melted'
p1857
sI1871
S'away'
p1858
sI1872
S'distinct'
p1859
sI1873
S'foretold'
p1860
sI1874
S'soft'
p1861
sI1875
S'gentle'
p1862
sI1876
S'singularly'
p1863
sI1877
S'observant'
p1864
sI1878
S'dwarfish'
p1865
sI1879
S'stature'
p1866
sI1880
S'told'
p1867
sI1881
S'anybody'
p1868
sI1882
S'special'
p1869
sI1883
S'begged'
p1870
sI1884
S'covered'
p1871
sI1885
S'exclaimed'
p1872
sI1886
S'passions'
p1873
sI1887
S'force'
p1874
sI1888
S'trains'
p1875
sI1889
S'reverently'
p1876
sI1890
S'disclaimed'
p1877
sI1891
S'intention'
p1878
sI1892
S'offend'
p1879
sI1893
S'wilfully'
p1880
sI1894
S'bonneted'
p1881
sI1895
S'period'
p1882
sI1896
S'inquire'
p1883
sI1897
S'expressed'
p1884
sI1898
S'thinking'
p1885
sI1899
S'unbroken'
p1886
sI1900
S'conducive'
p1887
sI1901
S'reclamation'
p1888
sI1902
S'heed'
p1889
sI1903
S'gently'
p1890
sI1904
S'rise'
p1891
sI1905
S'vain'
p1892
sI1906
S'plead'
p1893
sI1907
S'adapted'
p1894
sI1908
S'pedestrian'
p1895
sI1909
S'purposes'
p1896
sI1910
S'thermometer'
p1897
sI1911
S'freezing'
p1898
sI1912
S'clad'
p1899
sI1913
S'lightly'
p1900
sI1914
S'grasp'
p1901
sI1915
S'resisted'
p1902
sI1916
S'rose'
p1903
sI1917
S'robe'
p1904
sI1918
S'supplication'
p1905
sI1919
S'remonstrated'
p1906
sI1920
S'liable'
p1907
sI1921
S'fall'
p1908
sI1922
S'_there_'
p1909
sI1923
S'upheld'
p1910
sI1924
S'spoken'
p1911
sI1925
S'road'
p1912
sI1926
S'fields'
p1913
sI1927
S'either'
p1914
sI1928
S'entirely'
p1915
sI1929
S'vanished'
p1916
sI1930
S'vestige'
p1917
sI1931
S'winter'
p1918
sI1932
S'clasping'
p1919
sI1933
S'bred'
p1920
sI1934
S'boy'
p1921
sI1935
S'gazed'
p1922
sI1936
S'mildly'
p1923
sI1937
S'instantaneous'
p1924
sI1938
S'sense'
p1925
sI1939
S'feeling'
p1926
sI1940
S'thousand'
p1927
sI1941
S'odours'
p1928
sI1942
S'floating'
p1929
sI1943
S'connected'
p1930
sI1944
S'hopes'
p1931
sI1945
S'joys'
p1932
sI1946
S'cares'
p1933
sI1947
S'lip'
p1934
sI1948
S'unusual'
p1935
sI1949
S'catching'
p1936
sI1950
S'pimple'
p1937
sI1951
S'lead'
p1938
sI1952
S'recollect'
p1939
sI1953
S'fervour'
p1940
sI1954
S'blindfold'
p1941
sI1955
S'recognising'
p1942
sI1956
S'gate'
p1943
sI1957
S'post'
p1944
sI1958
S'tree'
p1945
sI1959
S'market-town'
p1946
sI1960
S'bridge'
p1947
sI1961
S'winding'
p1948
sI1962
S'river'
p1949
sI1963
S'shaggy'
p1950
sI1964
S'ponies'
p1951
sI1965
S'trotting'
p1952
sI1966
S'backs'
p1953
sI1967
S'gigs'
p1954
sI1968
S'carts'
p1955
sI1969
S'driven'
p1956
sI1970
S'farmers'
p1957
sI1971
S'shouted'
p1958
sI1972
S'broad'
p1959
sI1973
S'music'
p1960
sI1974
S'crisp'
p1961
sI1975
S'laughed'
p1962
sI1976
S'shadows'
p1963
sI1977
S'consciousness'
p1964
sI1978
S'jocund'
p1965
sI1979
S'travellers'
p1966
sI1980
S'named'
p1967
sI1981
S'rejoiced'
p1968
sI1982
S'bounds'
p1969
sI1983
S'glisten'
p1970
sI1984
S'leap'
p1971
sI1985
S'gladness'
p1972
sI1986
S'parted'
p1973
sI1987
S'cross-roads'
p1974
sI1988
S'by-ways'
p1975
sI1989
S'school'
p1976
sI1990
S'deserted'
p1977
sI1991
S'neglected'
p1978
sI1992
S'sobbed'
p1979
sI1993
S'high-road'
p1980
sI1994
S'well-remembered'
p1981
sI1995
S'approached'
p1982
sI1996
S'brick'
p1983
sI1997
S'weather-cock'
p1984
sI1998
S'surmounted'
p1985
sI1999
S'cupola'
p1986
sI2000
S'roof'
p1987
sI2001
S'broken'
p1988
sI2002
S'fortunes'
p1989
sI2003
S'spacious'
p1990
sI2004
S'damp'
p1991
sI2005
S'mossy'
p1992
sI2006
S'gates'
p1993
sI2007
S'decayed'
p1994
sI2008
S'fowls'
p1995
sI2009
S'clucked'
p1996
sI2010
S'strutted'
p1997
sI2011
S'stables'
p1998
sI2012
S'coach-houses'
p1999
sI2013
S'sheds'
p2000
sI2014
S'overrun'
p2001
sI2015
S'grass'
p2002
sI2016
S'retentive'
p2003
sI2017
S'entering'
p2004
sI2018
S'glancing'
p2005
sI2019
S'doors'
p2006
sI2020
S'poorly'
p2007
sI2021
S'furnished'
p2008
sI2022
S'earthly'
p2009
sI2023
S'savour'
p2010
sI2024
S'chilly'
p2011
sI2025
S'bareness'
p2012
sI2026
S'associated'
p2013
sI2027
S'somehow'
p2014
sI2028
S'candle-light'
p2015
sI2029
S'eat'
p2016
sI2030
S'opened'
p2017
sI2031
S'disclosed'
p2018
sI2032
S'barer'
p2019
sI2033
S'lines'
p2020
sI2034
S'plain'
p2021
sI2035
S'deal'
p2022
sI2036
S'forms'
p2023
sI2037
S'desks'
p2024
sI2038
S'lonely'
p2025
sI2039
S'reading'
p2026
sI2040
S'near'
p2027
sI2041
S'feeble'
p2028
sI2042
S'form'
p2029
sI2043
S'wept'
p2030
sI2044
S'self'
p2031
sI2045
S'latent'
p2032
sI2046
S'echo'
p2033
sI2047
S'squeak'
p2034
sI2048
S'scuffle'
p2035
sI2049
S'mice'
p2036
sI2050
S'panelling'
p2037
sI2051
S'drip'
p2038
sI2052
S'half-thawed'
p2039
sI2053
S'water-spout'
p2040
sI2054
S'sigh'
p2041
sI2055
S'leafless'
p2042
sI2056
S'boughs'
p2043
sI2057
S'despondent'
p2044
sI2058
S'poplar'
p2045
sI2059
S'swinging'
p2046
sI2060
S'empty'
p2047
sI2061
S'storehouse'
p2048
sI2062
S'clicking'
p2049
sI2063
S'softening'
p2050
sI2064
S'freer'
p2051
sI2065
S'passage'
p2052
sI2066
S'tears'
p2053
sI2067
S'younger'
p2054
sI2068
S'foreign'
p2055
sI2069
S'garments'
p2056
sI2070
S'wonderfully'
p2057
sI2071
S'real'
p2058
sI2072
S'axe'
p2059
sI2073
S'stuck'
p2060
sI2074
S'leading'
p2061
sI2075
S'bridle'
p2062
sI2076
S'ass'
p2063
sI2077
S'laden'
p2064
sI2078
S'wood'
p2065
sI2079
S'ali'
p2066
sI2080
S'baba'
p2067
sI2081
S'ecstasy'
p2068
sI2082
S'honest'
p2069
sI2083
S'yonder'
p2070
sI2084
S'valentine'
p2071
sI2085
S'wild'
p2072
sI2086
S'brother'
p2073
sI2087
S'orson'
p2074
sI2088
S'drawers'
p2075
sI2089
S'damascus'
p2076
sI2090
S'sultan'
p2077
sI2091
S'groom'
p2078
sI2092
S'upside'
p2079
sI2093
S'genii'
p2080
sI2094
S'serve'
p2081
sI2095
S"'m"
p2082
sI2096
S'_he_'
p2083
sI2097
S'princess'
p2084
sI2098
S'expending'
p2085
sI2099
S'earnestness'
p2086
sI2100
S'subjects'
p2087
sI2101
S'extraordinary'
p2088
sI2102
S'laughing'
p2089
sI2103
S'crying'
p2090
sI2104
S'heightened'
p2091
sI2105
S'excited'
p2092
sI2106
S'parrot'
p2093
sI2107
S'yellow'
p2094
sI2108
S'lettuce'
p2095
sI2109
S'growing'
p2096
sI2110
S'top'
p2097
sI2111
S'robin'
p2098
sI2112
S'crusoe'
p2099
sI2113
S'sailing'
p2100
sI2114
S'island'
p2101
sI2115
S"'poor"
p2102
sI2116
S'dreaming'
p2103
sI2117
S'friday'
p2104
sI2118
S'creek'
p2105
sI2119
S'halloa'
p2106
sI2120
S'hoop'
p2107
sI2121
S'halloo'
p2108
sI2122
S'rapidity'
p2109
sI2123
S'transition'
p2110
sI2124
S'character'
p2111
sI2125
S'pity'
p2112
sI2126
S'former'
p2113
sI2127
S'drying'
p2114
sI2128
S'cuff'
p2115
sI2129
S'late'
p2116
sI2130
S'matter'
p2117
sI2131
S'singing'
p2118
sI2132
S'given'
p2119
sI2133
S'thoughtfully'
p2120
sI2134
S'waved'
p2121
sI2135
S'saying'
p2122
sI2136
S'grew'
p2123
sI2137
S'larger'
p2124
sI2138
S'darker'
p2125
sI2139
S'dirty'
p2126
sI2140
S'panels'
p2127
sI2141
S'shrunk'
p2128
sI2142
S'cracked'
p2129
sI2143
S'plaster'
p2130
sI2144
S'ceiling'
p2131
sI2145
S'naked'
p2132
sI2146
S'laths'
p2133
sI2147
S'shown'
p2134
sI2148
S'jolly'
p2135
sI2149
S'holidays'
p2136
sI2150
S'despairingly'
p2137
sI2151
S'shaking'
p2138
sI2152
S'anxiously'
p2139
sI2153
S'girl'
p2140
sI2154
S'darting'
p2141
sI2155
S'her'
p2142
sI2156
S'kissing'
p2143
sI2157
S'bring'
p2144
sI2158
S'clapping'
p2145
sI2159
S'tiny'
p2146
sI2160
S'bending'
p2147
sI2161
S'laugh'
p2148
sI2162
S'fan'
p2149
sI2163
S'brimful'
p2150
sI2164
S'glee'
p2151
sI2165
S'kinder'
p2152
sI2166
S'sent'
p2153
sI2167
S'opening'
p2154
sI2168
S'merriest'
p2155
sI2169
S'she'
p2156
sI2170
S'clapped'
p2157
sI2171
S'tiptoe'
p2158
sI2172
S'embrace'
p2159
sI2173
S'drag'
p2160
sI2174
S'childish'
p2161
sI2175
S'eagerness'
p2162
sI2176
S'loath'
p2163
sI2177
S'accompanied'
p2164
sI2178
S'box'
p2165
sI2179
S'schoolmaster'
p2166
sI2180
S'glared'
p2167
sI2181
S'condescension'
p2168
sI2182
S'sister'
p2169
sI2183
S'veriest'
p2170
sI2184
S'shivering'
p2171
sI2185
S'best'
p2172
sI2186
S'parlour'
p2173
sI2187
S'maps'
p2174
sI2188
S'celestial'
p2175
sI2189
S'terrestrial'
p2176
sI2190
S'globes'
p2177
sI2191
S'waxy'
p2178
sI2192
S'produced'
p2179
sI2193
S'decanter'
p2180
sI2194
S'block'
p2181
sI2195
S'cake'
p2182
sI2196
S'administered'
p2183
sI2197
S'instalments'
p2184
sI2198
S'dainties'
p2185
sI2199
S'sending'
p2186
sI2200
S'meagre'
p2187
sI2201
S'servant'
p2188
sI2202
S'offer'
p2189
sI2203
S'glass'
p2190
sI2204
S'postboy'
p2191
sI2205
S'thanked'
p2192
sI2206
S'tap'
p2193
sI2207
S'tasted'
p2194
sI2208
S'trunk'
p2195
sI2209
S'tied'
p2196
sI2210
S'chaise'
p2197
sI2211
S'bade'
p2198
sI2212
S'good-bye'
p2199
sI2213
S'willingly'
p2200
sI2214
S'drove'
p2201
sI2215
S'garden'
p2202
sI2216
S'sweep'
p2203
sI2217
S'quick'
p2204
sI2218
S'wheels'
p2205
sI2219
S'dashing'
p2206
sI2220
S'hoar'
p2207
sI2221
S'leaves'
p2208
sI2222
S'evergreens'
p2209
sI2223
S'spray'
p2210
sI2224
S'delicate'
p2211
sI2225
S'creature'
p2212
sI2226
S'withered'
p2213
sI2227
S'gainsay'
p2214
sI2228
S'forbid'
p2215
sI2229
S'true'
p2216
sI2230
S'uneasy'
p2217
sI2231
S'briefly'
p2218
sI2232
S'thoroughfares'
p2219
sI2233
S'passengers'
p2220
sI2234
S'repassed'
p2221
sI2235
S'coaches'
p2222
sI2236
S'battled'
p2223
sI2237
S'strife'
p2224
sI2238
S'tumult'
p2225
sI2239
S'dressing'
p2226
sI2240
S'certain'
p2227
sI2241
S'apprenticed'
p2228
sI2242
S'welsh'
p2229
sI2243
S'wig'
p2230
sI2244
S'sitting'
p2231
sI2245
S'high'
p2232
sI2246
S'desk'
p2233
sI2247
S'inches'
p2234
sI2248
S'taller'
p2235
sI2249
S'knocked'
p2236
sI2250
S'excitement'
p2237
sI2251
S'fezziwig'
p2238
sI2252
S'alive'
p2239
sI2253
S'laid'
p2240
sI2254
S'rubbed'
p2241
sI2255
S'adjusted'
p2242
sI2256
S'capacious'
p2243
sI2257
S'organ'
p2244
sI2258
S'comfortable'
p2245
sI2259
S'oily'
p2246
sI2260
S'fat'
p2247
sI2261
S'jovial'
p2248
sI2262
S'yo'
p2249
sI2263
S'ho'
p2250
sI2264
S'dick'
p2251
sI2265
S'grown'
p2252
sI2266
S'briskly'
p2253
sI2267
S"fellow-'prentice"
p2254
sI2268
S'wilkins'
p2255
sI2269
S'shutters'
p2256
sI2270
S'clap'
p2257
sI2271
S'jack'
p2258
sI2272
S'robinson'
p2259
sI2273
S'fellows'
p2260
sI2274
S'charged'
p2261
sI2275
S'places'
p2262
sI2276
S'barred'
p2263
sI2277
S'pinned'
p2264
sI2278
S'nine'
p2265
sI2279
S'panting'
p2266
sI2280
S'race-horses'
p2267
sI2281
S'hilli-ho'
p2268
sI2282
S'skipping'
p2269
sI2283
S'agility'
p2270
sI2284
S'lads'
p2271
sI2285
S'lots'
p2272
sI2286
S'chirrup'
p2273
sI2287
S'cleared'
p2274
sI2288
S'movable'
p2275
sI2289
S'packed'
p2276
sI2290
S'dismissed'
p2277
sI2291
S'public'
p2278
sI2292
S'evermore'
p2279
sI2293
S'swept'
p2280
sI2294
S'watered'
p2281
sI2295
S'lamps'
p2282
sI2296
S'heaped'
p2283
sI2297
S'snug'
p2284
sI2298
S'dry'
p2285
sI2299
S'ball-room'
p2286
sI2300
S'fiddler'
p2287
sI2301
S'music-book'
p2288
sI2302
S'lofty'
p2289
sI2303
S'orchestra'
p2290
sI2304
S'tuned'
p2291
sI2305
S'stomachaches'
p2292
sI2306
S'mrs.'
p2293
sI2307
S'substantial'
p2294
sI2308
S'smile'
p2295
sI2309
S'miss'
p2296
sI2310
S'fezziwigs'
p2297
sI2311
S'beaming'
p2298
sI2312
S'lovable'
p2299
sI2313
S'followers'
p2300
sI2314
S'employed'
p2301
sI2315
S'housemaid'
p2302
sI2316
S'cousin'
p2303
sI2317
S'baker'
p2304
sI2318
S'cook'
p2305
sI2319
S'milkman'
p2306
sI2320
S'suspected'
p2307
sI2321
S'board'
p2308
sI2322
S'trying'
p2309
sI2323
S'hide'
p2310
sI2324
S'proved'
p2311
sI2325
S'ears'
p2312
sI2326
S'pulled'
p2313
sI2327
S'mistress'
p2314
sI2328
S'shyly'
p2315
sI2329
S'boldly'
p2316
sI2330
S'gracefully'
p2317
sI2331
S'awkwardly'
p2318
sI2332
S'pushing'
p2319
sI2333
S'pulling'
p2320
sI2334
S'couple'
p2321
sI2335
S'various'
p2322
sI2336
S'stages'
p2323
sI2337
S'affectionate'
p2324
sI2338
S'grouping'
p2325
sI2339
S'couples'
p2326
sI2340
S'bottom'
p2327
sI2341
S'result'
p2328
sI2342
S'dance'
p2329
sI2343
S'plunged'
p2330
sI2344
S'pot'
p2331
sI2345
S'porter'
p2332
sI2346
S'especially'
p2333
sI2347
S'scorning'
p2334
sI2348
S'reappearance'
p2335
sI2349
S'dancers'
p2336
sI2350
S'exhausted'
p2337
sI2351
S'shutter'
p2338
sI2352
S'bran-new'
p2339
sI2353
S'perish'
p2340
sI2354
S'dances'
p2341
sI2355
S'forfeits'
p2342
sI2356
S'negus'
p2343
sI2357
S'roast'
p2344
sI2358
S'mince-pies'
p2345
sI2359
S'beer'
p2346
sI2360
S'effect'
p2347
sI2361
S'artful'
p2348
sI2362
S'dog'
p2349
sI2363
S'roger'
p2350
sI2364
S'de'
p2351
sI2365
S'coverley'
p2352
sI2366
S'stiff'
p2353
sI2367
S'trifled'
p2354
sI2368
S'_would_'
p2355
sI2369
S'notion'
p2356
sI2370
S'twice'
p2357
sI2371
S'ah'
p2358
sI2372
S'match'
p2359
sI2373
S'_her_'
p2360
sI2374
S'worthy'
p2361
sI2375
S'term'
p2362
sI2376
S'praise'
p2363
sI2377
S'higher'
p2364
sI2378
S'use'
p2365
sI2379
S'positive'
p2366
sI2380
S'issue'
p2367
sI2381
S'calves'
p2368
sI2382
S'shone'
p2369
sI2383
S'moons'
p2370
sI2384
S'advance'
p2371
sI2385
S'bow'
p2372
sI2386
S'curtsy'
p2373
sI2387
S'cork-screw'
p2374
sI2388
S'thread-the-needle'
p2375
sI2389
S'deftly'
p2376
sI2390
S'wink'
p2377
sI2391
S'stagger'
p2378
sI2392
S'eleven'
p2379
sI2393
S'domestic'
p2380
sI2394
S'ball'
p2381
sI2395
S'stations'
p2382
sI2396
S'individually'
p2383
sI2397
S'wished'
p2384
sI2398
S'everybody'
p2385
sI2399
S'retired'
p2386
sI2400
S"'prentices"
p2387
sI2401
S'counter'
p2388
sI2402
S'back-shop'
p2389
sI2403
S'acted'
p2390
sI2404
S'wits'
p2391
sI2405
S'soul'
p2392
sI2406
S'scene'
p2393
sI2407
S'corroborated'
p2394
sI2408
S'enjoyed'
p2395
sI2409
S'underwent'
p2396
sI2410
S'agitation'
p2397
sI2411
S'burnt'
p2398
sI2412
S'silly'
p2399
sI2413
S'folks'
p2400
sI2414
S'gratitude'
p2401
sI2415
S'echoed'
p2402
sI2416
S'listen'
p2403
sI2417
S'apprentices'
p2404
sI2418
S'spent'
p2405
sI2419
S'pounds'
p2406
sI2420
S'deserves'
p2407
sI2421
S'remark'
p2408
sI2422
S'speaking'
p2409
sI2423
S'render'
p2410
sI2424
S'unhappy'
p2411
sI2425
S'service'
p2412
sI2426
S'burdensome'
p2413
sI2427
S'toil'
p2414
sI2428
S'lies'
p2415
sI2429
S'insignificant'
p2416
sI2430
S'add'
p2417
sI2431
S'gives'
p2418
sI2432
S'fortune'
p2419
sI2433
S'insisted'
p2420
sI2434
S'able'
p2421
sI2435
S'utterance'
p2422
sI2436
S'grows'
p2423
sI2437
S'immediate'
p2424
sI2438
S'prime'
p2425
sI2439
S'harsh'
p2426
sI2440
S'rigid'
p2427
sI2441
S'later'
p2428
sI2442
S'signs'
p2429
sI2443
S'avarice'
p2430
sI2444
S'eager'
p2431
sI2445
S'greedy'
p2432
sI2446
S'motion'
p2433
sI2447
S'showed'
p2434
sI2448
S'passion'
p2435
sI2449
S'root'
p2436
sI2450
S'mourning'
p2437
sI2451
S'idol'
p2438
sI2452
S'displaced'
p2439
sI2453
S'grieve'
p2440
sI2454
S'rejoined'
p2441
sI2455
S'golden'
p2442
sI2456
S'even-handed'
p2443
sI2457
S'dealing'
p2444
sI2458
S'poverty'
p2445
sI2459
S'professes'
p2446
sI2460
S'condemn'
p2447
sI2461
S'severity'
p2448
sI2462
S'pursuit'
p2449
sI2463
S'wealth'
p2450
sI2464
S'merged'
p2451
sI2465
S'sordid'
p2452
sI2466
S'reproach'
p2453
sI2467
S'nobler'
p2454
sI2468
S'aspirations'
p2455
sI2469
S'gain'
p2456
sI2470
S'engrosses'
p2457
sI2471
S'retorted'
p2458
sI2472
S'wiser'
p2459
sI2473
S'contract'
p2460
sI2474
S'content'
p2461
sI2475
S'improve'
p2462
sI2476
S'patient'
p2463
sI2477
S'industry'
p2464
sI2478
S'_are_'
p2465
sI2479
S'impatiently'
p2466
sI2480
S'tells'
p2467
sI2481
S'fraught'
p2468
sI2482
S'_have_'
p2469
sI2483
S'release'
p2470
sI2484
S'altered'
p2471
sI2485
S'worth'
p2472
sI2486
S'value'
p2473
sI2487
S'seek'
p2474
sI2488
S'try'
p2475
sI2489
S'win'
p2476
sI2490
S'yield'
p2477
sI2491
S'justice'
p2478
sI2492
S'supposition'
p2479
sI2493
S'struggle'
p2480
sI2494
S'gladly'
p2481
sI2495
S'knows'
p2482
sI2496
S'_i_'
p2483
sI2497
S'learned'
p2484
sI2498
S'irresistible'
p2485
sI2499
S'to-day'
p2486
sI2500
S'yesterday'
p2487
sI2501
S'dowerless'
p2488
sI2502
S'confidence'
p2489
sI2503
S'weigh'
p2490
sI2504
S'choosing'
p2491
sI2505
S'false'
p2492
sI2506
S'guiding'
p2493
sI2507
S'principle'
p2494
sI2508
S'repentance'
p2495
sI2509
S'follow'
p2496
sI2510
S'memory'
p2497
sI2511
S'pain'
p2498
sI2512
S'brief'
p2499
sI2513
S'dismiss'
p2500
sI2514
S'unprofitable'
p2501
sI2515
S'chosen'
p2502
sI2516
S'show'
p2503
sI2517
S'delight'
p2504
sI2518
S'relentless'
p2505
sI2519
S'pinioned'
p2506
sI2520
S'forced'
p2507
sI2521
S'observe'
p2508
sI2522
S'comely'
p2509
sI2523
S'matron'
p2510
sI2524
S'daughter'
p2511
sI2525
S'tumultuous'
p2512
sI2526
S'unlike'
p2513
sI2527
S'celebrated'
p2514
sI2528
S'herd'
p2515
sI2529
S'poem'
p2516
sI2530
S'forty'
p2517
sI2531
S'conducting'
p2518
sI2532
S'themselves'
p2519
sI2533
S'consequences'
p2520
sI2534
S'uproarious'
p2521
sI2535
S'belief'
p2522
sI2536
S'contrary'
p2523
sI2537
S'mother'
p2524
sI2538
S'heartily'
p2525
sI2539
S'beginning'
p2526
sI2540
S'mingle'
p2527
sI2541
S'sports'
p2528
sI2542
S'pillaged'
p2529
sI2543
S'brigands'
p2530
sI2544
S'ruthlessly'
p2531
sI2545
S'rude'
p2532
sI2546
S'crushed'
p2533
sI2547
S'braided'
p2534
sI2548
S'torn'
p2535
sI2549
S'precious'
p2536
sI2550
S'shoe'
p2537
sI2551
S'plucked'
p2538
sI2552
S'measuring'
p2539
sI2553
S'sport'
p2540
sI2554
S'punishment'
p2541
sI2555
S'dearly'
p2542
sI2556
S'questioned'
p2543
sI2557
S'lashes'
p2544
sI2558
S'downcast'
p2545
sI2559
S'blush'
p2546
sI2560
S'loose'
p2547
sI2561
S'waves'
p2548
sI2562
S'inch'
p2549
sI2563
S'keepsake'
p2550
sI2564
S'price'
p2551
sI2565
S'confess'
p2552
sI2566
S'lightest'
p2553
sI2567
S'licence'
p2554
sI2568
S'knocking'
p2555
sI2569
S'rush'
p2556
sI2570
S'ensued'
p2557
sI2571
S'plundered'
p2558
sI2572
S'centre'
p2559
sI2573
S'flushed'
p2560
sI2574
S'boisterous'
p2561
sI2575
S'group'
p2562
sI2576
S'greet'
p2563
sI2577
S'attended'
p2564
sI2578
S'toys'
p2565
sI2579
S'presents'
p2566
sI2580
S'shouting'
p2567
sI2581
S'struggling'
p2568
sI2582
S'onslaught'
p2569
sI2583
S'defenceless'
p2570
sI2584
S'scaling'
p2571
sI2585
S'chairs'
p2572
sI2586
S'ladders'
p2573
sI2587
S'dive'
p2574
sI2588
S'despoil'
p2575
sI2589
S'brown-paper'
p2576
sI2590
S'parcels'
p2577
sI2591
S'hug'
p2578
sI2592
S'pummel'
p2579
sI2593
S'kick'
p2580
sI2594
S'irrepressible'
p2581
sI2595
S'affection'
p2582
sI2596
S'shouts'
p2583
sI2597
S'development'
p2584
sI2598
S'package'
p2585
sI2599
S'received'
p2586
sI2600
S'announcement'
p2587
sI2601
S'doll'
p2588
sI2602
S'frying-pan'
p2589
sI2603
S'mouth'
p2590
sI2604
S'fictitious'
p2591
sI2605
S'turkey'
p2592
sI2606
S'glued'
p2593
sI2607
S'wooden'
p2594
sI2608
S'platter'
p2595
sI2609
S'immense'
p2596
sI2610
S'alarm'
p2597
sI2611
S'joy'
p2598
sI2612
S'indescribable'
p2599
sI2613
S'alike'
p2600
sI2614
S'degrees'
p2601
sI2615
S'emotions'
p2602
sI2616
S'stair'
p2603
sI2617
S'subsided'
p2604
sI2618
S'attentively'
p2605
sI2619
S'leaning'
p2606
sI2620
S'fondly'
p2607
sI2621
S'fireside'
p2608
sI2622
S'graceful'
p2609
sI2623
S'promise'
p2610
sI2624
S'spring-time'
p2611
sI2625
S'haggard'
p2612
sI2626
S'dim'
p2613
sI2627
S'belle'
p2614
sI2628
S'husband'
p2615
sI2629
S'yours'
p2616
sI2630
S'guess'
p2617
sI2631
S'tut'
p2618
sI2632
S'inside'
p2619
sI2633
S'remove'
p2620
sI2634
S'blame'
p2621
sI2635
S'wrestled'
p2622
sI2636
S'haunt'
p2623
sI2637
S'longer'
p2624
sI2638
S'resistance'
p2625
sI2639
S'adversary'
p2626
sI2640
S'burning'
p2627
sI2641
S'dimly'
p2628
sI2642
S'connecting'
p2629
sI2643
S'pressed'
p2630
sI2644
S'beneath'
p2631
sI2645
S'streamed'
p2632
sI2646
S'flood'
p2633
sI2647
S'overcome'
p2634
sI2648
S'drowsiness'
p2635
sI2649
S'further'
p2636
sI2650
S'parting'
p2637
sI2651
S'squeeze'
p2638
sI2652
S'relaxed'
p2639
sI2653
S'barely'
p2640
sI2654
S'reel'
p2641
sI2655
S'sank'
p2642
sI2656
S'awaking'
p2643
sI2657
S'prodigiously'
p2644
sI2658
S'tough'
p2645
sI2659
S'snore'
p2646
sI2660
S'restored'
p2647
sI2661
S'nick'
p2648
sI2662
S'especial'
p2649
sI2663
S'holding'
p2650
sI2664
S'conference'
p2651
sI2665
S'messenger'
p2652
sI2666
S'dispatched'
p2653
sI2667
S'intervention'
p2654
sI2668
S'uncomfortably'
p2655
sI2669
S'draw'
p2656
sI2670
S'lying'
p2657
sI2671
S'established'
p2658
sI2672
S'look-out'
p2659
sI2673
S'challenge'
p2660
sI2674
S'nervous'
p2661
sI2675
S'free-and-easy'
p2662
sI2676
S'plume'
p2663
sI2677
S'acquainted'
p2664
sI2678
S'move'
p2665
sI2679
S'equal'
p2666
sI2680
S'express'
p2667
sI2681
S'range'
p2668
sI2682
S'capacity'
p2669
sI2683
S'adventure'
p2670
sI2684
S'pitch-and-toss'
p2671
sI2685
S'manslaughter'
p2672
sI2686
S'extremes'
p2673
sI2687
S'tolerably'
p2674
sI2688
S'venturing'
p2675
sI2689
S'hardily'
p2676
sI2690
S'calling'
p2677
sI2691
S'field'
p2678
sI2692
S'appearances'
p2679
sI2693
S'rhinoceros'
p2680
sI2694
S'astonished'
p2681
sI2695
S'prepared'
p2682
sI2696
S'consequently'
p2683
sI2697
S'violent'
p2684
sI2698
S'fit'
p2685
sI2699
S'minutes'
p2686
sI2700
S'ten'
p2687
sI2701
S'core'
p2688
sI2702
S'proclaimed'
p2689
sI2703
S'powerless'
p2690
sI2704
S'meant'
p2691
sI2705
S'apprehensive'
p2692
sI2706
S'interesting'
p2693
sI2707
S'spontaneous'
p2694
sI2708
S'combustion'
p2695
sI2709
S'consolation'
p2696
sI2710
S'however'
p2697
sI2711
S'predicament'
p2698
sI2712
S'ought'
p2699
sI2713
S'source'
p2700
sI2714
S'adjoining'
p2701
sI2715
S'whence'
p2702
sI2716
S'tracing'
p2703
sI2717
S'shine'
p2704
sI2718
S'shuffled'
p2705
sI2719
S'enter'
p2706
sI2720
S'obeyed'
p2707
sI2721
S'surprising'
p2708
sI2722
S'transformation'
p2709
sI2723
S'living'
p2710
sI2724
S'perfect'
p2711
sI2725
S'grove'
p2712
sI2726
S'gleaming'
p2713
sI2727
S'glistened'
p2714
sI2728
S'mistletoe'
p2715
sI2729
S'ivy'
p2716
sI2730
S'reflected'
p2717
sI2731
S'mirrors'
p2718
sI2732
S'scattered'
p2719
sI2733
S'roaring'
p2720
sI2734
S'chimney'
p2721
sI2735
S'petrifaction'
p2722
sI2736
S'hearth'
p2723
sI2737
S'throne'
p2724
sI2738
S'turkeys'
p2725
sI2739
S'geese'
p2726
sI2740
S'game'
p2727
sI2741
S'poultry'
p2728
sI2742
S'brawn'
p2729
sI2743
S'joints'
p2730
sI2744
S'sucking-pigs'
p2731
sI2745
S'wreaths'
p2732
sI2746
S'sausages'
p2733
sI2747
S'plum-puddings'
p2734
sI2748
S'barrels'
p2735
sI2749
S'oysters'
p2736
sI2750
S'red-hot'
p2737
sI2751
S'chestnuts'
p2738
sI2752
S'cherry-cheeked'
p2739
sI2753
S'apples'
p2740
sI2754
S'juicy'
p2741
sI2755
S'oranges'
p2742
sI2756
S'luscious'
p2743
sI2757
S'pears'
p2744
sI2758
S'twelfth-cakes'
p2745
sI2759
S'seething'
p2746
sI2760
S'bowls'
p2747
sI2761
S'punch'
p2748
sI2762
S'delicious'
p2749
sI2763
S'steam'
p2750
sI2764
S'couch'
p2751
sI2765
S'giant'
p2752
sI2766
S'bore'
p2753
sI2767
S'glowing'
p2754
sI2768
S'torch'
p2755
sI2769
S'horn'
p2756
sI2770
S'shed'
p2757
sI2771
S'timidly'
p2758
sI2772
S'dogged'
p2759
sI2773
S'meet'
p2760
sI2774
S'clothed'
p2761
sI2775
S'simple'
p2762
sI2776
S'mantle'
p2763
sI2777
S'bordered'
p2764
sI2778
S'fur'
p2765
sI2779
S'garment'
p2766
sI2780
S'loosely'
p2767
sI2781
S'disdaining'
p2768
sI2782
S'warded'
p2769
sI2783
S'concealed'
p2770
sI2784
S'artifice'
p2771
sI2785
S'observable'
p2772
sI2786
S'ample'
p2773
sI2787
S'folds'
p2774
sI2788
S'covering'
p2775
sI2789
S'wreath'
p2776
sI2790
S'shining'
p2777
sI2791
S'icicles'
p2778
sI2792
S'curls'
p2779
sI2793
S'genial'
p2780
sI2794
S'sparkling'
p2781
sI2795
S'cheery'
p2782
sI2796
S'unconstrained'
p2783
sI2797
S'demeanour'
p2784
sI2798
S'joyful'
p2785
sI2799
S'antique'
p2786
sI2800
S'scabbard'
p2787
sI2801
S'sword'
p2788
sI2802
S'sheath'
p2789
sI2803
S'eaten'
p2790
sI2804
S'rust'
p2791
sI2805
S'meaning'
p2792
sI2806
S'elder'
p2793
sI2807
S'brothers'
p2794
sI2808
S'born'
p2795
sI2809
S'eighteen'
p2796
sI2810
S'hundred'
p2797
sI2811
S'tremendous'
p2798
sI2812
S'provide'
p2799
sI2813
S'submissively'
p2800
sI2814
S'compulsion'
p2801
sI2815
S'learnt'
p2802
sI2816
S'lesson'
p2803
sI2817
S'aught'
p2804
sI2818
S'teach'
p2805
sI2819
S'profit'
p2806
sI2820
S'pigs'
p2807
sI2821
S'pies'
p2808
sI2822
S'puddings'
p2809
sI2823
S'fruit'
p2810
sI2824
S'severe'
p2811
sI2825
S'rough'
p2812
sI2826
S'brisk'
p2813
sI2827
S'unpleasant'
p2814
sI2828
S'front'
p2815
sI2829
S'dwellings'
p2816
sI2830
S'tops'
p2817
sI2831
S'mad'
p2818
sI2832
S'plumping'
p2819
sI2833
S'splitting'
p2820
sI2834
S'artificial'
p2821
sI2835
S'snow-storms'
p2822
sI2836
S'house-fronts'
p2823
sI2837
S'blacker'
p2824
sI2838
S'contrasting'
p2825
sI2839
S'sheet'
p2826
sI2840
S'roofs'
p2827
sI2841
S'dirtier'
p2828
sI2842
S'deposit'
p2829
sI2843
S'ploughed'
p2830
sI2844
S'furrows'
p2831
sI2845
S'waggons'
p2832
sI2846
S'crossed'
p2833
sI2847
S'recrossed'
p2834
sI2848
S'branched'
p2835
sI2849
S'intricate'
p2836
sI2850
S'channels'
p2837
sI2851
S'trace'
p2838
sI2852
S'thick'
p2839
sI2853
S'mud'
p2840
sI2854
S'icy'
p2841
sI2855
S'sky'
p2842
sI2856
S'shortest'
p2843
sI2857
S'choked'
p2844
sI2858
S'thawed'
p2845
sI2859
S'heavier'
p2846
sI2860
S'particles'
p2847
sI2861
S'descended'
p2848
sI2862
S'shower'
p2849
sI2863
S'sooty'
p2850
sI2864
S'atoms'
p2851
sI2865
S'chimneys'
p2852
sI2866
S'britain'
p2853
sI2867
S'caught'
p2854
sI2868
S'blazing'
p2855
sI2869
S'climate'
p2856
sI2870
S'cheerfulness'
p2857
sI2871
S'clearest'
p2858
sI2872
S'brightest'
p2859
sI2873
S'diffuse'
p2860
sI2874
S'shovelling'
p2861
sI2875
S'housetops'
p2862
sI2876
S'parapets'
p2863
sI2877
S'exchanging'
p2864
sI2878
S'snowball'
p2865
sI2879
S'better-natured'
p2866
sI2880
S'missile'
p2867
sI2881
S'wordy'
p2868
sI2882
S'jest'
p2869
sI2883
S'fruiterers'
p2870
sI2884
S'radiant'
p2871
sI2885
S'glory'
p2872
sI2886
S'pot-bellied'
p2873
sI2887
S'shaped'
p2874
sI2888
S'waistcoats'
p2875
sI2889
S'lolling'
p2876
sI2890
S'tumbling'
p2877
sI2891
S'apoplectic'
p2878
sI2892
S'opulence'
p2879
sI2893
S'brown-faced'
p2880
sI2894
S'broad-girthed'
p2881
sI2895
S'spanish'
p2882
sI2896
S'onions'
p2883
sI2897
S'fatness'
p2884
sI2898
S'growth'
p2885
sI2899
S'friars'
p2886
sI2900
S'shelves'
p2887
sI2901
S'wanton'
p2888
sI2902
S'slyness'
p2889
sI2903
S'girls'
p2890
sI2904
S'demurely'
p2891
sI2905
S'hung-up'
p2892
sI2906
S'clustered'
p2893
sI2907
S'blooming'
p2894
sI2908
S'pyramids'
p2895
sI2909
S'bunches'
p2896
sI2910
S'grapes'
p2897
sI2911
S'shopkeepers'
p2898
sI2912
S'dangle'
p2899
sI2913
S'conspicuous'
p2900
sI2914
S'hooks'
p2901
sI2915
S'mouths'
p2902
sI2916
S'gratis'
p2903
sI2917
S'piles'
p2904
sI2918
S'filberts'
p2905
sI2919
S'recalling'
p2906
sI2920
S'fragrance'
p2907
sI2921
S'walks'
p2908
sI2922
S'woods'
p2909
sI2923
S'shufflings'
p2910
sI2924
S'norfolk'
p2911
sI2925
S'biffins'
p2912
sI2926
S'squab'
p2913
sI2927
S'swarthy'
p2914
sI2928
S'setting'
p2915
sI2929
S'lemons'
p2916
sI2930
S'compactness'
p2917
sI2931
S'persons'
p2918
sI2932
S'urgently'
p2919
sI2933
S'entreating'
p2920
sI2934
S'beseeching'
p2921
sI2935
S'paper'
p2922
sI2936
S'bags'
p2923
sI2937
S'choice'
p2924
sI2938
S'fruits'
p2925
sI2939
S'bowl'
p2926
sI2940
S'stagnant-blooded'
p2927
sI2941
S'gasping'
p2928
sI2942
S'passionless'
p2929
sI2943
S'gaps'
p2930
sI2944
S'glimpses'
p2931
sI2945
S'scales'
p2932
sI2946
S'twine'
p2933
sI2947
S'roller'
p2934
sI2948
S'company'
p2935
sI2949
S'canisters'
p2936
sI2950
S'rattled'
p2937
sI2951
S'juggling'
p2938
sI2952
S'tricks'
p2939
sI2953
S'blended'
p2940
sI2954
S'scents'
p2941
sI2955
S'tea'
p2942
sI2956
S'coffee'
p2943
sI2957
S'grateful'
p2944
sI2958
S'raisins'
p2945
sI2959
S'plentiful'
p2946
sI2960
S'rare'
p2947
sI2961
S'almonds'
p2948
sI2962
S'sticks'
p2949
sI2963
S'cinnamon'
p2950
sI2964
S'spices'
p2951
sI2965
S'candied'
p2952
sI2966
S'caked'
p2953
sI2967
S'spotted'
p2954
sI2968
S'molten'
p2955
sI2969
S'sugar'
p2956
sI2970
S'coldest'
p2957
sI2971
S'lookers-on'
p2958
sI2972
S'faint'
p2959
sI2973
S'subsequently'
p2960
sI2974
S'bilious'
p2961
sI2975
S'figs'
p2962
sI2976
S'moist'
p2963
sI2977
S'pulpy'
p2964
sI2978
S'french'
p2965
sI2979
S'plums'
p2966
sI2980
S'blushed'
p2967
sI2981
S'modest'
p2968
sI2982
S'tartness'
p2969
sI2983
S'highly-decorated'
p2970
sI2984
S'boxes'
p2971
sI2985
S'customers'
p2972
sI2986
S'hurried'
p2973
sI2987
S'hopeful'
p2974
sI2988
S'tumbled'
p2975
sI2989
S'crashing'
p2976
sI2990
S'wicker'
p2977
sI2991
S'wildly'
p2978
sI2992
S'purchases'
p2979
sI2993
S'fetch'
p2980
sI2994
S'committed'
p2981
sI2995
S'mistakes'
p2982
sI2996
S'grocer'
p2983
sI2997
S'frank'
p2984
sI2998
S'polished'
p2985
sI2999
S'aprons'
p2986
sI3000
S'worn'
p2987
sI3001
S'general'
p2988
sI3002
S'inspection'
p2989
sI3003
S'daws'
p2990
sI3004
S'peck'
p2991
sI3005
S'steeples'
p2992
sI3006
S'chapel'
p2993
sI3007
S'flocking'
p2994
sI3008
S'clothes'
p2995
sI3009
S'gayest'
p2996
sI3010
S'emerged'
p2997
sI3011
S'scores'
p2998
sI3012
S'by-streets'
p2999
sI3013
S'lanes'
p3000
sI3014
S'nameless'
p3001
sI3015
S'turnings'
p3002
sI3016
S'innumerable'
p3003
sI3017
S'carrying'
p3004
sI3018
S'dinners'
p3005
sI3019
S'bakers'
p3006
sI3020
S'revellers'
p3007
sI3021
S'interest'
p3008
sI3022
S'doorway'
p3009
sI3023
S'covers'
p3010
sI3024
S'bearers'
p3011
sI3025
S'sprinkled'
p3012
sI3026
S'incense'
p3013
sI3027
S'dinner-carriers'
p3014
sI3028
S'jostled'
p3015
sI3029
S'drops'
p3016
sI3030
S'good-humour'
p3017
sI3031
S'directly'
p3018
sI3032
S'shame'
p3019
sI3033
S'christmas-day'
p3020
sI3034
S'shadowing'
p3021
sI3035
S'progress'
p3022
sI3036
S'cooking'
p3023
sI3037
S'blotch'
p3024
sI3038
S'wet'
p3025
sI3039
S'peculiar'
p3026
sI3040
S'flavour'
p3027
sI3041
S'sprinkle'
p3028
sI3042
S'needs'
p3029
sI3043
S'beings'
p3030
sI3044
S'worlds'
p3031
sI3045
S'cramp'
p3032
sI3046
S'innocent'
p3033
sI3047
S'enjoyment'
p3034
sI3048
S'deprive'
p3035
sI3049
S'dining'
p3036
sI3050
S'seventh'
p3037
sI3051
S'forgive'
p3038
sI3052
S'claim'
p3039
sI3053
S'pride'
p3040
sI3054
S'hatred'
p3041
sI3055
S'envy'
p3042
sI3056
S'bigotry'
p3043
sI3057
S'selfishness'
p3044
sI3058
S'kith'
p3045
sI3059
S'kin'
p3046
sI3060
S'doings'
p3047
sI3061
S'suburbs'
p3048
sI3062
S'gigantic'
p3049
sI3063
S'size'
p3050
sI3064
S'accommodate'
p3051
sI3065
S'ease'
p3052
sI3066
S'showing'
p3053
sI3067
S'hearty'
p3054
sI3068
S'bob'
p3055
sI3069
S'cratchit'
p3056
sI3070
S'dwelling'
p3057
sI3071
S'sprinklings'
p3058
sI3072
S'pocketed'
p3059
sI3073
S'saturdays'
p3060
sI3074
S'copies'
p3061
sI3075
S'four-roomed'
p3062
sI3076
S'dressed'
p3063
sI3077
S'twice-turned'
p3064
sI3078
S'gown'
p3065
sI3079
S'brave'
p3066
sI3080
S'ribbons'
p3067
sI3081
S'goodly'
p3068
sI3082
S'sixpence'
p3069
sI3083
S'cloth'
p3070
sI3084
S'assisted'
p3071
sI3085
S'belinda'
p3072
sI3086
S'peter'
p3073
sI3087
S'fork'
p3074
sI3088
S'potatoes'
p3075
sI3089
S'corners'
p3076
sI3090
S'shirt'
p3077
sI3091
S'collar'
p3078
sI3092
S'private'
p3079
sI3093
S'property'
p3080
sI3094
S'conferred'
p3081
sI3095
S'heir'
p3082
sI3096
S'gallantly'
p3083
sI3097
S'attired'
p3084
sI3098
S'yearned'
p3085
sI3099
S'linen'
p3086
sI3100
S'fashionable'
p3087
sI3101
S'parks'
p3088
sI3102
S'cratchits'
p3089
sI3103
S'tearing'
p3090
sI3104
S'screaming'
p3091
sI3105
S'smelt'
p3092
sI3106
S'goose'
p3093
sI3107
S'basking'
p3094
sI3108
S'luxurious'
p3095
sI3109
S'sage'
p3096
sI3110
S'onion'
p3097
sI3111
S'danced'
p3098
sI3112
S'exalted'
p3099
sI3113
S'skies'
p3100
sI3114
S'proud'
p3101
sI3115
S'collars'
p3102
sI3116
S'bubbling'
p3103
sI3117
S'lid'
p3104
sI3118
S'peeled'
p3105
sI3119
S'tim'
p3106
sI3120
S'martha'
p3107
sI3121
S'war'
p3108
sI3122
S'appearing'
p3109
sI3123
S'hurrah'
p3110
sI3124
S'_such_'
p3111
sI3125
S'shawl'
p3112
sI3126
S'bonnet'
p3113
sI3127
S'officious'
p3114
sI3128
S'zeal'
p3115
sI3129
S'finish'
p3116
sI3130
S'ye'
p3117
sI3131
S'everywhere'
p3118
sI3132
S'hid'
p3119
sI3133
S'herself'
p3120
sI3134
S'exclusive'
p3121
sI3135
S'fringe'
p3122
sI3136
S'threadbare'
p3123
sI3137
S'darned'
p3124
sI3138
S'brushed'
p3125
sI3139
S'seasonable'
p3126
sI3140
S'shoulder'
p3127
sI3141
S'alas'
p3128
sI3142
S'crutch'
p3129
sI3143
S'limbs'
p3130
sI3144
S'supported'
p3131
sI3145
S'frame'
p3132
sI3146
S'declension'
p3133
sI3147
S'horse'
p3134
sI3148
S'rampant'
p3135
sI3149
S'disappointed'
p3136
sI3150
S'prematurely'
p3137
sI3151
S'hustled'
p3138
sI3152
S'wash-house'
p3139
sI3153
S'copper'
p3140
sI3154
S'behave'
p3141
sI3155
S'rallied'
p3142
sI3156
S'credulity'
p3143
sI3157
S'hugged'
p3144
sI3158
S'gets'
p3145
sI3159
S'thinks'
p3146
sI3160
S'hoped'
p3147
sI3161
S'cripple'
p3148
sI3162
S'lame'
p3149
sI3163
S'active'
p3150
sI3164
S'escorted'
p3151
sI3165
S'cuffs'
p3152
sI3166
S'capable'
p3153
sI3167
S'shabby'
p3154
sI3168
S'compounded'
p3155
sI3169
S'mixture'
p3156
sI3170
S'jug'
p3157
sI3171
S'gin'
p3158
sI3172
S'simmer'
p3159
sI3173
S'ubiquitous'
p3160
sI3174
S'procession'
p3161
sI3175
S'bustle'
p3162
sI3176
S'rarest'
p3163
sI3177
S'birds'
p3164
sI3178
S'feathered'
p3165
sI3179
S'swan'
p3166
sI3180
S'beforehand'
p3167
sI3181
S'hissing'
p3168
sI3182
S'mashed'
p3169
sI3183
S'incredible'
p3170
sI3184
S'sweetened'
p3171
sI3185
S'apple'
p3172
sI3186
S'sauce'
p3173
sI3187
S'dusted'
p3174
sI3188
S'plates'
p3175
sI3189
S'forgetting'
p3176
sI3190
S'mounting'
p3177
sI3191
S'guard'
p3178
sI3192
S'posts'
p3179
sI3193
S'crammed'
p3180
sI3194
S'spoons'
p3181
sI3195
S'lest'
p3182
sI3196
S'shriek'
p3183
sI3197
S'turn'
p3184
sI3198
S'helped'
p3185
sI3199
S'dishes'
p3186
sI3200
S'grace'
p3187
sI3201
S'breathless'
p3188
sI3202
S'carving-knife'
p3189
sI3203
S'plunge'
p3190
sI3204
S'long-expected'
p3191
sI3205
S'gush'
p3192
sI3206
S'stuffing'
p3193
sI3207
S'issued'
p3194
sI3208
S'murmur'
p3195
sI3209
S'arose'
p3196
sI3210
S'handle'
p3197
sI3211
S'knife'
p3198
sI3212
S'feebly'
p3199
sI3213
S'cooked'
p3200
sI3214
S'tenderness'
p3201
sI3215
S'cheapness'
p3202
sI3216
S'themes'
p3203
sI3217
S'universal'
p3204
sI3218
S'admiration'
p3205
sI3219
S'eked'
p3206
sI3220
S'sufficient'
p3207
sI3221
S'surveying'
p3208
sI3222
S'atom'
p3209
sI3223
S'bone'
p3210
sI3224
S'dish'
p3211
sI3225
S'ate'
p3212
sI3226
S'youngest'
p3213
sI3227
S'steeped'
p3214
sI3228
S'witnesses'
p3215
sI3229
S'break'
p3216
sI3230
S'somebody'
p3217
sI3231
S'back-yard'
p3218
sI3232
S'stolen'
p3219
sI3233
S'sorts'
p3220
sI3234
S'horrors'
p3221
sI3235
S'supposed'
p3222
sI3236
S'hallo'
p3223
sI3237
S'smell'
p3224
sI3238
S'washing-day'
p3225
sI3239
S'eating-house'
p3226
sI3240
S'pastrycook'
p3227
sI3241
S'laundress'
p3228
sI3242
S'smiling'
p3229
sI3243
S'proudly'
p3230
sI3244
S'speckled'
p3231
sI3245
S'cannon-ball'
p3232
sI3246
S'half-a-quartern'
p3233
sI3247
S'ignited'
p3234
sI3248
S'brandy'
p3235
sI3249
S'bedight'
p3236
sI3250
S'calmly'
p3237
sI3251
S'regarded'
p3238
sI3252
S'greatest'
p3239
sI3253
S'success'
p3240
sI3254
S'achieved'
p3241
sI3255
S'marriage'
p3242
sI3256
S'doubts'
p3243
sI3257
S'flour'
p3244
sI3258
S'flat'
p3245
sI3259
S'heresy'
p3246
sI3260
S'hint'
p3247
sI3261
S'compound'
p3248
sI3262
S'considered'
p3249
sI3263
S'circle'
p3250
sI3264
S'display'
p3251
sI3265
S'tumblers'
p3252
sI3266
S'custard'
p3253
sI3267
S'cup'
p3254
sI3268
S'stuff'
p3255
sI3269
S'goblets'
p3256
sI3270
S'served'
p3257
sI3271
S'sputtered'
p3258
sI3272
S'noisily'
p3259
sI3273
S'proposed'
p3260
sI3274
S'dears'
p3261
sI3275
S're-echoed'
p3262
sI3276
S'loved'
p3263
sI3277
S'dreaded'
p3264
sI3278
S'vacant'
p3265
sI3279
S'seat'
p3266
sI3280
S'chimney-corner'
p3267
sI3281
S'carefully'
p3268
sI3282
S'preserved'
p3269
sI3283
S'remain'
p3270
sI3284
S'unaltered'
p3271
sI3285
S'future'
p3272
sI3286
S'spared'
p3273
sI3287
S'quoted'
p3274
sI3288
S'penitence'
p3275
sI3289
S'adamant'
p3276
sI3290
S'forbear'
p3277
sI3291
S'wicked'
p3278
sI3292
S'cant'
p3279
sI3293
S'discovered'
p3280
sI3294
S'decide'
p3281
sI3295
S'worthless'
p3282
sI3296
S'millions'
p3283
sI3297
S'insect'
p3284
sI3298
S'leaf'
p3285
sI3299
S'pronouncing'
p3286
sI3300
S'dust'
p3287
sI3301
S'bent'
p3288
sI3302
S'rebuke'
p3289
sI3303
S'cast'
p3290
sI3304
S'speedily'
p3291
sI3305
S'founder'
p3292
sI3306
S'feast'
p3293
sI3307
S'reddening'
p3294
sI3308
S'appetite'
p3295
sI3309
S'drinks'
p3296
sI3310
S'health'
p3297
sI3311
S'odious'
p3298
sI3312
S'stingy'
p3299
sI3313
S'unfeeling'
p3300
sI3314
S'robert'
p3301
sI3315
S'mild'
p3302
sI3316
S'drank'
p3303
sI3317
S'toast'
p3304
sI3318
S'proceedings'
p3305
sI3319
S'heartiness'
p3306
sI3320
S'twopence'
p3307
sI3321
S'ogre'
p3308
sI3322
S'dispelled'
p3309
sI3323
S'merrier'
p3310
sI3324
S'baleful'
p3311
sI3325
S'obtained'
p3312
sI3326
S'five-and-sixpence'
p3313
sI3327
S'weekly'
p3314
sI3328
S'tremendously'
p3315
sI3329
S'deliberating'
p3316
sI3330
S'investments'
p3317
sI3331
S'favour'
p3318
sI3332
S'receipt'
p3319
sI3333
S'bewildering'
p3320
sI3334
S'income'
p3321
sI3335
S'apprentice'
p3322
sI3336
S'milliner'
p3323
sI3337
S'stretch'
p3324
sI3338
S'abed'
p3325
sI3339
S'holiday'
p3326
sI3340
S'countess'
p3327
sI3341
S'tall'
p3328
sI3342
S'by-and-by'
p3329
sI3343
S'song'
p3330
sI3344
S'plaintive'
p3331
sI3345
S'sang'
p3332
sI3346
S'waterproof'
p3333
sI3347
S'scanty'
p3334
sI3348
S'likely'
p3335
sI3349
S'pawn-broker'
p3336
sI3350
S'pleased'
p3337
sI3351
S'contented'
p3338
sI3352
S'happier'
p3339
sI3353
S'snowing'
p3340
sI3354
S'fires'
p3341
sI3355
S'kitchens'
p3342
sI3356
S'parlours'
p3343
sI3357
S'flickering'
p3344
sI3358
S'preparations'
p3345
sI3359
S'cosy'
p3346
sI3360
S'baking'
p3347
sI3361
S'sisters'
p3348
sI3362
S'cousins'
p3349
sI3363
S'uncles'
p3350
sI3364
S'aunts'
p3351
sI3365
S'blinds'
p3352
sI3366
S'guests'
p3353
sI3367
S'assembling'
p3354
sI3368
S'hooded'
p3355
sI3369
S'fur-booted'
p3356
sI3370
S'tripped'
p3357
sI3371
S'neighbour'
p3358
sI3372
S'single'
p3359
sI3373
S'witches'
p3360
sI3374
S'judged'
p3361
sI3375
S'numbers'
p3362
sI3376
S'friendly'
p3363
sI3377
S'gatherings'
p3364
sI3378
S'welcome'
p3365
sI3379
S'expecting'
p3366
sI3380
S'piling'
p3367
sI3381
S'half-chimney'
p3368
sI3382
S'blessings'
p3369
sI3383
S'exulted'
p3370
sI3384
S'bared'
p3371
sI3385
S'breadth'
p3372
sI3386
S'palm'
p3373
sI3387
S'outpouring'
p3374
sI3388
S'harmless'
p3375
sI3389
S'mirth'
p3376
sI3390
S'reach'
p3377
sI3391
S'lamp-lighter'
p3378
sI3392
S'dotting'
p3379
sI3393
S'dusky'
p3380
sI3394
S'specks'
p3381
sI3395
S'spend'
p3382
sI3396
S'somewhere'
p3383
sI3397
S'kenned'
p3384
sI3398
S'desert'
p3385
sI3399
S'moor'
p3386
sI3400
S'masses'
p3387
sI3401
S'burial-place'
p3388
sI3402
S'giants'
p3389
sI3403
S'spread'
p3390
sI3404
S'wheresoever'
p3391
sI3405
S'listed'
p3392
sI3406
S'prisoner'
p3393
sI3407
S'moss'
p3394
sI3408
S'furze'
p3395
sI3409
S'coarse'
p3396
sI3410
S'rank'
p3397
sI3411
S'west'
p3398
sI3412
S'streak'
p3399
sI3413
S'fiery'
p3400
sI3414
S'desolation'
p3401
sI3415
S'sullen'
p3402
sI3416
S'frowning'
p3403
sI3417
S'darkest'
p3404
sI3418
S'miners'
p3405
sI3419
S'hut'
p3406
sI3420
S'swiftly'
p3407
sI3421
S'advanced'
p3408
sI3422
S'passing'
p3409
sI3423
S'assembled'
p3410
sI3424
S'generation'
p3411
sI3425
S'decked'
p3412
sI3426
S'attire'
p3413
sI3427
S'seldom'
p3414
sI3428
S'howling'
p3415
sI3429
S'barren'
p3416
sI3430
S'waste'
p3417
sI3431
S'chorus'
p3418
sI3432
S'blithe'
p3419
sI3433
S'loud'
p3420
sI3434
S'tarry'
p3421
sI3435
S'sped'
p3422
sI3436
S'whither'
p3423
sI3437
S'land'
p3424
sI3438
S'rocks'
p3425
sI3439
S'deafened'
p3426
sI3440
S'thundering'
p3427
sI3441
S'rolled'
p3428
sI3442
S'raged'
p3429
sI3443
S'caverns'
p3430
sI3444
S'fiercely'
p3431
sI3445
S'undermine'
p3432
sI3446
S'reef'
p3433
sI3447
S'sunken'
p3434
sI3448
S'league'
p3435
sI3449
S'shore'
p3436
sI3450
S'waters'
p3437
sI3451
S'chafed'
p3438
sI3452
S'dashed'
p3439
sI3453
S'lighthouse'
p3440
sI3454
S'heaps'
p3441
sI3455
S'seaweed'
p3442
sI3456
S'clung'
p3443
sI3457
S'base'
p3444
sI3458
S'storm-birds'
p3445
sI3459
S'skimmed'
p3446
sI3460
S'watched'
p3447
sI3461
S'loophole'
p3448
sI3462
S'ray'
p3449
sI3463
S'joining'
p3450
sI3464
S'horny'
p3451
sI3465
S'grog'
p3452
sI3466
S'damaged'
p3453
sI3467
S'scarred'
p3454
sI3468
S'figure-head'
p3455
sI3469
S'ship'
p3456
sI3470
S'sturdy'
p3457
sI3471
S'gale'
p3458
sI3472
S'heaving'
p3459
sI3473
S'helmsman'
p3460
sI3474
S'wheel'
p3461
sI3475
S'officers'
p3462
sI3476
S'watch'
p3463
sI3477
S'hummed'
p3464
sI3478
S'tune'
p3465
sI3479
S'companion'
p3466
sI3480
S'bygone'
p3467
sI3481
S'homeward'
p3468
sI3482
S'waking'
p3469
sI3483
S'sleeping'
p3470
sI3484
S'extent'
p3471
sI3485
S'festivities'
p3472
sI3486
S'cared'
p3473
sI3487
S'delighted'
p3474
sI3488
S'solemn'
p3475
sI3489
S'unknown'
p3476
sI3490
S'abyss'
p3477
sI3491
S'depths'
p3478
sI3492
S'secrets'
p3479
sI3493
S'profound'
p3480
sI3494
S'engaged'
p3481
sI3495
S'recognise'
p3482
sI3496
S'approving'
p3483
sI3497
S'affability'
p3484
sI3498
S'ha'
p3485
sI3499
S'happen'
p3486
sI3500
S'unlikely'
p3487
sI3501
S'introduce'
p3488
sI3502
S'cultivate'
p3489
sI3503
S'acquaintance'
p3490
sI3504
S'noble'
p3491
sI3505
S'adjustment'
p3492
sI3506
S'infection'
p3493
sI3507
S'disease'
p3494
sI3508
S'sorrow'
p3495
sI3509
S'irresistibly'
p3496
sI3510
S'contagious'
p3497
sI3511
S'laughter'
p3498
sI3512
S'sides'
p3499
sI3513
S'twisting'
p3500
sI3514
S'extravagant'
p3501
sI3515
S'contortions'
p3502
sI3516
S'niece'
p3503
sI3517
S'behindhand'
p3504
sI3518
S'lustily'
p3505
sI3519
S'fred'
p3506
sI3520
S'halves'
p3507
sI3521
S'earnest'
p3508
sI3522
S'dimpled'
p3509
sI3523
S'surprised-looking'
p3510
sI3524
S'capital'
p3511
sI3525
S'ripe'
p3512
sI3526
S'kissed'
p3513
sI3527
S'dots'
p3514
sI3528
S'sunniest'
p3515
sI3529
S'altogether'
p3516
sI3530
S'provoking'
p3517
sI3531
S'satisfactory'
p3518
sI3532
S'comical'
p3519
sI3533
S'offences'
p3520
sI3534
S'carry'
p3521
sI3535
S'satisfaction'
p3522
sI3536
S'benefit'
p3523
sI3537
S'patience'
p3524
sI3538
S'ladies'
p3525
sI3539
S'suffers'
p3526
sI3540
S'whims'
p3527
sI3541
S'takes'
p3528
sI3542
S'dislike'
p3529
sI3543
S'consequence'
p3530
sI3544
S'lose'
p3531
sI3545
S'loses'
p3532
sI3546
S'interrupted'
p3533
sI3547
S'allowed'
p3534
sI3548
S'competent'
p3535
sI3549
S'judges'
p3536
sI3550
S'dessert'
p3537
sI3551
S'lamp-light'
p3538
sI3552
S'faith'
p3539
sI3553
S'housekeepers'
p3540
sI3554
S'topper'
p3541
sI3555
S'bachelor'
p3542
sI3556
S'outcast'
p3543
sI3557
S'subject'
p3544
sI3558
S'whereat'
p3545
sI3559
S'plump'
p3546
sI3560
S'lace'
p3547
sI3561
S'tucker'
p3548
sI3562
S'roses'
p3549
sI3563
S'finishes'
p3550
sI3564
S'begins'
p3551
sI3565
S'revelled'
p3552
sI3566
S'aromatic'
p3553
sI3567
S'vinegar'
p3554
sI3568
S'example'
p3555
sI3569
S'unanimously'
p3556
sI3570
S'harm'
p3557
sI3571
S'pleasanter'
p3558
sI3572
S'companions'
p3559
sI3573
S'mouldy'
p3560
sI3574
S'dusty'
p3561
sI3575
S'likes'
p3562
sI3576
S'rail'
p3563
sI3577
S'till'
p3564
sI3578
S'dies'
p3565
sI3579
S'defy'
p3566
sI3580
S'finds'
p3567
sI3581
S"'uncle"
p3568
sI3582
S'puts'
p3569
sI3583
S'vein'
p3570
sI3584
S"_that's_"
p3571
sI3585
S'thoroughly'
p3572
sI3586
S'good-natured'
p3573
sI3587
S'encouraged'
p3574
sI3588
S'merriment'
p3575
sI3589
S'bottle'
p3576
sI3590
S'joyously'
p3577
sI3591
S'musical'
p3578
sI3592
S'sung'
p3579
sI3593
S'catch'
p3580
sI3594
S'assure'
p3581
sI3595
S'bass'
p3582
sI3596
S'swell'
p3583
sI3597
S'veins'
p3584
sI3598
S'played'
p3585
sI3599
S'harp'
p3586
sI3600
S'tunes'
p3587
sI3601
S'learn'
p3588
sI3602
S'whistle'
p3589
sI3603
S'fetched'
p3590
sI3604
S'boarding-school'
p3591
sI3605
S'reminded'
p3592
sI3606
S'strain'
p3593
sI3607
S'softened'
p3594
sI3608
S'cultivated'
p3595
sI3609
S'kindnesses'
p3596
sI3610
S'resorting'
p3597
sI3611
S'sexton'
p3598
sI3612
S'spade'
p3599
sI3613
S'devote'
p3600
sI3614
S'awhile'
p3601
sI3615
S'outrage'
p3602
sI3616
S'fire-irons'
p3603
sI3617
S'bumping'
p3604
sI3618
S'piano'
p3605
sI3619
S'smothering'
p3606
sI3620
S'amongst'
p3607
sI3621
S'wherever'
p3608
sI3622
S'fallen'
p3609
sI3623
S'feint'
p3610
sI3624
S'seize'
p3611
sI3625
S'affront'
p3612
sI3626
S'understanding'
p3613
sI3627
S'sidled'
p3614
sI3628
S'direction'
p3615
sI3629
S'silken'
p3616
sI3630
S'rustlings'
p3617
sI3631
S'flutterings'
p3618
sI3632
S'escape'
p3619
sI3633
S'execrable'
p3620
sI3634
S'pretending'
p3621
sI3635
S'head-dress'
p3622
sI3636
S'identity'
p3623
sI3637
S'pressing'
p3624
sI3638
S'ring'
p3625
sI3639
S'finger'
p3626
sI3640
S'vile'
p3627
sI3641
S'confidential'
p3628
sI3642
S'footstool'
p3629
sI3643
S'alphabet'
p3630
sI3644
S'likewise'
p3631
sI3645
S'wholly'
p3632
sI3646
S'guessed'
p3633
sI3647
S'sharpest'
p3634
sI3648
S'needle'
p3635
sI3649
S'whitechapel'
p3636
sI3650
S'warranted'
p3637
sI3651
S'sharper'
p3638
sI3652
S'blunt'
p3639
sI3653
S'mood'
p3640
sI3654
S'departed'
p3641
sI3655
S'half-hour'
p3642
sI3656
S'answering'
p3643
sI3657
S'questions'
p3644
sI3658
S'questioning'
p3645
sI3659
S'exposed'
p3646
sI3660
S'elicited'
p3647
sI3661
S'animal'
p3648
sI3662
S'disagreeable'
p3649
sI3663
S'savage'
p3650
sI3664
S'grunted'
p3651
sI3665
S'talked'
p3652
sI3666
S'menagerie'
p3653
sI3667
S'killed'
p3654
sI3668
S'market'
p3655
sI3669
S'cow'
p3656
sI3670
S'bull'
p3657
sI3671
S'tiger'
p3658
sI3672
S'pig'
p3659
sI3673
S'cat'
p3660
sI3674
S'burst'
p3661
sI3675
S'roar'
p3662
sI3676
S'tickled'
p3663
sI3677
S'stamp'
p3664
sI3678
S'similar'
p3665
sI3679
S'scro-o-o-o-oge'
p3666
sI3680
S'sentiment'
p3667
sI3681
S'objected'
p3668
sI3682
S'reply'
p3669
sI3683
S'inasmuch'
p3670
sI3684
S'negative'
p3671
sI3685
S'diverted'
p3672
sI3686
S'supposing'
p3673
sI3687
S'tendency'
p3674
sI3688
S'ungrateful'
p3675
sI3689
S'mulled'
p3676
sI3690
S'nevertheless'
p3677
sI3691
S'imperceptibly'
p3678
sI3692
S'gay'
p3679
sI3693
S'pledged'
p3680
sI3694
S'unconscious'
p3681
sI3695
S'return'
p3682
sI3696
S'inaudible'
p3683
sI3697
S'speech'
p3684
sI3698
S'travels'
p3685
sI3699
S'visited'
p3686
sI3700
S'sick-beds'
p3687
sI3701
S'lands'
p3688
sI3702
S'almshouse'
p3689
sI3703
S'hospital'
p3690
sI3704
S'gaol'
p3691
sI3705
S'refuge'
p3692
sI3706
S'authority'
p3693
sI3707
S'blessing'
p3694
sI3708
S'taught'
p3695
sI3709
S'precepts'
p3696
sI3710
S'condensed'
p3697
sI3711
S'remained'
p3698
sI3712
S'outward'
p3699
sI3713
S'twelfth-night'
p3700
sI3714
S'noticed'
p3701
sI3715
S'grey'
p3702
sI3716
S'globe'
p3703
sI3717
S'midnight'
p3704
sI3718
S'hark'
p3705
sI3719
S'drawing'
p3706
sI3720
S'ringing'
p3707
sI3721
S'three-quarters'
p3708
sI3722
S'intently'
p3709
sI3723
S'protruding'
p3710
sI3724
S'foot'
p3711
sI3725
S'claw'
p3712
sI3726
S'flesh'
p3713
sI3727
S'foldings'
p3714
sI3728
S'abject'
p3715
sI3729
S'hideous'
p3716
sI3730
S'miserable'
p3717
sI3731
S'knelt'
p3718
sI3732
S'scowling'
p3719
sI3733
S'wolfish'
p3720
sI3734
S'prostrate'
p3721
sI3735
S'youth'
p3722
sI3736
S'freshest'
p3723
sI3737
S'tints'
p3724
sI3738
S'stale'
p3725
sI3739
S'pinched'
p3726
sI3740
S'twisted'
p3727
sI3741
S'shreds'
p3728
sI3742
S'angels'
p3729
sI3743
S'enthroned'
p3730
sI3744
S'devils'
p3731
sI3745
S'lurked'
p3732
sI3746
S'menacing'
p3733
sI3747
S'degradation'
p3734
sI3748
S'perversion'
p3735
sI3749
S'humanity'
p3736
sI3750
S'grade'
p3737
sI3751
S'mysteries'
p3738
sI3752
S'monsters'
p3739
sI3753
S'appalled'
p3740
sI3754
S'fine'
p3741
sI3755
S'parties'
p3742
sI3756
S'enormous'
p3743
sI3757
S'magnitude'
p3744
sI3758
S'cling'
p3745
sI3759
S'appealing'
p3746
sI3760
S'fathers'
p3747
sI3761
S'ignorance'
p3748
sI3762
S'beware'
p3749
sI3763
S'written'
p3750
sI3764
S'doom'
p3751
sI3765
S'unless'
p3752
sI3766
S'writing'
p3753
sI3767
S'erased'
p3754
sI3768
S'deny'
p3755
sI3769
S'stretching'
p3756
sI3770
S'slander'
p3757
sI3771
S'admit'
p3758
sI3772
S'factious'
p3759
sI3773
S'worse'
p3760
sI3774
S'bide'
p3761
sI3775
S'resource'
p3762
sI3776
S'prediction'
p3763
sI3777
S'beheld'
p3764
sI3778
S'draped'
p3765
sI3779
S'gravely'
p3766
sI3780
S'silently'
p3767
sI3781
S'knee'
p3768
sI3782
S'moved'
p3769
sI3783
S'scatter'
p3770
sI3784
S'mystery'
p3771
sI3785
S'shrouded'
p3772
sI3786
S'outstretched'
p3773
sI3787
S'difficult'
p3774
sI3788
S'detach'
p3775
sI3789
S'stately'
p3776
sI3790
S'mysterious'
p3777
sI3791
S'presence'
p3778
sI3792
S'neither'
p3779
sI3793
S'onward'
p3780
sI3794
S'portion'
p3781
sI3795
S'contracted'
p3782
sI3796
S'feared'
p3783
sI3797
S'silent'
p3784
sI3798
S'hardly'
p3785
sI3799
S'stand'
p3786
sI3800
S'paused'
p3787
sI3801
S'giving'
p3788
sI3802
S'recover'
p3789
sI3803
S'thrilled'
p3790
sI3804
S'vague'
p3791
sI3805
S'uncertain'
p3792
sI3806
S'shroud'
p3793
sI3807
S'stretched'
p3794
sI3808
S'utmost'
p3795
sI3809
S'spectral'
p3796
sI3810
S'heap'
p3797
sI3811
S'thankful'
p3798
sI3812
S'waning'
p3799
sI3813
S'encompass'
p3800
sI3814
S'merchants'
p3801
sI3815
S'chinked'
p3802
sI3816
S'conversed'
p3803
sI3817
S'groups'
p3804
sI3818
S'watches'
p3805
sI3819
S'seals'
p3806
sI3820
S'knot'
p3807
sI3821
S'snuff'
p3808
sI3822
S'snuff-box'
p3809
sI3823
S'yawn'
p3810
sI3824
S'red-faced'
p3811
sI3825
S'pendulous'
p3812
sI3826
S'excrescence'
p3813
sI3827
S'gills'
p3814
sI3828
S'turkey-cock'
p3815
sI3829
S'yawning'
p3816
sI3830
S'pleasantry'
p3817
sI3831
S'volunteer'
p3818
sI3832
S'lunch'
p3819
sI3833
S'fed'
p3820
sI3834
S'disinterested'
p3821
sI3835
S'gloves'
p3822
sI3836
S'met'
p3823
sI3837
S'bye'
p3824
sI3838
S'speakers'
p3825
sI3839
S'listeners'
p3826
sI3840
S'strolled'
p3827
sI3841
S'mixed'
p3828
sI3842
S'glided'
p3829
sI3843
S'meeting'
p3830
sI3844
S'wealthy'
p3831
sI3845
S'importance'
p3832
sI3846
S'esteem'
p3833
sI3847
S'strictly'
p3834
sI3848
S'scratch'
p3835
sI3849
S'hey'
p3836
sI3850
S'skater'
p3837
sI3851
S'surprised'
p3838
sI3852
S'attach'
p3839
sI3853
S'conversations'
p3840
sI3854
S'apparently'
p3841
sI3855
S'trivial'
p3842
sI3856
S'assured'
p3843
sI3857
S'hidden'
p3844
sI3858
S'consider'
p3845
sI3859
S'bearing'
p3846
sI3860
S'province'
p3847
sI3861
S'doubting'
p3848
sI3862
S'whomsoever'
p3849
sI3863
S'applied'
p3850
sI3864
S'moral'
p3851
sI3865
S'improvement'
p3852
sI3866
S'treasure'
p3853
sI3867
S'clue'
p3854
sI3868
S'solution'
p3855
sI3869
S'riddles'
p3856
sI3870
S'image'
p3857
sI3871
S'accustomed'
p3858
sI3872
S'likeness'
p3859
sI3873
S'multitudes'
p3860
sI3874
S'poured'
p3861
sI3875
S'porch'
p3862
sI3876
S'revolving'
p3863
sI3877
S'new-born'
p3864
sI3878
S'resolutions'
p3865
sI3879
S'quiet'
p3866
sI3880
S'roused'
p3867
sI3881
S'quest'
p3868
sI3882
S'fancied'
p3869
sI3883
S'reference'
p3870
sI3884
S'unseen'
p3871
sI3885
S'shudder'
p3872
sI3886
S'obscure'
p3873
sI3887
S'penetrated'
p3874
sI3888
S'recognised'
p3875
sI3889
S'repute'
p3876
sI3890
S'ways'
p3877
sI3891
S'drunken'
p3878
sI3892
S'slipshod'
p3879
sI3893
S'ugly'
p3880
sI3894
S'alleys'
p3881
sI3895
S'archways'
p3882
sI3896
S'cesspools'
p3883
sI3897
S'disgorged'
p3884
sI3898
S'dirt'
p3885
sI3899
S'straggling'
p3886
sI3900
S'reeked'
p3887
sI3901
S'crime'
p3888
sI3902
S'filth'
p3889
sI3903
S'den'
p3890
sI3904
S'infamous'
p3891
sI3905
S'resort'
p3892
sI3906
S'low-browed'
p3893
sI3907
S'beetling'
p3894
sI3908
S'shop'
p3895
sI3909
S'pent-house'
p3896
sI3910
S'rags'
p3897
sI3911
S'bottles'
p3898
sI3912
S'greasy'
p3899
sI3913
S'offal'
p3900
sI3914
S'bought'
p3901
sI3915
S'piled'
p3902
sI3916
S'rusty'
p3903
sI3917
S'nails'
p3904
sI3918
S'hinges'
p3905
sI3919
S'files'
p3906
sI3920
S'weights'
p3907
sI3921
S'refuse'
p3908
sI3922
S'scrutinise'
p3909
sI3923
S'mountains'
p3910
sI3924
S'unseemly'
p3911
sI3925
S'corrupted'
p3912
sI3926
S'sepulchres'
p3913
sI3927
S'wares'
p3914
sI3928
S'dealt'
p3915
sI3929
S'charcoal'
p3916
sI3930
S'stove'
p3917
sI3931
S'bricks'
p3918
sI3932
S'grey-haired'
p3919
sI3933
S'rascal'
p3920
sI3934
S'seventy'
p3921
sI3935
S'screened'
p3922
sI3936
S'frouzy'
p3923
sI3937
S'curtaining'
p3924
sI3938
S'miscellaneous'
p3925
sI3939
S'tatters'
p3926
sI3940
S'line'
p3927
sI3941
S'pipe'
p3928
sI3942
S'luxury'
p3929
sI3943
S'calm'
p3930
sI3944
S'retirement'
p3931
sI3945
S'bundle'
p3932
sI3946
S'slunk'
p3933
sI3947
S'similarly'
p3934
sI3948
S'recognition'
p3935
sI3949
S'charwoman'
p3936
sI3950
S'joe'
p3937
sI3951
S'removing'
p3938
sI3952
S'strangers'
p3939
sI3953
S'skreeks'
p3940
sI3954
S'metal'
p3941
sI3955
S'suitable'
p3942
sI3956
S'matched'
p3943
sI3957
S'screen'
p3944
sI3958
S'raked'
p3945
sI3959
S'stair-rod'
p3946
sI3960
S'smoky'
p3947
sI3961
S'stem'
p3948
sI3962
S'flaunting'
p3949
sI3963
S'crossing'
p3950
sI3964
S'elbows'
p3951
sI3965
S'defiance'
p3952
sI3966
S'odds'
p3953
sI3967
S'mrs'
p3954
sI3968
S'dilber'
p3955
sI3969
S'pick'
p3956
sI3970
S'holes'
p3957
sI3971
S'coats'
p3958
sI3972
S'loss'
p3959
sI3973
S'wanted'
p3960
sI3974
S'screw'
p3961
sI3975
S'natural'
p3962
sI3976
S'lifetime'
p3963
sI3977
S'truest'
p3964
sI3978
S'judgment'
p3965
sI3979
S'depend'
p3966
sI3980
S'helping'
p3967
sI3981
S'ourselves'
p3968
sI3982
S'sin'
p3969
sI3983
S'gallantry'
p3970
sI3984
S'allow'
p3971
sI3985
S'breach'
p3972
sI3986
S'_his_'
p3973
sI3987
S'plunder'
p3974
sI3988
S'extensive'
p3975
sI3989
S'seal'
p3976
sI3990
S'pencil-case'
p3977
sI3991
S'sleeve-buttons'
p3978
sI3992
S'brooch'
p3979
sI3993
S'severally'
p3980
sI3994
S'appraised'
p3981
sI3995
S'chalked'
p3982
sI3996
S'sums'
p3983
sI3997
S'disposed'
p3984
sI3998
S'total'
p3985
sI3999
S'account'
p3986
sI4000
S'doing'
p3987
sI4001
S'sheets'
p3988
sI4002
S'towels'
p3989
sI4003
S'wearing'
p3990
sI4004
S'apparel'
p3991
sI4005
S'old-fashioned'
p3992
sI4006
S'tea-spoons'
p3993
sI4007
S'sugar-tongs'
p3994
sI4008
S'stated'
p3995
sI4009
S'weakness'
p3996
sI4010
S'ruin'
p3997
sI4011
S'penny'
p3998
sI4012
S'repent'
p3999
sI4013
S'liberal'
p4000
sI4014
S'knock'
p4001
sI4015
S'undo'
p4002
sI4016
S'_my_'
p4003
sI4017
S'convenience'
p4004
sI4018
S'unfastened'
p4005
sI4019
S'knots'
p4006
sI4020
S'dragged'
p4007
sI4021
S'roll'
p4008
sI4022
S'bed-curtains'
p4009
sI4023
S'forward'
p4010
sI4024
S'rings'
p4011
sI4025
S'sha'
p4012
sI4026
S'reaching'
p4013
sI4027
S'coolly'
p4014
sI4028
S'oil'
p4015
sI4029
S'blankets'
p4016
sI4030
S'eh'
p4017
sI4031
S'stopping'
p4018
sI4032
S'fond'
p4019
sI4033
S'loiter'
p4020
sI4034
S'ache'
p4021
sI4035
S'wasted'
p4022
sI4036
S'wasting'
p4023
sI4037
S'fool'
p4024
sI4038
S'calico'
p4025
sI4039
S'uglier'
p4026
sI4040
S'dialogue'
p4027
sI4041
S'grouped'
p4028
sI4042
S'spoil'
p4029
sI4043
S'afforded'
p4030
sI4044
S'detestation'
p4031
sI4045
S'disgust'
p4032
sI4046
S'obscene'
p4033
sI4047
S'demons'
p4034
sI4048
S'marketing'
p4035
sI4049
S'corpse'
p4036
sI4050
S'producing'
p4037
sI4051
S'flannel'
p4038
sI4052
S'bag'
p4039
sI4053
S'gains'
p4040
sI4054
S'shuddering'
p4041
sI4055
S'tends'
p4042
sI4056
S'merciful'
p4043
sI4057
S'recoiled'
p4044
sI4058
S'uncurtained'
p4045
sI4059
S'dumb'
p4046
sI4060
S'announced'
p4047
sI4061
S'language'
p4048
sI4062
S'accuracy'
p4049
sI4063
S'impulse'
p4050
sI4064
S'anxious'
p4051
sI4065
S'rising'
p4052
sI4066
S'bereft'
p4053
sI4067
S'unwatched'
p4054
sI4068
S'unwept'
p4055
sI4069
S'uncared'
p4056
sI4070
S'steady'
p4057
sI4071
S'cover'
p4058
sI4072
S'carelessly'
p4059
sI4073
S'slightest'
p4060
sI4074
S'longed'
p4061
sI4075
S'withdraw'
p4062
sI4076
S'veil'
p4063
sI4077
S'thine'
p4064
sI4078
S'altar'
p4065
sI4079
S'terrors'
p4066
sI4080
S'thou'
p4067
sI4081
S'hast'
p4068
sI4082
S'thy'
p4069
sI4083
S'command'
p4070
sI4084
S'dominion'
p4071
sI4085
S'revered'
p4072
sI4086
S'honoured'
p4073
sI4087
S'canst'
p4074
sI4088
S'feature'
p4075
sI4089
S'tender'
p4076
sI4090
S'strike'
p4077
sI4091
S'springing'
p4078
sI4092
S'sow'
p4079
sI4093
S'pronounced'
p4080
sI4094
S'foremost'
p4081
sI4095
S'griping'
p4082
sI4096
S'truly'
p4083
sI4097
S'gnawing'
p4084
sI4098
S'rats'
p4085
sI4099
S'hearth-stone'
p4086
sI4100
S'_they_'
p4087
sI4101
S'fearful'
p4088
sI4102
S'trust'
p4089
sI4103
S'unmoved'
p4090
sI4104
S'feels'
p4091
sI4105
S'caused'
p4092
sI4106
S'agonised'
p4093
sI4107
S'beseech'
p4094
sI4108
S'wing'
p4095
sI4109
S'withdrawing'
p4096
sI4110
S'revealed'
p4097
sI4111
S'daylight'
p4098
sI4112
S'careworn'
p4099
sI4113
S'depressed'
p4100
sI4114
S'serious'
p4101
sI4115
S'ashamed'
p4102
sI4116
S'struggled'
p4103
sI4117
S'repress'
p4104
sI4118
S'hoarding'
p4105
sI4119
S'news'
p4106
sI4120
S'embarrassed'
p4107
sI4121
S'ruined'
p4108
sI4122
S'caroline'
p4109
sI4123
S'relents'
p4110
sI4124
S'amazed'
p4111
sI4125
S'miracle'
p4112
sI4126
S'relenting'
p4113
sI4127
S'prayed'
p4114
sI4128
S'forgiveness'
p4115
sI4129
S'half-drunken'
p4116
sI4130
S'obtain'
p4117
sI4131
S'delay'
p4118
sI4132
S'avoid'
p4119
sI4133
S'debt'
p4120
sI4134
S'transferred'
p4121
sI4135
S'merciless'
p4122
sI4136
S'creditor'
p4123
sI4137
S'successor'
p4124
sI4138
S'soften'
p4125
sI4139
S'lighter'
p4126
sI4140
S'hushed'
p4127
sI4141
S'brighter'
p4128
sI4142
S'nowhere'
p4129
sI4143
S'seated'
p4130
sI4144
S'noisy'
p4131
sI4145
S'statues'
p4132
sI4146
S'sewing'
p4133
sI4147
S"'and"
p4134
sI4148
S'midst'
p4135
sI4149
S'dreamed'
p4136
sI4150
S'hurts'
p4137
sI4151
S'slower'
p4138
sI4152
S'evenings'
p4139
sI4153
S'grieved'
p4140
sI4154
S'pleasantly'
p4141
sI4155
S'praised'
p4142
sI4156
S'speed'
p4143
sI4157
S'sunday'
p4144
sI4158
S'farther'
p4145
sI4159
S'up-stairs'
p4146
sI4160
S'cheerfully'
p4147
sI4161
S'lately'
p4148
sI4162
S'composed'
p4149
sI4163
S'reconciled'
p4150
sI4164
S'kindness'
p4151
sI4165
S'distress'
p4152
sI4166
S'pleasantest-spoken'
p4153
sI4167
S"'i"
p4154
sI4168
S'by-the-bye'
p4155
sI4169
S'_that_'
p4156
sI4170
S"'heartily"
p4157
sI4171
S"'for"
p4158
sI4172
S'card'
p4159
sI4173
S"'that"
p4160
sI4174
S'delightful'
p4161
sI4175
S'grinning'
p4162
sI4176
S'forget'
p4163
sI4177
S'easily'
p4164
sI4178
S'essence'
p4165
sI4179
S'informs'
p4166
sI4180
S'different'
p4167
sI4181
S'visions'
p4168
sI4182
S'resorts'
p4169
sI4183
S'desired'
p4170
sI4184
S'besought'
p4171
sI4185
S'hurry'
p4172
sI4186
S'occupation'
p4173
sI4187
S'elsewhere'
p4174
sI4188
S'inexorable'
p4175
sI4189
S'hastened'
p4176
sI4190
S'furniture'
p4177
sI4191
S'wondering'
p4178
sI4192
S'churchyard'
p4179
sI4193
S'underneath'
p4180
sI4194
S'walled'
p4181
sI4195
S'weeds'
p4182
sI4196
S'vegetation'
p4183
sI4197
S'burying'
p4184
sI4198
S'repleted'
p4185
sI4199
S'graves'
p4186
sI4200
S'exactly'
p4187
sI4201
S'downward'
p4188
sI4202
S'courses'
p4189
sI4203
S'foreshadow'
p4190
sI4204
S'persevered'
p4191
sI4205
S'immovable'
p4192
sI4206
S'crept'
p4193
sI4207
S'following'
p4194
sI4208
S'intercourse'
p4195
sI4209
S'shake'
p4196
sI4210
S'intercedes'
p4197
sI4211
S'pities'
p4198
sI4212
S'strive'
p4199
sI4213
S'lessons'
p4200
sI4214
S'sponge'
p4201
sI4215
S'agony'
p4202
sI4216
S'detained'
p4203
sI4217
S'stronger'
p4204
sI4218
S'repulsed'
p4205
sI4219
S'prayer'
p4206
sI4220
S'reversed'
p4207
sI4221
S'alteration'
p4208
sI4222
S'hood'
p4209
sI4223
S'collapsed'
p4210
sI4224
S'dwindled'
p4211
sI4225
S'bedpost'
p4212
sI4226
S'happiest'
p4213
sI4227
S'fluttered'
p4214
sI4228
S'intentions'
p4215
sI4229
S'sobbing'
p4216
sI4230
S'violently'
p4217
sI4231
S'conflict'
p4218
sI4232
S'folding'
p4219
sI4233
S'mislaying'
p4220
sI4234
S'extravagance'
p4221
sI4235
S'laoco\xc3\xb6n'
p4222
sI4236
S'stockings'
p4223
sI4237
S'angel'
p4224
sI4238
S'school-boy'
p4225
sI4239
S'giddy'
p4226
sI4240
S'whoop'
p4227
sI4241
S'frisked'
p4228
sI4242
S'winded'
p4229
sI4243
S'practice'
p4230
sI4244
S'illustrious'
p4231
sI4245
S'brilliant'
p4232
sI4246
S'laughs'
p4233
sI4247
S'month'
p4234
sI4248
S'checked'
p4235
sI4249
S'transports'
p4236
sI4250
S'churches'
p4237
sI4251
S'lustiest'
p4238
sI4252
S'peals'
p4239
sI4253
S'clash'
p4240
sI4254
S'hammer'
p4241
sI4255
S'clang'
p4242
sI4256
S'stirring'
p4243
sI4257
S'piping'
p4244
sI4258
S'sun-light'
p4245
sI4259
S'heavenly'
p4246
sI4260
S'sweet'
p4247
sI4261
S'loitered'
p4248
sI4262
S'poulterer'
p4249
sI4263
S'lad'
p4250
sI4264
S'intelligent'
p4251
sI4265
S"'ve"
p4252
sI4266
S'sold'
p4253
sI4267
S'prize'
p4254
sI4268
S'big'
p4255
sI4269
S'buck'
p4256
sI4270
S'walk-er'
p4257
sI4271
S'directions'
p4258
sI4272
S'shilling'
p4259
sI4273
S'shot'
p4260
sI4274
S'trigger'
p4261
sI4275
S'send'
p4262
sI4276
S'whispered'
p4263
sI4277
S'rubbing'
p4264
sI4278
S'sends'
p4265
sI4279
S'miller'
p4266
sI4280
S'wrote'
p4267
sI4281
S'address'
p4268
sI4282
S'write'
p4269
sI4283
S'down-stairs'
p4270
sI4284
S'street-door'
p4271
sI4285
S'waiting'
p4272
sI4286
S'arrival'
p4273
sI4287
S'patting'
p4274
sI4288
S'bird'
p4275
sI4289
S'snapped'
p4276
sI4290
S'sealing-wax'
p4277
sI4291
S'cab'
p4278
sI4292
S'chuckle'
p4279
sI4293
S'paid'
p4280
sI4294
S'recompensed'
p4281
sI4295
S'exceeded'
p4282
sI4296
S'chuckled'
p4283
sI4297
S'shaving'
p4284
sI4298
S'task'
p4285
sI4299
S'continued'
p4286
sI4300
S'requires'
p4287
sI4301
S'sticking-plaster'
p4288
sI4302
S'good-humoured'
p4289
sI4303
S'blithest'
p4290
sI4304
S'pang'
p4291
sI4305
S'quickening'
p4292
sI4306
S'pace'
p4293
sI4307
S'pardon'
p4294
sI4308
S'goodness'
p4295
sI4309
S'please'
p4296
sI4310
S'farthing'
p4297
sI4311
S'back-payments'
p4298
sI4312
S'included'
p4299
sI4313
S'munifi'
p4300
sI4314
S'thank'
p4301
sI4315
S'hurrying'
p4302
sI4316
S'patted'
p4303
sI4317
S'steps'
p4304
sI4318
S'courage'
p4305
sI4319
S'dash'
p4306
sI4320
S'nice'
p4307
sI4321
S'dining-room'
p4308
sI4322
S'array'
p4309
sI4323
S'points'
p4310
sI4324
S'heartier'
p4311
sI4325
S'_she_'
p4312
sI4326
S'games'
p4313
sI4327
S'unanimity'
p4314
sI4328
S'won-der-ful'
p4315
sI4329
S'early'
p4316
sI4330
S'jiffy'
p4317
sI4331
S'overtake'
p4318
sI4332
S'feign'
p4319
sI4333
S'_am_'
p4320
sI4334
S'leaping'
p4321
sI4335
S'dig'
p4322
sI4336
S'staggered'
p4323
sI4337
S'salary'
p4324
sI4338
S'momentary'
p4325
sI4339
S'strait-waistcoat'
p4326
sI4340
S'mistaken'
p4327
sI4341
S'endeavour'
p4328
sI4342
S'discuss'
p4329
sI4343
S'affairs'
p4330
sI4344
S'smoking'
p4331
sI4345
S'bishop'
p4332
sI4346
S'coal-scuttle'
p4333
sI4347
S'dot'
p4334
sI4348
S'*'
sI4349
S'infinitely'
p4335
sI4350
S'borough'
p4336
sI4351
S'heeded'
p4337
sI4352
S'fill'
p4338
sI4353
S'anyway'
p4339
sI4354
S'grins'
p4340
sI4355
S'malady'
p4341
sI4356
S'attractive'
p4342
sI4357
S'total-abstinence'
p4343
sI4358
S'possessed'
p4344
s.