(dp1
S''
(lp2
I0
asS'down-stairs'
p3
I4283
sS'pardon'
p4
I4307
sS'directions'
p5
I4271
sS'hats'
p6
I688
sS'child'
p7
I1805
sS'desirable'
p8
I719
sS'knelt'
p9
I3731
sS'foul'
p10
I296
sS'sleet'
p11
I300
sS'woods'
p12
I2922
sS'sleep'
p13
I1778
sS'hanging'
p14
I1178
sS'mansion'
p15
I890
sS'appetite'
p16
I3308
sS'evermore'
p17
I2292
sS'yonder'
p18
I2083
sS'poorly'
p19
I2020
sS'whose'
p20
I823
sS'unfeeling'
p21
I3313
sS'voice._'
p22
I515
sS'sputtered'
p23
I3271
sS'crept'
p24
I4206
sS'snowing'
p25
I3353
sS'counting-house'
p26
I379
sS'swan'
p27
I3179
sS'presents'
p28
I2579
sS'buck'
p29
I4269
sS'under'
p30
I752
sS'lord'
p31
I886
sS'sorry'
p32
I654
sS'pride'
p33
I3053
sS'worth'
p34
I2485
sS'shaving'
p35
I4297
sS'merchant'
p36
I1121
sS'tarry'
p37
I3434
sS'_me_'
p38
I968
sS'rashly'
p39
I179
sS'desired'
p40
I4183
sS'rise'
p41
I1904
sS'four-roomed'
p42
I3075
sS'homes'
p43
I1586
sS'double-ironed'
p44
I1538
sS'every'
p45
I417
sS'yellow'
p46
I2107
sS'softened'
p47
I3607
sS'jacob'
p48
I1350
sS'uncertain'
p49
I3805
sS'seals'
p50
I3819
sS'screaming'
p51
I3104
sS'vast'
p52
I1551
sS'chapel'
p53
I3006
sS'four'
p54
I1716
sS'disturb'
p55
I89
sS'baking'
p56
I3360
sS'prize'
p57
I4267
sS'parrot'
p58
I2106
sS'sunk'
p59
I1783
sS'wooden'
p60
I2607
sS'attentively'
p61
I2618
sS'repent'
p62
I4012
sS'solution'
p63
I3868
sS'piling'
p64
I3380
sS'convenience'
p65
I4017
sS'turkey-cock'
p66
I3828
sS'shouting'
p67
I2580
sS'guiding'
p68
I2506
sS'charwoman'
p69
I3949
sS'glued'
p70
I2606
sS'clothes'
p71
I3008
sS'forget'
p72
I4176
sS'parted'
p73
I1986
sS'winded'
p74
I4242
sS'force'
p75
I1887
sS'sooty'
p76
I2863
sS'infancy'
p77
I1096
sS'awake'
p78
I1776
sS'miller'
p79
I4279
sS'cordially'
p80
I670
sS'welfare'
p81
I1562
sS'pulse'
p82
I1730
sS'horn'
p83
I2769
sS'second'
p84
I1409
sS'street'
p85
I315
sS'stagnant-blooded'
p86
I2940
sS'parapets'
p87
I2876
sS'perish'
p88
I2353
sS'even'
p89
I119
sS'established'
p90
I2671
sS'hide'
p91
I2323
sS'prisons'
p92
I733
sS'solemn'
p93
I3488
sS'thunder'
p94
I1118
sS'beaten'
p95
I1747
sS'orchestra'
p96
I2303
sS'fatness'
p97
I2897
sS'above'
p98
I199
sS'conduct'
p99
I819
sS'underneath'
p100
I4193
sS'new'
p101
I207
sS'struggled'
p102
I4116
sS'increasing'
p103
I1857
sS'ever'
p104
I231
sS'sidled'
p105
I3627
sS'told'
p106
I1880
sS'sharper'
p107
I3651
sS'festive'
p108
I716
sS'men'
p109
I337
sS'kindred'
p110
I710
sS'whoop'
p111
I4240
sS'here'
p112
I976
sS'hundreds'
p113
I731
sS'musical'
p114
I3591
sS'resounded'
p115
I1117
sS'pursuit'
p116
I2462
sS'axe'
p117
I2072
sS'humility'
p118
I1517
sS'represented'
p119
I704
sS'path'
p120
I1617
sS'shriek'
p121
I3196
sS'chink'
p122
I418
sS'dry'
p123
I2298
sS'voice'
p124
I259
sS'daughter'
p125
I2524
sS'distinctness'
p126
I1863
sS'covers'
p127
I3023
sS'hideously'
p128
I1532
sS'leaves'
p129
I2221
sS'changed'
p130
I1297
sS'piercing'
p131
I917
sS'entreating'
p132
I2933
sS'skirts'
p133
I1400
sS'lest'
p134
I3195
sS'permit'
p135
I96
sS'suitable'
p136
I3955
sS'punishment'
p137
I2554
sS'hushed'
p138
I4140
sS'ventured'
p139
I1632
sS'eyebrows'
p140
I263
sS'golden'
p141
I2455
sS'_would_'
p142
I2368
sS'brought'
p143
I1631
sS'visible'
p144
I1850
sS'cheats'
p145
I1366
sS'tea-spoons'
p146
I4006
sS'christmas-eve'
p147
I997
sS'sparkling'
p148
I2794
sS'glance'
p149
I1255
sS'half-a-quartern'
p150
I3246
sS'scarred'
p151
I3467
sS'spoke'
p152
I256
sS'would'
p153
I164
sS'hospital'
p154
I3703
sS'arms'
p155
I1819
sS'blindman'
p156
I1002
sS'call'
p157
I371
sS'therefore'
p158
I95
sS'frouzy'
p159
I3936
sS'strike'
p160
I4090
sS'poulterers'
p161
I874
sS'resumed'
p162
I803
sS'expecting'
p163
I3379
sS'churchyard'
p164
I4192
sS'peeping'
p165
I826
sS'advance'
p166
I2384
sS'brings'
p167
I138
sS'feared'
p168
I3796
sS'hung-up'
p169
I2905
sS'expending'
p170
I2098
sS'grief'
p171
I1574
sS'glass'
p172
I2203
sS'warm'
p173
I280
sS'former'
p174
I2126
sS'excellent'
p175
I127
sS'gas-lamps'
p176
I1155
sS'hole'
p177
I1504
sS'hold'
p178
I1821
sS'blindfold'
p179
I1954
sS'overrun'
p180
I2014
sS'must'
p181
I144
sS'me'
p182
I97
sS'plaintive'
p183
I3344
sS'locked'
p184
I1189
sS'room'
p185
I455
sS'shame'
p186
I3032
sS'pursue'
p187
I801
sS'highly-decorated'
p188
I2983
sS'past'
p189
I1720
sS'work'
p190
I541
sS'plunged'
p191
I2343
sS'roof'
p192
I2000
sS'laundress'
p193
I3241
sS'almshouse'
p194
I3702
sS'eighteen'
p195
I2809
sS'withdrawing'
p196
I4109
sS'leaped'
p197
I1300
sS'elbow'
p198
I1803
sS'my'
p199
I63
sS'example'
p200
I3568
sS'shook'
p201
I714
sS'jest'
p202
I2882
sS'give'
p203
I649
sS'diminished'
p204
I1811
sS'household'
p205
I897
sS'flung'
p206
I1575
sS'laughs'
p207
I4246
sS'contented'
p208
I3351
sS'involve'
p209
I1355
sS'overheard'
p210
I673
sS'want'
p211
I651
sS'hurrying'
p212
I4315
sS'squab'
p213
I2926
sS'keep'
p214
I367
sS'attract'
p215
I1235
sS'worse'
p216
I3773
sS'sought'
p217
I1686
sS'end'
p218
I992
sS'chilly'
p219
I2024
sS'provide'
p220
I2812
sS'fancied'
p221
I3882
sS'travel'
p222
I1447
sS'drying'
p223
I2127
sS'nuts'
p224
I372
sS'feature'
p225
I4088
sS'rhinoceros'
p226
I2693
sS'how'
p227
I104
sS'hot'
p228
I1079
sS'water-spout'
p229
I2053
sS'answer'
p230
I506
sS'gate'
p231
I1956
sS'bedight'
p232
I3249
sS'badly'
p233
I785
sS'poker'
p234
I1187
sS'undergoing'
p235
I1062
sS'barer'
p236
I2032
sS'lad'
p237
I4263
sS'reconciled'
p238
I4163
sS'earlier'
p239
I977
sS'movable'
p240
I2288
sS'sparkled'
p241
I491
sS'eating-house'
p242
I3239
sS'wrong'
p243
I1722
sS'poked'
p244
I611
sS'lay'
p245
I1769
sS'curiosity'
p246
I1661
sS'law'
p247
I743
sS'nipped'
p248
I243
sS'shirt'
p249
I3090
sS'stronghold'
p250
I888
sS'execrable'
p251
I3633
sS'envy'
p252
I3055
sS'calves'
p253
I2381
sS'splendid'
p254
I877
sS'third'
p255
I1622
sS'endeavoured'
p256
I1759
sS'dunstan'
p257
I919
sS'greet'
p258
I2576
sS'wink'
p259
I2390
sS'fictitious'
p260
I2604
sS'haste'
p261
I1667
sS'specks'
p262
I3394
sS'half-a-crown'
p263
I962
sS'roused'
p264
I3880
sS'fan'
p265
I2162
sS'oysters'
p266
I2749
sS'order'
p267
I1752
sS'wind'
p268
I172
sS'wine'
p269
I1120
sS'undo'
p270
I4015
sS'blind'
p271
I336
sS'pleasanter'
p272
I3571
sS'recognising'
p273
I1955
sS'office'
p274
I271
sS'enter'
p275
I2719
sS'consent'
p276
I583
sS'over'
p277
I303
sS'fall'
p278
I1921
sS'satisfied'
p279
I1188
sS'fowls'
p280
I2008
sS'london'
p281
I1050
sS'oven'
p282
I1403
sS'fetched'
p283
I3603
sS'ebenezer'
p284
I1491
sS'mayor'
p285
I887
sS'clapped'
p286
I2170
sS'before'
p287
I161
sS'beside'
p288
I1596
sS'fit'
p289
I2698
sS'somewhere'
p290
I3396
sS'recognised'
p291
I3888
sS'coffin-nail'
p292
I74
sS','
I16
sS'writing'
p293
I3766
sS'better'
p294
I354
sS'damascus'
p295
I2089
sS'narrowest'
p296
I423
sS'almonds'
p297
I2961
sS'glanced'
p298
I1477
sS'nobler'
p299
I2467
sS'hidden'
p300
I3857
sS'low-browed'
p301
I3906
sS'overcome'
p302
I2647
sS'then'
p303
I348
sS'them'
p304
I395
sS'fragment'
p305
I1373
sS'weakness'
p306
I4009
sS'plaster'
p307
I2143
sS'safe'
p308
I1676
sS'school'
p309
I1989
sS'scene'
p310
I2406
sS'break'
p311
I3229
sS'bang'
p312
I1116
sS'they'
p313
I306
sS'glazed'
p314
I1392
sS'one'
p315
I11
sS'silver'
p316
I599
sS'smoking'
p317
I4344
sS'shadows'
p318
I1976
sS'gloom'
p319
I1153
sS'heeded'
p320
I4351
sS'meat'
p321
I765
sS'brightness'
p322
I865
sS'potatoes'
p323
I3088
sS'shadowy'
p324
I1460
sS'assembled'
p325
I3423
sS'rocks'
p326
I3438
sS'dingy'
p327
I428
sS'clothed'
p328
I2774
sS'conflict'
p329
I4231
sS'roast'
p330
I2357
sS'each'
p331
I1240
sS'went'
p332
I633
sS'side'
p333
I1359
sS'blushed'
p334
I2980
sS'mean'
p335
I60
sS'burial'
p336
I31
sS'calmly'
p337
I3250
sS'daws'
p338
I3003
sS'laying'
p339
I735
sS'principles'
p340
I884
sS'bowls'
p341
I2760
sS'gatherings'
p342
I3377
sS'taught'
p343
I3708
sS'gates'
p344
I2006
sS'juggling'
p345
I2951
sS'suspected'
p346
I2320
sS'caustic'
p347
I1342
sS'ghosts'
p348
I1287
sS'extract'
p349
I1204
sS'crisp'
p350
I1974
sS'borne'
p351
I1056
sS'thoroughfares'
p352
I2232
sS'singularly'
p353
I1876
sS'merchants'
p354
I3814
sS'lemons'
p355
I2929
sS'appalled'
p356
I3753
sS'driving'
p357
I1135
sS'frying-pan'
p358
I2602
sS'god'
p359
I473
sS'by-and-by'
p360
I3342
sS'passengers'
p361
I2233
sS'forty'
p362
I2530
sS'fellows'
p363
I2273
sS'content'
p364
I2474
sS'springing'
p365
I4091
sS'laid'
p366
I2253
sS'remorse'
p367
I1524
sS'detestation'
p368
I4044
sS'tight-fisted'
p369
I216
sS'got'
p370
I1140
sS'millions'
p371
I3296
sS'forth'
p372
I1449
sS'sexton'
p373
I3611
sS'mistakes'
p374
I2995
sS'flaunting'
p375
I3962
sS'stamping'
p376
I391
sS'turning'
p377
I180
sS'assured'
p378
I3856
sS'city'
p379
I396
sS'tops'
p380
I2830
sS'mulled'
p381
I3689
sS'given'
p382
I2132
sS'free'
p383
I1672
sS'mourning'
p384
I2450
sS'bestow'
p385
I324
sS'dashing'
p386
I2219
sS'rain'
p387
I292
sS'grapes'
p388
I2910
sS'_to'
p389
I1442
sS'sheet'
p390
I2839
sS'mistress'
p391
I2327
sS'holidays'
p392
I2149
sS'silent'
p393
I3797
sS'enormous'
p394
I3756
sS'shaggy'
p395
I1963
sS'shelves'
p396
I2900
sS'days'
p397
I374
sS'sank'
p398
I2655
sS'disturbed'
p399
I1388
sS'savage'
p400
I3663
sS'crusoe'
p401
I2112
sS'arrived'
p402
I948
sS'cellars'
p403
I1122
sS'loud'
p404
I3433
sS'chinked'
p405
I3815
sS'key'
p406
I1060
sS'rang'
p407
I1269
sS'already'
p408
I402
sS'angelic'
p409
I1223
sS'features'
p410
I242
sS'render'
p411
I2423
sS'dwindled'
p412
I4224
sS'grade'
p413
I3750
sS'_they_'
p414
I4100
sS'hoop'
p415
I2120
sS'rank'
p416
I3410
sS'hearing'
p417
I1529
sS'lovable'
p418
I2312
sS'lettuce'
p419
I2108
sS'floors'
p420
I1294
sS'wrapper'
p421
I1338
sS'another'
p422
I592
sS'comforter'
p423
I463
sS'sallied'
p424
I912
sS'thick'
p425
I2852
sS'sharpest'
p426
I3647
sS'hood'
p427
I4222
sS'illustrate'
p428
I1215
sS'goblins'
p429
I1417
sS'service'
p430
I2425
sS'merrier'
p431
I3323
sS'hearse'
p432
I1141
sS'neck'
p433
I1813
sS'girls'
p434
I2903
sS'twisted'
p435
I3740
sS'vibrate'
p436
I1625
sS'business-like'
p437
I1515
sS'plentiful'
p438
I2959
sS'kinder'
p439
I2165
sS'master'
p440
I356
sS'too'
p441
I1131
sS'wildly'
p442
I2991
sS'legs'
p443
I1186
sS'fixedly'
p444
I1088
sS'dogs'
p445
I338
sS'unbroken'
p446
I1899
sS'listen'
p447
I2416
sS'curtains'
p448
I1796
sS'ceiling'
p449
I2144
sS'bubbling'
p450
I3116
sS'emblem'
p451
I1840
sS'frowned'
p452
I713
sS'took'
p453
I1004
sS'wisdom'
p454
I80
sS'ankle'
p455
I1678
sS'task'
p456
I4298
sS'legatee'
p457
I117
sS'wasted'
p458
I4035
sS'brushed'
p459
I3138
sS'peculiar'
p460
I3039
sS'waistcoats'
p461
I2888
sS'begins'
p462
I3564
sS'distance'
p463
I368
sS'affront'
p464
I3625
sS'showed'
p465
I2447
sS'icicle'
p466
I1723
sS'tavern'
p467
I1007
sS'panelling'
p468
I2050
sS'tree'
p469
I1958
sS'likely'
p470
I3348
sS'seated'
p471
I4143
sS'shower'
p472
I2862
sS'matter'
p473
I2130
sS'idle'
p474
I778
sS'louder'
p475
I1293
sS'flame'
p476
I1299
sS'sheen'
p477
I1833
sS'iron'
p478
I1483
sS'loiter'
p479
I4033
sS'mirth'
p480
I3389
sS'threadbare'
p481
I3136
sS'feeling'
p482
I1939
sS'countess'
p483
I3340
sS'brilliant'
p484
I4245
sS'bundle'
p485
I3945
sS'bridge'
p486
I1960
sS'ran'
p487
I813
sS'shyly'
p488
I2328
sS'mind'
p489
I55
sS'mine'
p490
I557
sS'spent'
p491
I2418
sS'talking'
p492
I679
sS'manner'
p493
I1516
sS'seen'
p494
I1046
sS'seem'
p495
I582
sS'seek'
p496
I2487
sS'tells'
p497
I2480
sS'spade'
p498
I3612
sS'dozen'
p499
I537
sS'forced'
p500
I2520
sS'abroad'
p501
I1445
sS'strength'
p502
I1823
sS'scriptures'
p503
I1216
sS'laden'
p504
I2077
sS'convenient'
p505
I960
sS'latter'
p506
I1305
sS'snow'
p507
I287
sS'subjects'
p508
I2100
sS'niece'
p509
I3516
sS'doors'
p510
I2019
sS'laughed'
p511
I1975
sS'thundering'
p512
I3440
sS'shining'
p513
I2790
sS'dragged'
p514
I4020
sS'doomed'
p515
I1452
sS'conducive'
p516
I1900
sS'fellow-passengers'
p517
I590
sS'gravy'
p518
I1376
sS'exactly'
p519
I4200
sS'shall'
p520
I87
sS'thrilled'
p521
I3803
sS'sugar-tongs'
p522
I4007
sS'mashed'
p523
I3182
sS'milkman'
p524
I2319
sS'disjointed'
p525
I1248
sS'mouth'
p526
I2603
sS'plenty'
p527
I734
sS'hearts'
p528
I585
sS'ironmongery'
p529
I77
sS'coil'
p530
I1472
sS'hide-and-seek'
p531
I1028
sS'milliner'
p532
I3336
sS'grave'
p533
I591
sS'glow'
p534
I488
sS'singer'
p535
I942
sS'released'
p536
I1765
sS'grove'
p537
I2725
sS'alarm'
p538
I2610
sS'back-yard'
p539
I3231
sS'dog'
p540
I2362
sS'investments'
p541
I3330
sS'momentary'
p542
I4338
sS'alas'
p543
I3141
sS'principle'
p544
I2507
sS'whomsoever'
p545
I3862
sS'briskly'
p546
I2266
sS'came'
p547
I309
sS'saying'
p548
I2135
sS'cooking'
p549
I3036
sS'rapture'
p550
I856
sS'visitor'
p551
I1635
sS'retire'
p552
I680
sS'sage'
p553
I3109
sS'loitered'
p554
I4261
sS'deftly'
p555
I2389
sS'incense'
p556
I3026
sS'deuce'
p557
I1394
sS'showing'
p558
I3066
sS'icicles'
p559
I2791
sS'wrung'
p560
I1459
sS'nephew'
p561
I477
sS'hearth-stone'
p562
I4099
sS'enjoyed'
p563
I2408
sS'departed'
p564
I3654
sS'toast'
p565
I3317
sS'judges'
p566
I3549
sS'busy'
p567
I378
sS'latent'
p568
I2045
sS'consciousness'
p569
I1977
sS'spite'
p570
I1086
sS'wolfish'
p571
I3733
sS'quaint'
p572
I1212
sS'cousins'
p573
I3362
sS'explain'
p574
I1059
sS'folded'
p575
I1336
sS'cripple'
p576
I3161
sS'sugar'
p577
I2969
sS'touched'
p578
I1725
sS'rich'
p579
I504
sS'easterly'
p580
I171
sS'folks'
p581
I2413
sS'checked'
p582
I4248
sS'emphatically'
p583
I99
sS'wearing'
p584
I4003
sS'do'
p585
I58
sS'tiles'
p586
I1213
sS'mixture'
p587
I3169
sS'reverently'
p588
I1889
sS'compounded'
p589
I3168
sS'atoms'
p590
I2864
sS'mouths'
p591
I2915
sS'de'
p592
I2364
sS'stop'
p593
I749
sS'five-and-sixpence'
p594
I3326
sS'terrors'
p595
I4079
sS'degradation'
p596
I3747
sS'pocket'
p597
I600
sS'shutting'
p598
I947
sS'haunted'
p599
I1288
sS'altogether'
p600
I3529
sS'congealed'
p601
I861
sS"'poor"
p602
I2115
sS'splinter-bar'
p603
I1145
sS'behindhand'
p604
I3517
sS'folding'
p605
I4232
sS'pressed'
p606
I2643
sS'tights'
p607
I1302
sS'anxiously'
p608
I2152
sS'twice'
p609
I2370
sS'bad'
p610
I1069
sS'softly'
p611
I1266
sS'won-der-ful'
p612
I4328
sS'release'
p613
I2483
sS'waning'
p614
I3812
sS'steam'
p615
I2763
sS'bah'
p616
I482
sS'ears'
p617
I2325
sS'blew'
p618
I284
sS'penance'
p619
I1603
sS'questions'
p620
I3657
sS'fair'
p621
I961
sS'habit'
p622
I1377
sS'condensed'
p623
I3710
sS'gladness'
p624
I1985
sS'observed'
p625
I793
sS'bed'
p626
I1014
sS'christian'
p627
I756
sS'fain'
p628
I1032
sS'meet'
p629
I2773
sS'midst'
p630
I4148
sS'composed'
p631
I4162
sS'best'
p632
I2185
sS'subject'
p633
I3557
sS'_my_'
p634
I4016
sS'snuff'
p635
I3821
sS'said'
p636
I352
sS'capacity'
p637
I2682
sS'lots'
p638
I2285
sS'scrap'
p639
I597
sS'postboy'
p640
I2204
sS'gentleman'
p641
I178
sS'listeners'
p642
I3839
sS'artificial'
p643
I2834
sS'mud'
p644
I2853
sS'unable'
p645
I1680
sS'beware'
p646
I3762
sS'finger'
p647
I3639
sS'half-a-dozen'
p648
I1154
sS'drawn'
p649
I1797
sS'sorts'
p650
I3233
sS'by-ways'
p651
I1988
sS'approach'
p652
I481
sS'we'
p653
I155
sS'never'
p654
I195
sS'nature'
p655
I434
sS'wo'
p656
I1296
sS'handful'
p657
I1206
sS'weak'
p658
I194
sS'however'
p659
I2710
sS'weary'
p660
I1505
sS'twinkling'
p661
I983
sS'rime'
p662
I261
sS'retirement'
p663
I3944
sS'drew'
p664
I1308
sS'travellers'
p665
I1979
sS'defiance'
p666
I3965
sS'cousin'
p667
I2316
sS'picking'
p668
I971
sS'herd'
p669
I2528
sS'roller'
p670
I2947
sS'improve'
p671
I2475
sS'pity'
p672
I2125
sS'received'
p673
I2599
sS'climate'
p674
I2869
sS'cuffs'
p675
I3165
sS'cow'
p676
I3669
sS'met'
p677
I3836
sS'country'
p678
I91
sS'ill'
p679
I964
sS'cup'
p680
I3267
sS'against'
p681
I540
sS'music-book'
p682
I2301
sS'odds'
p683
I3966
sS'negative'
p684
I3684
sS'games'
p685
I4326
sS'mildly'
p686
I1936
sS'faces'
p687
I872
sS'money-changing'
p688
I1503
sS'adapted'
p689
I1907
sS'asked'
p690
I327
sS'jack'
p691
I2271
sS'tough'
p692
I2658
sS'ploughed'
p693
I2843
sS'appeared'
p694
I339
sS'character'
p695
I2124
sS'vain'
p696
I1905
sS'incessant'
p697
I1522
sS'active'
p698
I3163
sS'written'
p699
I3763
sS'gleaming'
p700
I2726
sS'towels'
p701
I4002
sS'passionless'
p702
I2942
sS'speak'
p703
I1486
sS'gratitude'
p704
I2414
sS'lighthouse'
p705
I3453
sS'underdone'
p706
I1374
sS'beef'
p707
I913
sS'_to_'
p708
I1347
sS'union'
p709
I736
sS'condemned'
p710
I1450
sS'faltering'
p711
I1614
sS'fro'
p712
I1743
sS'three'
p713
I400
sS'been'
p714
I70
sS'.'
I20
sS'chimneys'
p715
I2865
sS'beer'
p716
I2359
sS'startled'
p717
I1090
sS'interest'
p718
I3021
sS'expected'
p719
I1107
sS'basin'
p720
I1172
sS'private'
p721
I3092
sS'reeked'
p722
I3900
sS'warmth'
p723
I279
sS'idol'
p724
I2451
sS'threw'
p725
I1253
sS'dots'
p726
I3527
sS'obtained'
p727
I3325
sS'life'
p728
I331
sS'innocent'
p729
I3046
sS'dismiss'
p730
I2513
sS'uncommon'
p731
I1822
sS'school-boy'
p732
I4238
sS'tolled'
p733
I1775
sS'personally'
p734
I1673
sS'catch'
p735
I3593
sS'worked'
p736
I1768
sS'voices'
p737
I1692
sS'chill'
p738
I283
sS'applied'
p739
I3863
sS'patting'
p740
I4287
sS'save'
p741
I474
sS'tank'
p742
I444
sS'free-and-easy'
p743
I2675
sS'air'
p744
I414
sS'strangest'
p745
I1845
sS'ugly'
p746
I3893
sS'near'
p747
I2040
sS'melted'
p748
I1870
sS'suppose'
p749
I959
sS'opulence'
p750
I2892
sS'stopping'
p751
I4031
sS'cracked'
p752
I2142
sS'gave'
p753
I892
sS'smoky'
p754
I3960
sS'chilling'
p755
I1332
sS'cab'
p756
I4291
sS'whither'
p757
I3436
sS'seven'
p758
I699
sS'played'
p759
I3598
sS'is'
p760
I22
sS'speech'
p761
I3697
sS'it'
p762
I41
sS'skipping'
p763
I2282
sS'cant'
p764
I3292
sS'to-morrow'
p765
I630
sS'decanter'
p766
I2193
sS'in'
p767
I4
sS'tremendously'
p768
I3328
sS'if'
p769
I154
sS'grown'
p770
I2265
sS'growl'
p771
I981
sS'borough'
p772
I4350
sS'bottles'
p773
I3911
sS'severity'
p774
I2461
sS'bilious'
p775
I2974
sS'treasure'
p776
I3866
sS'things'
p777
I563
sS'make'
p778
I720
sS'twelfth-cakes'
p779
I2758
sS'wound'
p780
I1311
sS'linked'
p781
I1671
sS'forehead'
p782
I1076
sS'swarthy'
p783
I2927
sS'prostrate'
p784
I3734
sS'plates'
p785
I3188
sS'liberal'
p786
I4013
sS'several'
p787
I1251
sS'confronting'
p788
I1636
sS'grows'
p789
I2436
sS'bells'
p790
I1273
sS'lusty'
p791
I927
sS'jocund'
p792
I1978
sS'boiled'
p793
I548
sS'welsh'
p794
I2242
sS'swell'
p795
I3596
sS'blue'
p796
I255
sS'middle-aged'
p797
I177
sS'claw'
p798
I3725
sS'evil'
p799
I355
sS'hand'
p800
I51
sS'delight'
p801
I2517
sS'kin'
p802
I3059
sS'supposing'
p803
I3686
sS'palpable'
p804
I412
sS'insisted'
p805
I2433
sS'stiffened'
p806
I248
sS'thoughts'
p807
I1236
sS'warded'
p808
I2782
sS'darned'
p809
I3137
sS'hearth'
p810
I2736
sS'kept'
p811
I453
sS'thy'
p812
I4082
sS'possessed'
p813
I4358
sS'drip'
p814
I2051
sS'echoed'
p815
I2415
sS'ocean'
p816
I1570
sS'ragged'
p817
I850
sS'hearty'
p818
I3067
sS'greatest'
p819
I3252
sS'detained'
p820
I4216
sS'mother'
p821
I2537
sS'echoes'
p822
I1125
sS'the'
p823
I28
sS'smoked'
p824
I493
sS'_did_'
p825
I1100
sS'yours'
p826
I2629
sS'left'
p827
I663
sS'assembling'
p828
I3367
sS'mingle'
p829
I2540
sS'halloo'
p830
I2121
sS'just'
p831
I398
sS'new-born'
p832
I3877
sS'halloa'
p833
I2119
sS'repose'
p834
I1705
sS'assigned'
p835
I1407
sS'farther'
p836
I4158
sS'human'
p837
I365
sS'yes'
p838
I631
sS'yet'
p839
I915
sS'previous'
p840
I902
sS'tolerably'
p841
I2687
sS'spectacles'
p842
I1075
sS'collars'
p843
I3115
sS'uncared'
p844
I4069
sS'legion'
p845
I1416
sS'ease'
p846
I3065
sS'had'
p847
I230
sS'spread'
p848
I3403
sS'calico'
p849
I4038
sS'board'
p850
I2321
sS'easy'
p851
I1148
sS'channels'
p852
I2850
sS'has'
p853
I562
sS'hat'
p854
I958
sS'humanity'
p855
I3749
sS'good-humoured'
p856
I4302
sS'trimming'
p857
I1132
sS'shoulder'
p858
I3140
sS'boasted'
p859
I988
sS'_his_'
p860
I3986
sS'possible'
p861
I1732
sS'awhile'
p862
I3614
sS'baba'
p863
I2080
sS'boxes'
p864
I2984
sS'descending'
p865
I1225
sS'battled'
p866
I2236
sS'clustered'
p867
I2906
sS'whence'
p868
I2715
sS'shadow'
p869
I1067
sS'burnt'
p870
I2411
sS'advanced'
p871
I3421
sS'apart'
p872
I569
sS'desire'
p873
I1164
sS'appearing'
p874
I3122
sS'deafened'
p875
I3439
sS'ramparts'
p876
I173
sS'patience'
p877
I3537
sS'zeal'
p878
I3128
sS'pimple'
p879
I1950
sS'pavement'
p880
I393
sS'snug'
p881
I2297
sS'offices'
p882
I408
sS'night'
p883
I170
sS'hung'
p884
I1034
sS'moral'
p885
I3864
sS'security'
p886
I1756
sS'accuracy'
p887
I4062
sS'introduce'
p888
I3501
sS'guests'
p889
I3366
sS'antique'
p890
I2799
sS'_i_'
p891
I2496
sS'right'
p892
I496
sS'old'
p893
I52
sS'creek'
p894
I2118
sS'deal'
p895
I2035
sS'people'
p896
I206
sS'frowning'
p897
I3416
sS'crown'
p898
I1846
sS'somehow'
p899
I2027
sS'dead'
p900
I15
sS'sponge'
p901
I4214
sS'captive'
p902
I1537
sS'escape'
p903
I3632
sS'dear'
p904
I318
sS'pain'
p905
I2511
sS'bore'
p906
I2766
sS'eked'
p907
I3219
sS'doorstep'
p908
I1684
sS'forgotten'
p909
I1029
sS'total'
p910
I3998
sS'dense'
p911
I420
sS'for'
p912
I46
sS'bottom'
p913
I2340
sS'carts'
p914
I1968
sS'disposed'
p915
I3997
sS'ear'
p916
I1788
sS'centre'
p917
I2572
sS'festivities'
p918
I3485
sS'ice'
p919
I864
sS'plucked'
p920
I2551
sS'everything'
p921
I432
sS'icy'
p922
I2854
sS'fog'
p923
I415
sS'honoured'
p924
I4086
sS'treadmill'
p925
I742
sS'shrivelled'
p926
I246
sS'steps'
p927
I4317
sS'beating'
p928
I389
sS'christmas'
p929
I2
sS'pinched'
p930
I3739
sS'core'
p931
I2701
sS'snore'
p932
I2659
sS'sewing'
p933
I4146
sS'bold'
p934
I1052
sS'marketing'
p935
I4048
sS'brawn'
p936
I2742
sS'obtain'
p937
I4130
sS'illustration'
p938
I513
sS'monsters'
p939
I3752
sS'substituted'
p940
I1348
sS'lamps'
p941
I2295
sS'losing'
p942
I619
sS'capacious'
p943
I2256
sS'post'
p944
I1957
sS'permitted'
p945
I1495
sS'wept'
p946
I2043
sS'impenetrable'
p947
I1066
sS'total-abstinence'
p948
I4357
sS'newspapers'
p949
I1009
sS'months'
p950
I538
sS'recollect'
p951
I1952
sS'dinner'
p952
I1006
sS'afternoon'
p953
I646
sS'connected'
p954
I1943
sS'plum-puddings'
p955
I2747
sS'raised'
p956
I1420
sS'froze'
p957
I241
sS'shopkeepers'
p958
I2911
sS'mantle'
p959
I2776
sS'wasting'
p960
I4036
sS'bound'
p961
I595
sS'obscene'
p962
I4046
sS'son'
p963
I193
sS'down'
p964
I310
sS'pair'
p965
I1865
sS'beings'
p966
I3043
sS'sow'
p967
I4092
sS'chime'
p968
I1771
sS'frightened'
p969
I1126
sS'saturdays'
p970
I3073
sS'hallo'
p971
I3236
sS'slipshod'
p972
I3892
sS'lashes'
p973
I2557
sS'wag'
p974
I349
sS'support'
p975
I780
sS'constantly'
p976
I797
sS'illustrious'
p977
I4244
sS'up-stairs'
p978
I4159
sS'width'
p979
I1149
sS'fought'
p980
I1340
sS'friars'
p981
I2899
sS'way'
p982
I333
sS'obliged'
p983
I1200
sS'music'
p984
I1973
sS'was'
p985
I14
sS'war'
p986
I3121
sS'happy'
p987
I662
sS'fork'
p988
I3087
sS'head'
p989
I262
sS'medium'
p990
I1807
sS'waistcoat'
p991
I1301
sS'him._'
p992
I1443
sS'offer'
p993
I2202
sS'proudly'
p994
I3243
sS'becoming'
p995
I607
sS'deny'
p996
I3768
sS'oil'
p997
I4028
sS'garments'
p998
I2069
sS'heat'
p999
I276
sS'uncle'
p1000
I472
sS'odours'
p1001
I1941
sS'heap'
p1002
I3810
sS'astonished'
p1003
I2694
sS'true'
p1004
I2229
sS'greasy'
p1005
I3912
sS'speakers'
p1006
I3838
sS'admiration'
p1007
I3218
sS'flavour'
p1008
I3040
sS'sprigs'
p1009
I867
sS'born'
p1010
I2808
sS'extremity'
p1011
I637
sS'utmost'
p1012
I3808
sS'inside'
p1013
I2632
sS'attached'
p1014
I1677
sS'bargain'
p1015
I136
sS'until'
p1016
I1328
sS'apostles'
p1017
I1230
sS'prematurely'
p1018
I3150
sS'bide'
p1019
I3774
sS'panels'
p1020
I2140
sS'wrought'
p1021
I1320
sS'temper'
p1022
I808
sS'prayed'
p1023
I4127
sS'proud'
p1024
I3114
sS'proved'
p1025
I2324
sS'impropriety'
p1026
I610
sS'flat'
p1027
I3258
sS'steady'
p1028
I4070
sS'wealthy'
p1029
I3844
sS'darting'
p1030
I2154
sS'muscular'
p1031
I1820
sS'evidence'
p1032
I1360
sS"''"
p1033
I311
sS'howling'
p1034
I3428
sS'guessed'
p1035
I3646
sS'apoplectic'
p1036
I2891
sS'promised'
p1037
I979
sS'prayer'
p1038
I4219
sS'floating'
p1039
I1942
sS'wintry'
p1040
I281
sS'garment'
p1041
I2779
sS'willingly'
p1042
I2213
sS'pipe'
p1043
I3941
sS'dimly'
p1044
I2641
sS'smelt'
p1045
I3105
sS'dying'
p1046
I1298
sS'no'
p1047
I23
sS'stake'
p1048
I551
sS'when'
p1049
I320
sS'proceedings'
p1050
I3318
sS'handed'
p1051
I715
sS'reality'
p1052
I1361
sS'flood'
p1053
I2646
sS'luscious'
p1054
I2756
sS'rapidity'
p1055
I2122
sS'holding'
p1056
I2663
sS'papers'
p1057
I690
sS'warehouse'
p1058
I200
sS'holly'
p1059
I552
sS'vanished'
p1060
I1929
sS'tripped'
p1061
I3370
sS'ribbons'
p1062
I3080
sS'company'
p1063
I2948
sS'demurely'
p1064
I2904
sS'eternity'
p1065
I1543
sS'picture'
p1066
I1246
sS"'s"
p1067
I13
sS'brothers'
p1068
I2807
sS"o'clock"
p1069
I328
sS'wing'
p1070
I4108
sS'dies'
p1071
I3578
sS'felt'
p1072
I771
sS'miscellaneous'
p1073
I3938
sS'strangers'
p1074
I3952
sS"'d"
p1075
I963
sS'intent'
p1076
I288
sS'scores'
p1077
I3011
sS'rolling'
p1078
I1577
sS"'m"
p1079
I2095
sS'fire-place'
p1080
I1208
sS'died'
p1081
I160
sS'source'
p1082
I2713
sS'warn'
p1083
I1605
sS'younger'
p1084
I2067
sS'bared'
p1085
I3384
sS'fastened'
p1086
I1127
sS'undisturbed'
p1087
I1696
sS'bestowed'
p1088
I1057
sS'paces'
p1089
I1643
sS'proposed'
p1090
I3273
sS'awaking'
p1091
I2656
sS'together'
p1092
I1276
sS'beds'
p1093
I1227
sS"seven-years'-dead"
p1094
I1058
sS'rough'
p1095
I2825
sS'good-natured'
p1096
I3586
sS'teeth'
p1097
I838
sS'conferred'
p1098
I3094
sS'undoubted'
p1099
I135
sS'parcels'
p1100
I2590
sS'restored'
p1101
I2660
sS'gown'
p1102
I3078
sS'coach'
p1103
I1136
sS'matron'
p1104
I2523
sS'remarkable'
p1105
I166
sS'dance'
p1106
I2342
sS'foot'
p1107
I3724
sS'rod'
p1108
I1238
sS'themes'
p1109
I3216
sS'mild'
p1110
I3315
sS'grateful'
p1111
I2957
sS'skin'
p1112
I1818
sS'chair'
p1113
I1254
sS'toothpick'
p1114
I1404
sS'ward'
p1115
I1533
sS'scowling'
p1116
I3732
sS'certainly'
p1117
I709
sS'adamant'
p1118
I3289
sS'depend'
p1119
I3979
sS'swoon'
p1120
I1425
sS'father'
p1121
I159
sS'bordered'
p1122
I2777
sS'gigs'
p1123
I1967
sS'passage'
p1124
I2065
sS'answered'
p1125
I209
sS'charge'
p1126
I1406
sS'unpleasant'
p1127
I2827
sS'terror'
p1128
I944
sS'pace'
p1129
I4306
sS'quickening'
p1130
I4305
sS'furrows'
p1131
I2844
sS'brown'
p1132
I413
sS'fatigues'
p1133
I1700
sS'advantage'
p1134
I302
sS'aldermen'
p1135
I1054
sS'waggish'
p1136
I1381
sS'dispelled'
p1137
I3322
sS'none'
p1138
I1488
sS'choice'
p1139
I2937
sS'chirrup'
p1140
I2286
sS'gloomy'
p1141
I1018
sS'bustle'
p1142
I3175
sS'anonymous'
p1143
I774
sS'cook'
p1144
I2318
sS'word'
p1145
I664
sS'forgiving'
p1146
I576
sS'feeble'
p1147
I2041
sS'minute'
p1148
I1272
sS'wore'
p1149
I1467
sS'fervour'
p1150
I1953
sS'cooks'
p1151
I895
sS'clouds'
p1152
I835
sS'unhallowed'
p1153
I85
sS'did'
p1154
I103
sS'die'
p1155
I787
sS'free-will'
p1156
I1466
sS'dig'
p1157
I4335
sS'posts'
p1158
I3192
sS'brother'
p1159
I2086
sS'leave'
p1160
I559
sS'item'
p1161
I533
sS'quick'
p1162
I2217
sS'red-faced'
p1163
I3824
sS'dip'
p1164
I1158
sS'round'
p1165
I536
sS'upper'
p1166
I1826
sS'brave'
p1167
I3079
sS'slower'
p1168
I4151
sS'regret'
p1169
I1554
sS'insignificant'
p1170
I2429
sS'sigh'
p1171
I2054
sS'pot-bellied'
p1172
I2886
sS'coach-houses'
p1173
I2012
sS'prediction'
p1174
I3776
sS'gnawed'
p1175
I931
sS'cost'
p1176
I783
sS'worn'
p1177
I3000
sS'patient'
p1178
I2476
sS'sordid'
p1179
I2465
sS'cosy'
p1180
I3359
sS'drinks'
p1181
I3309
sS'spectral'
p1182
I3809
sS'darkest'
p1183
I3417
sS'essence'
p1184
I4178
sS'appear'
p1185
I1595
sS'trivial'
p1186
I3855
sS'celebrated'
p1187
I2527
sS'favour'
p1188
I3331
sS'remembered'
p1189
I1285
sS'bass'
p1190
I3595
sS'escorted'
p1191
I3164
sS'goes'
p1192
I544
sS'shared'
p1193
I1457
sS'falling'
p1194
I286
sS'crashing'
p1195
I2989
sS'bearers'
p1196
I3024
sS'filled'
p1197
I1662
sS'nearer'
p1198
I1644
sS'honour'
p1199
I996
sS'clerk'
p1200
I35
sS'mr'
p1201
I697
sS'lolling'
p1202
I2889
sS'french'
p1203
I2978
sS'understanding'
p1204
I3626
sS'water'
p1205
I1568
sS'unanimously'
p1206
I3569
sS'issued'
p1207
I3207
sS'lustrous'
p1208
I1831
sS'hummed'
p1209
I3477
sS'address'
p1210
I4281
sS'alone'
p1211
I560
sS'along'
p1212
I361
sS'roaring'
p1213
I2733
sS'_will_'
p1214
I603
sS'change'
p1215
I1065
sS're-echoed'
p1216
I3275
sS'box'
p1217
I2178
sS'boy'
p1218
I1934
sS'merriment'
p1219
I3588
sS'bygone'
p1220
I3480
sS'boast'
p1221
I301
sS'impatiently'
p1222
I2479
sS'dusty'
p1223
I3574
sS'root'
p1224
I2449
sS'guilty'
p1225
I1669
sS'bow'
p1226
I2385
sS'trial'
p1227
I659
sS'burdensome'
p1228
I2426
sS'descended'
p1229
I2861
sS'cinnamon'
p1230
I2963
sS'jaw'
p1231
I1431
sS'usually'
p1232
I718
sS'bob'
p1233
I3068
sS'quarrel'
p1234
I657
sS'arrival'
p1235
I4286
sS'homeward'
p1236
I3481
sS'munifi'
p1237
I4313
sS'hither'
p1238
I1664
sS'blooming'
p1239
I2907
sS'useful'
p1240
I750
sS'humour'
p1241
I661
sS'resort'
p1242
I3905
sS'careworn'
p1243
I4112
sS'marked'
p1244
I1334
sS'cared'
p1245
I3486
sS'withal'
p1246
I383
sS'swallowed'
p1247
I1239
sS'stingy'
p1248
I3312
sS'recognise'
p1249
I3495
sS'everybody'
p1250
I2398
sS'undergone'
p1251
I1699
sS'wealth'
p1252
I2463
sS'working'
p1253
I1546
sS'sake'
p1254
I1626
sS'positive'
p1255
I2379
sS'angry'
p1256
I627
sS'dangle'
p1257
I2912
sS'tears'
p1258
I2066
sS'by'
p1259
I33
sS'parties'
p1260
I3755
sS'live'
p1261
I518
sS'wood'
p1262
I2078
sS'upheld'
p1263
I1923
sS'plumping'
p1264
I2832
sS'wondering'
p1265
I4191
sS'memory'
p1266
I2510
sS'angels'
p1267
I3742
sS'listed'
p1268
I3405
sS'wicked'
p1269
I3291
sS'dismay'
p1270
I937
sS'``'
p1271
I308
sS'extensive'
p1272
I3988
sS'credulity'
p1273
I3156
sS'afford'
p1274
I777
sS'neglected'
p1275
I1991
sS'fruits'
p1276
I2938
sS'repentance'
p1277
I2508
sS'grey-haired'
p1278
I3932
sS'odious'
p1279
I3311
sS'dismal'
p1280
I440
sS'buttoning'
p1281
I974
sS'accustomed'
p1282
I3871
sS'effort'
p1283
I467
sS'blinds'
p1284
I3365
sS'beheld'
p1285
I3777
sS'piano'
p1286
I3618
sS'walled'
p1287
I4194
sS'pageant'
p1288
I880
sS'sheds'
p1289
I2013
sS'piles'
p1290
I2917
sS'decked'
p1291
I3425
sS'indescribable'
p1292
I2612
sS'plums'
p1293
I2979
sS'cap'
p1294
I1856
sS'soul'
p1295
I2405
sS'cat'
p1296
I3673
sS'wrestled'
p1297
I2635
sS'can'
p1298
I149
sS'stature'
p1299
I1879
sS'believed'
p1300
I1327
sS'making'
p1301
I1744
sS'tune'
p1302
I3478
sS'laughter'
p1303
I3511
sS'sick-beds'
p1304
I3700
sS'deceased'
p1305
I1017
sS'streak'
p1306
I3412
sS'heart'
p1307
I553
sS'corrupted'
p1308
I3925
sS'figure'
p1309
I1804
sS'mirrors'
p1310
I2731
sS'december'
p1311
I973
sS'confused'
p1312
I1647
sS'expectant'
p1313
I955
sS'paused'
p1314
I3800
sS'heard'
p1315
I1286
sS'stroke'
p1316
I1623
sS'regale'
p1317
I936
sS'dropped'
p1318
I1432
sS'allowed'
p1319
I3547
sS'counting'
p1320
I1791
sS'bereft'
p1321
I4066
sS'precepts'
p1322
I3709
sS'winter'
p1323
I1931
sS'skater'
p1324
I3850
sS'robinson'
p1325
I2272
sS'secured'
p1326
I1193
sS'innumerable'
p1327
I3016
sS'write'
p1328
I4282
sS'till'
p1329
I3577
sS'nowhere'
p1330
I4142
sS'sword'
p1331
I2801
sS'tile'
p1332
I1242
sS'retorted'
p1333
I2471
sS'banker'
p1334
I1012
sS'truest'
p1335
I3977
sS'terrestrial'
p1336
I2189
sS'staircase'
p1337
I1142
sS'keepsake'
p1338
I2563
sS'may'
p1339
I561
sS'ponies'
p1340
I1964
sS'fed'
p1341
I3833
sS'spot'
p1342
I185
sS'needs'
p1343
I3042
sS'informs'
p1344
I4179
sS'scratch'
p1345
I3848
sS'designed'
p1346
I1214
sS'such'
p1347
I334
sS'truly'
p1348
I4096
sS'revealed'
p1349
I4110
sS'lifting'
p1350
I1512
sS'man'
p1351
I128
sS'disagreeable'
p1352
I3662
sS'natural'
p1353
I3975
sS'waist'
p1354
I986
sS'succeeded'
p1355
I1277
sS'conscious'
p1356
I1092
sS'whenever'
p1357
I1507
sS'candles'
p1358
I404
sS'elicited'
p1359
I3660
sS'chimney-corner'
p1360
I3280
sS'outpouring'
p1361
I3387
sS'branched'
p1362
I2848
sS'so'
p1363
I120
sS'glancing'
p1364
I2018
sS'agony'
p1365
I4215
sS'offend'
p1366
I1892
sS'padlocks'
p1367
I1316
sS'glided'
p1368
I3842
sS'pulled'
p1369
I2326
sS'talk'
p1370
I1133
sS'unconsciously'
p1371
I1785
sS'drunken'
p1372
I3891
sS'exclusive'
p1373
I3134
sS'hoped'
p1374
I3160
sS'shoes'
p1375
I1182
sS'furnished'
p1376
I2021
sS'indeed'
p1377
I632
sS'pointed'
p1378
I244
sS'wishing'
p1379
I1408
sS'years'
p1380
I111
sS'course'
p1381
I102
sS'shake'
p1382
I4209
sS'dumb'
p1383
I4059
sS'cold'
p1384
I239
sS'still'
p1385
I739
sS'rascal'
p1386
I3933
sS'birds'
p1387
I3177
sS'tendency'
p1388
I3687
sS'trifle'
p1389
I325
sS'solitary'
p1390
I237
sS'limbs'
p1391
I3143
sS'group'
p1392
I2575
sS'thank'
p1393
I4314
sS'interesting'
p1394
I2706
sS"'i"
p1395
I4167
sS'torn'
p1396
I2548
sS'curls'
p1397
I2792
sS'forms'
p1398
I2036
sS'window'
p1399
I829
sS'spacious'
p1400
I2003
sS'dreadfully'
p1401
I121
sS'main'
p1402
I842
sS'loophole'
p1403
I3461
sS'happened'
p1404
I648
sS'cains'
p1405
I1217
sS'lonely'
p1406
I2038
sS'cling'
p1407
I3758
sS'pitch-and-toss'
p1408
I2684
sS'rattled'
p1409
I2950
sS'sweetened'
p1410
I3184
sS'to-night'
p1411
I1604
sS'liberality'
p1412
I702
sS'scaling'
p1413
I2584
sS'remonstrated'
p1414
I1919
sS'flint'
p1415
I227
sS'half'
p1416
I1106
sS'not'
p1417
I88
sS'now'
p1418
I650
sS'provision'
p1419
I723
sS'hall'
p1420
I1112
sS'nor'
p1421
I1329
sS'matched'
p1422
I3956
sS'moist'
p1423
I2976
sS'term'
p1424
I2375
sS'shouted'
p1425
I1971
sS'name'
p1426
I42
sS'lies'
p1427
I2428
sS'servant'
p1428
I2201
sS'corners'
p1429
I3089
sS'drop'
p1430
I1567
sS'abed'
p1431
I3338
sS'_you_'
p1432
I617
sS'breach'
p1433
I3985
sS'hastened'
p1434
I4189
sS'veins'
p1435
I3597
sS'entirely'
p1436
I1928
sS'quarter'
p1437
I1782
sS'hinges'
p1438
I3918
sS'individually'
p1439
I2396
sS'nick'
p1440
I2661
sS'menagerie'
p1441
I3666
sS'reminded'
p1442
I3605
sS'eh'
p1443
I4030
sS'pillaged'
p1444
I2542
sS'torch'
p1445
I2768
sS'hurried'
p1446
I2986
sS'goose'
p1447
I3106
sS'fires'
p1448
I3354
sS'catching'
p1449
I1949
sS'begun'
p1450
I1275
sS'year'
p1451
I375
sS'tumultuous'
p1452
I2525
sS'girl'
p1453
I2153
sS'breeches'
p1454
I1509
sS'gale'
p1455
I3471
sS'living'
p1456
I2723
sS'shown'
p1457
I2147
sS'opened'
p1458
I2030
sS'intercourse'
p1459
I4208
sS'space'
p1460
I1553
sS'profit'
p1461
I2819
sS'looking'
p1462
I1323
sS'skreeks'
p1463
I3953
sS'clanked'
p1464
I1531
sS'emerged'
p1465
I3010
sS'dutch'
p1466
I1210
sS'housemaid'
p1467
I2315
sS'churches'
p1468
I4250
sS'agonised'
p1469
I4106
sS'correct'
p1470
I1728
sS'ruddy'
p1471
I410
sS'simile'
p1472
I83
sS'after'
p1473
I182
sS'bolts'
p1474
I1695
sS'dispatched'
p1475
I2666
sS'seventh'
p1476
I3050
sS'quite'
p1477
I401
sS'tunes'
p1478
I3600
sS'despondent'
p1479
I2057
sS'besides'
p1480
I791
sS'ominous'
p1481
I712
sS'seventy'
p1482
I3934
sS'card'
p1483
I4172
sS'care'
p1484
I357
sS'vestige'
p1485
I1930
sS'waxy'
p1486
I2191
sS'language'
p1487
I4061
sS'blood-thirsty'
p1488
I905
sS'transition'
p1489
I2123
sS'undigested'
p1490
I1367
sS'modest'
p1491
I2981
sS'honest'
p1492
I2082
sS'motion'
p1493
I2446
sS'thing'
p1494
I358
sS'thine'
p1495
I4077
sS'place'
p1496
I335
sS'husband'
p1497
I2628
sS'swing'
p1498
I1264
sS'misused'
p1499
I1557
sS'thread-the-needle'
p1500
I2388
sS'star'
p1501
I1582
sS'think'
p1502
I587
sS'crushed'
p1503
I2546
sS'first'
p1504
I479
sS'origin'
p1505
I573
sS'cheese'
p1506
I1372
sS'feign'
p1507
I4332
sS'dwelling'
p1508
I3070
sS'surviving'
p1509
I705
sS'spoken'
p1510
I1924
sS'waves'
p1511
I2561
sS'*'
I4348
sS'yourself'
p1512
I526
sS'fast'
p1513
I1525
sS'directly'
p1514
I3031
sS'spanish'
p1515
I2895
sS'carry'
p1516
I3534
sS'impossible'
p1517
I882
sS'sounds'
p1518
I1650
sS'drove'
p1519
I2214
sS'open'
p1520
I294
sS"'em"
p1521
I534
sS'size'
p1522
I3063
sS'disinterested'
p1523
I3834
sS'clanking'
p1524
I1278
sS'little'
p1525
I277
sS'sucking-pigs'
p1526
I2744
sS'scro-o-o-o-oge'
p1527
I3679
sS'penitence'
p1528
I3288
sS'stuck'
p1529
I2073
sS'caught'
p1530
I2867
sS'slept'
p1531
I1733
sS'dressed'
p1532
I3076
sS'grasping'
p1533
I220
sS'tell'
p1534
I1419
sS'fiery'
p1535
I3413
sS'white'
p1536
I462
sS'west'
p1537
I3411
sS'friend'
p1538
I118
sS'gives'
p1539
I2431
sS'eyes'
p1540
I251
sS'hug'
p1541
I2591
sS'thaw'
p1542
I273
sS'that'
p1543
I27
sS'breadth'
p1544
I3385
sS'season'
p1545
I668
sS'shawl'
p1546
I3125
sS'pelting'
p1547
I291
sS'dissolving'
p1548
I1866
sS'hut'
p1549
I3419
sS'flowery'
p1550
I1593
sS'inexpressibly'
p1551
I1653
sS'ridiculous'
p1552
I645
sS'girded'
p1553
I1465
sS'copy'
p1554
I1250
sS'than'
p1555
I174
sS'population'
p1556
I790
sS'wide'
p1557
I1080
sS'sailing'
p1558
I2113
sS'compactness'
p1559
I2930
sS'depressed'
p1560
I4113
sS'scraping'
p1561
I221
sS'transferred'
p1562
I4134
sS'tints'
p1563
I3737
sS'coats'
p1564
I3971
sS'future'
p1565
I3285
sS'apples'
p1566
I2753
sS'were'
p1567
I108
sS'gigantic'
p1568
I3062
sS'wandering'
p1569
I1663
sS'recoiled'
p1570
I4057
sS'and'
p1571
I37
sS'addressing'
p1572
I695
sS'twisting'
p1573
I3513
sS'tasted'
p1574
I2207
sS'angel'
p1575
I4237
sS'remained'
p1576
I3711
sS'patted'
p1577
I4316
sS'occupies'
p1578
I796
sS'turned'
p1579
I862
sS'sad'
p1580
I124
sS'dash'
p1581
I4319
sS'winding'
p1582
I1961
sS'say'
p1583
I61
sS'plunge'
p1584
I3203
sS'cross-roads'
p1585
I1987
sS'buried'
p1586
I550
sS'proclaimed'
p1587
I2702
sS'companions'
p1588
I3572
sS'recover'
p1589
I3802
sS'saw'
p1590
I340
sS'any'
p1591
I175
sS'sat'
p1592
I377
sS'clung'
p1593
I3456
sS'hooded'
p1594
I3368
sS'form'
p1595
I2042
sS'fashionable'
p1596
I3100
sS'general'
p1597
I3001
sS'answering'
p1598
I3656
sS'aside'
p1599
I1798
sS'dining'
p1600
I3049
sS'mr.'
p1601
I696
sS'unavailing'
p1602
I1573
sS'take'
p1603
I1198
sS'thermometer'
p1604
I1910
sS'mused'
p1605
I1519
sS'many'
p1606
I110
sS'blunt'
p1607
I3652
sS'visitation'
p1608
I1774
sS'begin'
p1609
I18
sS'sure'
p1610
I495
sS'altered'
p1611
I2484
sS'trace'
p1612
I2851
sS'opposite'
p1613
I425
sS'syllable'
p1614
I1697
sS'revolving'
p1615
I3876
sS'price'
p1616
I2564
sS'knew'
p1617
I100
sS'pharaoh'
p1618
I1219
sS'elbows'
p1619
I3964
sS'paid'
p1620
I4293
sS'entreaty'
p1621
I295
sS'sheets'
p1622
I4001
sS'bowels'
p1623
I1326
sS'knee'
p1624
I3781
sS'flannel'
p1625
I4051
sS'cleared'
p1626
I2287
sS']'
I516
sS'conspicuous'
p1627
I2913
sS'queens'
p1628
I1221
sS'pleasantry'
p1629
I3830
sS'especially'
p1630
I2346
sS'surprising'
p1631
I2721
sS'cloth'
p1632
I3083
sS'considered'
p1633
I3262
sS'later'
p1634
I2441
sS'sisters'
p1635
I3361
sS'hungry'
p1636
I933
sS'gracefully'
p1637
I2330
sS'mrs'
p1638
I3967
sS'bade'
p1639
I2211
sS'joys'
p1640
I1945
sS'stockings'
p1641
I4236
sS'hear'
p1642
I384
sS'trembled'
p1643
I1469
sS'quantity'
p1644
I1527
sS'shop'
p1645
I3908
sS'walking'
p1646
I486
sS'shot'
p1647
I4273
sS'surplus'
p1648
I789
sS'show'
p1649
I2516
sS'hustled'
p1650
I3151
sS'cravat'
p1651
I1195
sS'cheap'
p1652
I1161
sS'supposition'
p1653
I2492
sS'fifty'
p1654
I894
sS'dirge'
p1655
I1658
sS'bright'
p1656
I1748
sS'negus'
p1657
I2356
sS'mountains'
p1658
I3923
sS'shoe'
p1659
I2550
sS'threshold'
p1660
I1041
sS'corner'
p1661
I843
sS'array'
p1662
I4322
sS'line'
p1663
I3940
sS'ground'
p1664
I1528
sS'spoons'
p1665
I3194
sS'plunder'
p1666
I3987
sS'slow'
p1667
I1514
sS'despairingly'
p1668
I2150
sS'stair'
p1669
I2616
sS'repress'
p1670
I4117
sS'plume'
p1671
I2676
sS'dick'
p1672
I2264
sS'enough'
p1673
I500
sS'texture'
p1674
I1335
sS'short'
p1675
I1550
sS'only'
p1676
I304
sS'going'
p1677
I152
sS'black'
p1678
I1035
sS'shutters'
p1679
I2269
sS'incredulous'
p1680
I1339
sS'dreamed'
p1681
I4149
sS'outrage'
p1682
I3615
sS'robe'
p1683
I1917
sS'caroline'
p1684
I4122
sS'wilfully'
p1685
I1893
sS'plump'
p1686
I3559
sS'lighted'
p1687
I847
sS'rejoiced'
p1688
I1981
sS'uncles'
p1689
I3363
sS'get'
p1690
I639
sS'moons'
p1691
I2383
sS'freezing'
p1692
I1911
sS'expectation'
p1693
I1479
sS'clang'
p1694
I4255
sS'chalked'
p1695
I3995
sS'loath'
p1696
I2176
sS'rejoices'
p1697
I773
sS'tailor'
p1698
I898
sS'slyness'
p1699
I2902
sS'nearly'
p1700
I1592
sS'slily'
p1701
I827
sS'distinctly'
p1702
I145
sS'unfastened'
p1703
I4018
sS'clearest'
p1704
I2871
sS'stroll'
p1705
I168
sS'prime'
p1706
I2438
sS'fur-booted'
p1707
I3369
sS'beseech'
p1708
I4107
sS'resource'
p1709
I3775
sS'lame'
p1710
I3162
sS'keenly'
p1711
I770
sS'resorts'
p1712
I4182
sS'seldom'
p1713
I3427
sS'yield'
p1714
I2490
sS'morning'
p1715
I978
sS'naked'
p1716
I2145
sS'jokes'
p1717
I1379
sS'roger'
p1718
I2363
sS'predicted'
p1719
I458
sS'liable'
p1720
I1920
sS'pang'
p1721
I4304
sS'retentive'
p1722
I2016
sS'where'
p1723
I297
sS'communicated'
p1724
I1257
sS'vision'
p1725
I1411
sS'_am_'
p1726
I4333
sS'whispered'
p1727
I4276
sS'morose'
p1728
I503
sS'burst'
p1729
I3674
sS'raged'
p1730
I3442
sS'professes'
p1731
I2459
sS'committed'
p1732
I2994
sS'bran-new'
p1733
I2352
sS'bounds'
p1734
I1982
sS'doings'
p1735
I3060
sS'asleep'
p1736
I1707
sS'mounting'
p1737
I3190
sS'seal'
p1738
I3989
sS'unaltered'
p1739
I3284
sS'calendar'
p1740
I580
sS'sport'
p1741
I2553
sS'purest'
p1742
I1830
sS'pent-house'
p1743
I3909
sS'wonder'
p1744
I625
sS')'
I989
sS'receipt'
p1745
I3332
sS'farmers'
p1746
I1970
sS'ways'
p1747
I3890
sS'alarming'
p1748
I1736
sS'solemnised'
p1749
I134
sS'weapons'
p1750
I925
sS'behind'
p1751
I1105
sS'rail'
p1752
I3576
sS'between'
p1753
I1628
sS'half-thawed'
p1754
I2052
sS'justified'
p1755
I1534
sS'reading'
p1756
I2039
sS'across'
p1757
I1128
sS'travels'
p1758
I3698
sS'shivered'
p1759
I1599
sS'questioning'
p1760
I3658
sS'spring'
p1761
I1726
sS'apparition'
p1762
I1437
sS'screen'
p1763
I3957
sS'tut'
p1764
I2631
sS'scrutinise'
p1765
I3922
sS'blame'
p1766
I2634
sS'countenance'
p1767
I1612
sS'jovial'
p1768
I2261
sS'spare'
p1769
I1150
sS'hurts'
p1770
I4150
sS'menacing'
p1771
I3746
sS'fat'
p1772
I2260
sS'spark'
p1773
I615
sS'come'
p1774
I150
sS'receded'
p1775
I1809
sS'undermine'
p1776
I3445
sS'tug'
p1777
I342
sS'stages'
p1778
I2336
sS'conversed'
p1779
I3816
sS'cramp'
p1780
I3045
sS'spared'
p1781
I3286
sS'residence'
p1782
I1048
sS'twelfth-night'
p1783
I3713
sS'trades'
p1784
I876
sS'kindnesses'
p1785
I3609
sS'contract'
p1786
I2473
sS'pray'
p1787
I1594
sS'loudly'
p1788
I1270
sS'conducting'
p1789
I2531
sS'wheels'
p1790
I2218
sS'expression'
p1791
I636
sS'comes'
p1792
I1489
sS'considering'
p1793
I1777
sS'among'
p1794
I567
sS'afterwards'
p1795
I198
sS'bricks'
p1796
I3931
sS'pot'
p1797
I2344
sS'period'
p1798
I1895
sS'inexplicable'
p1799
I1262
sS'satisfaction'
p1800
I3535
sS'wreaths'
p1801
I2745
sS'stretched'
p1802
I3807
sS'merriest'
p1803
I2168
sS'_have_'
p1804
I2482
sS'consider'
p1805
I3858
sS'sticks'
p1806
I2962
sS'caring'
p1807
I1159
sS'sensible'
p1808
I609
sS'unusual'
p1809
I1948
sS'gas-pipes'
p1810
I846
sS'bitter'
p1811
I1199
sS'stretch'
p1812
I3337
sS'coal-box'
p1813
I454
sS'mark'
p1814
I1499
sS'breath'
p1815
I492
sS'shuddering'
p1816
I4054
sS'wheezing'
p1817
I388
sS'likewise'
p1818
I3644
sS'hardly'
p1819
I3798
sS'disclosed'
p1820
I2031
sS'direction'
p1821
I3628
sS'lanes'
p1822
I3013
sS'lustily'
p1823
I3518
sS'thousand'
p1824
I1940
sS'formed'
p1825
I1825
sS'sturdily'
p1826
I1099
sS'implored'
p1827
I323
sS'chafed'
p1828
I3451
sS'tiger'
p1829
I3671
sS'observe'
p1830
I2521
sS'external'
p1831
I275
sS'obscuring'
p1832
I431
sS'meagre'
p1833
I2200
sS'spirit'
p1834
I920
sS'those'
p1835
I784
sS'sound'
p1836
I616
sS'predicament'
p1837
I2711
sS'myself'
p1838
I72
sS'broad-girthed'
p1839
I2894
sS'crumb'
p1840
I1371
sS'dusted'
p1841
I3187
sS'these'
p1842
I698
sS'jostled'
p1843
I3028
sS'sobbed'
p1844
I1992
sS'cask'
p1845
I1119
sS"n't"
p1846
I59
sS'cast'
p1847
I3303
sS'freely'
p1848
I586
sS'situation'
p1849
I620
sS'shops'
p1850
I866
sS'slippers'
p1851
I1196
sS'fool'
p1852
I4037
sS'pleasantest-spoken'
p1853
I4166
sS'brow'
p1854
I1602
sS'engaged'
p1855
I3494
sS'nightcap'
p1856
I1197
sS'sleeping'
p1857
I3483
sS'couples'
p1858
I2339
sS'middle'
p1859
I1310
sS'good'
p1860
I43
sS'embrace'
p1861
I2172
sS'return'
p1862
I3695
sS'property'
p1863
I3093
sS'multitudes'
p1864
I3873
sS'ivy'
p1865
I2729
sS'candied'
p1866
I2965
sS'bags'
p1867
I2936
sS'different'
p1868
I4180
sS'enshrouded'
p1869
I1691
sS'inquire'
p1870
I1896
sS'pay'
p1871
I969
sS'tucker'
p1872
I3561
sS'bowl'
p1873
I2939
sS'rampant'
p1874
I3148
sS'same'
p1875
I213
sS'gentlemen'
p1876
I686
sS'dining-room'
p1877
I4321
sS'unwept'
p1878
I4068
sS'inquiry'
p1879
I1763
sS'triumphantly'
p1880
I1792
sS'agitated'
p1881
I1401
sS'deference'
p1882
I1518
sS'struggling'
p1883
I2581
sS'surprised-looking'
p1884
I3523
sS'week'
p1885
I676
sS'noble'
p1886
I3504
sS'even-handed'
p1887
I2456
sS'drowsiness'
p1888
I2648
sS'clue'
p1889
I3867
sS'blacker'
p1890
I2837
sS'enjoyment'
p1891
I3047
sS'deliberating'
p1892
I3329
sS'defy'
p1893
I3579
sS'assist'
p1894
I1681
sS'companion'
p1895
I3479
sS'driven'
p1896
I1969
sS'persons'
p1897
I2931
sS'running'
p1898
I1742
sS'lamentation'
p1899
I1651
sS'jaws'
p1900
I1630
sS'frisked'
p1901
I4241
sS'persecuted'
p1902
I1415
sS'outstretched'
p1903
I3786
sS'cheery'
p1904
I2795
sS'bitterer'
p1905
I285
sS'passing'
p1906
I3422
sS'reference'
p1907
I3883
sS'trouble'
p1908
I1438
sS'aunts'
p1909
I3364
sS'utterance'
p1910
I2435
sS'floor'
p1911
I1478
sS'revellers'
p1912
I3020
sS'look-out'
p1913
I2672
sS'breezy'
p1914
I184
sS'severe'
p1915
I2824
sS'without'
p1916
I421
sS'poplar'
p1917
I2058
sS'relief'
p1918
I1750
sS'bottle'
p1919
I3589
sS'trains'
p1920
I1888
sS'strive'
p1921
I4212
sS'bumping'
p1922
I3617
sS'figs'
p1923
I2975
sS'sinner'
p1924
I224
sS'heaps'
p1925
I3454
sS'summer'
p1926
I1843
sS'leafless'
p1927
I2055
sS'fellow-beings'
p1928
I1580
sS'being'
p1929
I6
sS'money'
p1930
I524
sS'dancers'
p1931
I2349
sS'rest'
p1932
I568
sS'whereat'
p1933
I3558
sS'shouts'
p1934
I2596
sS'bareness'
p1935
I2025
sS'violent'
p1936
I2697
sS'growled'
p1937
I644
sS'greetings'
p1938
I667
sS'touch'
p1939
I921
sS'flutterings'
p1940
I3631
sS'inaudible'
p1941
I3696
sS'weekly'
p1942
I3327
sS'announcement'
p1943
I2600
sS'blot'
p1944
I1369
sS'fezziwigs'
p1945
I2310
sS'thinking'
p1946
I1898
sS'rose'
p1947
I1916
sS'except'
p1948
I1044
sS'improvement'
p1949
I3865
sS'setting'
p1950
I2928
sS'pile'
p1951
I1022
sS'astonishment'
p1952
I1260
sS'ghostly'
p1953
I1074
sS'mournful'
p1954
I1039
sS'heavier'
p1955
I2859
sS'joyful'
p1956
I2798
sS'skies'
p1957
I3113
sS'real'
p1958
I2071
sS'easily'
p1959
I4177
sS'read'
p1960
I1008
sS'ruler'
p1961
I939
sS'sums'
p1962
I3996
sS'dark'
p1963
I183
sS'earnest'
p1964
I3521
sS'_she_'
p1965
I4325
sS'bandage'
p1966
I1427
sS'listening'
p1967
I1656
sS'aprons'
p1968
I2999
sS'credentials'
p1969
I708
sS'disappointed'
p1970
I3149
sS'vague'
p1971
I3804
sS'dare'
p1972
I566
sS'tremulous'
p1973
I836
sS'acquainted'
p1974
I2677
sS'fortune'
p1975
I2432
sS'heightened'
p1976
I2104
sS'stranger'
p1977
I1095
sS'pounds'
p1978
I2419
sS'smell'
p1979
I3237
sS'indicting'
p1980
I1535
sS'miracle'
p1981
I4125
sS'roll'
p1982
I4021
sS'sternly'
p1983
I555
sS'chamber'
p1984
I1258
sS'lookers-on'
p1985
I2971
sS'nose'
p1986
I245
sS'served'
p1987
I3270
sS'tower'
p1988
I821
sS'clap'
p1989
I2270
sS'grouping'
p1990
I2338
sS'twelve'
p1991
I1624
sS'satisfactory'
p1992
I3531
sS'laugh'
p1993
I2161
sS'doll'
p1994
I2601
sS'shillings'
p1995
I675
sS'fluttered'
p1996
I4227
sS'reversed'
p1997
I4220
sS'calling'
p1998
I2690
sS'perspiration'
p1999
I1601
sS'lobster'
p2000
I1070
sS'table'
p2001
I1168
sS'roses'
p2002
I3562
sS'thinks'
p2003
I3159
sS'booming'
p2004
I1292
sS'provided'
p2005
I1396
sS'passions'
p2006
I1886
sS'mood'
p2007
I3653
sS'lessons'
p2008
I4213
sS'freer'
p2009
I2064
sS'noon'
p2010
I1735
sS'defenceless'
p2011
I2583
sS'dimpled'
p2012
I3522
sS'moor'
p2013
I3399
sS'garret'
p2014
I908
sS"'heartily"
p2015
I4170
sS'compulsion'
p2016
I2814
sS'declension'
p2017
I3146
sS'porter'
p2018
I2345
sS'measuring'
p2019
I2552
sS'muttered'
p2020
I672
sS'marriage'
p2021
I3255
sS'welcome'
p2022
I3378
sS'business'
p2023
I129
sS'poem'
p2024
I2529
sS'nails'
p2025
I3917
sS'boisterous'
p2026
I2574
sS'sprung'
p2027
I1847
sS'fezziwig'
p2028
I2251
sS'flushed'
p2029
I2573
sS'broken'
p2030
I2001
sS'market'
p2031
I3668
sS'snuff-box'
p2032
I3822
sS'terrified'
p2033
I1108
sS'sixty'
p2034
I1481
sS'luxurious'
p2035
I3108
sS'sullen'
p2036
I3415
sS'_'
I514
sS'on'
p2037
I130
sS'stone'
p2038
I1031
sS'oh'
p2039
I215
sS'roar'
p2040
I3675
sS'of'
p2041
I9
sS'industry'
p2042
I2477
sS'cares'
p2043
I1946
sS'meaning'
p2044
I2805
sS'boldly'
p2045
I2329
sS'fell'
p2046
I642
sS'greatly'
p2047
I726
sS'pockets'
p2048
I1510
sS'act'
p2049
I1139
sS'doze'
p2050
I1784
sS'washing-day'
p2051
I3238
sS'lofty'
p2052
I2302
sS'or'
p2053
I90
sS'stony'
p2054
I1412
sS'barrels'
p2055
I2748
sS'ladies'
p2056
I3538
sS'lands'
p2057
I3701
sS'burning'
p2058
I2640
sS'afforded'
p2059
I4043
sS'image'
p2060
I3870
sS'blessed'
p2061
I1581
sS'steadiness'
p2062
I1858
sS'rising'
p2063
I4065
sS'heated'
p2064
I484
sS'hark'
p2065
I3718
sS'your'
p2066
I531
sS'intervention'
p2067
I2667
sS'residuary'
p2068
I116
sS'her'
p2069
I2155
sS'endeavouring'
p2070
I761
sS'removing'
p2071
I3951
sS'strictly'
p2072
I3847
sS'there'
p2073
I21
sS'hey'
p2074
I3849
sS'pulpy'
p2075
I2977
sS'sides'
p2076
I3512
sS'drank'
p2077
I3316
sS'low'
p2078
I267
sS'colder'
p2079
I916
sS'spring-time'
p2080
I2624
sS'sale'
p2081
I885
sS'fish'
p2082
I1183
sS'rallied'
p2083
I3155
sS'miserable'
p2084
I3730
sS'yearned'
p2085
I3098
sS'broadwise'
p2086
I1144
sS'wits'
p2087
I2404
sS'regard'
p2088
I73
sS'amongst'
p2089
I3620
sS'shroud'
p2090
I3806
sS'curiously'
p2091
I1078
sS"fellow-'prentice"
p2092
I2267
sS'grieved'
p2093
I4153
sS'bewildering'
p2094
I3333
sS'to-day'
p2095
I2499
sS'mice'
p2096
I2049
sS'trying'
p2097
I2322
sS'with'
p2098
I19
sS'handsome'
p2099
I490
sS'rush'
p2100
I2569
sS'excrescence'
p2101
I3826
sS'potato'
p2102
I1375
sS'tiptoe'
p2103
I2171
sS'tiny'
p2104
I2159
sS'scorning'
p2105
I2347
sS'dirty'
p2106
I2139
sS'dressing-gown'
p2107
I1177
sS'grass'
p2108
I2015
sS'powerless'
p2109
I2703
sS'affection'
p2110
I2595
sS'darker'
p2111
I2138
sS'gone'
p2112
I399
sS'celestial'
p2113
I2188
sS'escaping'
p2114
I1608
sS'exhausted'
p2115
I2350
sS'certain'
p2116
I2240
sS'am'
p2117
I151
sS'deep'
p2118
I1280
sS'fellow'
p2119
I671
sS'imagination'
p2120
I469
sS'as'
p2121
I53
sS'at'
p2122
I169
sS'walks'
p2123
I2921
sS'sheath'
p2124
I2802
sS'encompass'
p2125
I3813
sS'horse'
p2126
I3147
sS'bishop'
p2127
I4345
sS'fill'
p2128
I4352
sS'again'
p2129
I494
sS'fiddler'
p2130
I2300
sS'beaming'
p2131
I2311
sS'rubbed'
p2132
I2254
sS'idiot'
p2133
I543
sS'washing-stand'
p2134
I1185
sS'green'
p2135
I1837
sS'aromatic'
p2136
I3566
sS'thither'
p2137
I1665
sS'tight'
p2138
I1424
sS'longed'
p2139
I4074
sS'evenings'
p2140
I4152
sS'snuffed'
p2141
I957
sS'instantly'
p2142
I956
sS'fools'
p2143
I520
sS'harp'
p2144
I3599
sS'dismayed'
p2145
I1588
sS'_are_'
p2146
I2478
sS'poor'
p2147
I499
sS'briefly'
p2148
I2231
sS'blessing'
p2149
I3707
sS'winking'
p2150
I854
sS'separate'
p2151
I1123
sS'desolation'
p2152
I3414
sS'time'
p2153
I373
sS'despoil'
p2154
I2588
sS'peal'
p2155
I1124
sS'gayest'
p2156
I3009
sS'intimation'
p2157
I480
sS'serious'
p2158
I4114
sS'included'
p2159
I4312
sS'pooh'
p2160
I1115
sS'awkwardly'
p2161
I2331
sS'building'
p2162
I1023
sS'backward'
p2163
I1638
sS'well-remembered'
p2164
I1994
sS'fraught'
p2165
I2481
sS'wife'
p2166
I677
sS'sobbing'
p2167
I4229
sS'tricks'
p2168
I2952
sS'groom'
p2169
I2091
sS'feebly'
p2170
I3212
sS'sounded'
p2171
I1793
sS'wherever'
p2172
I3621
sS'mourner'
p2173
I39
sS'apparel'
p2174
I4004
sS'platter'
p2175
I2608
sS'resolution'
p2176
I1781
sS'robert'
p2177
I3314
sS'all'
p2178
I212
sS'surrounded'
p2179
I1480
sS'race-horses'
p2180
I2280
sS'founder'
p2181
I3305
sS'ali'
p2182
I2079
sS'caused'
p2183
I4105
sS'long-expected'
p2184
I3204
sS'wreath'
p2185
I2789
sS'splitting'
p2186
I2833
sS'_such_'
p2187
I3124
sS'ladders'
p2188
I2586
sS'ceased'
p2189
I1274
sS'thoughtful'
p2190
I1508
sS'forged'
p2191
I1463
sS'foggy'
p2192
I382
sS'dish'
p2193
I3224
sS'follow'
p2194
I2509
sS'meditation'
p2195
I1040
sS'lace'
p2196
I3560
sS'children'
p2197
I326
sS'slunk'
p2198
I3946
sS'dreadful'
p2199
I1436
sS'glimpse'
p2200
I1701
sS'wanton'
p2201
I2901
sS'red-hot'
p2202
I2750
sS'referring'
p2203
I692
sS'homage'
p2204
I660
sS'juicy'
p2205
I2754
sS'pledged'
p2206
I3693
sS'subsided'
p2207
I2617
sS'opportunities'
p2208
I1556
sS'laughing'
p2209
I2102
sS'unseemly'
p2210
I3924
sS'to'
p2211
I17
sS'tail'
p2212
I1312
sS'friday'
p2213
I2117
sS'preserved'
p2214
I3282
sS'walk-er'
p2215
I4270
sS'dressing'
p2216
I2239
sS'smile'
p2217
I2308
sS'hideous'
p2218
I3729
sS'paying'
p2219
I522
sS'belonging'
p2220
I574
sS'woman'
p2221
I329
sS'returned'
p2222
I501
sS'confidential'
p2223
I3641
sS'returning'
p2224
I1405
sS'very'
p2225
I131
sS'horror'
p2226
I1085
sS'facetious'
p2227
I807
sS'floated'
p2228
I1659
sS'twice-turned'
p2229
I3077
sS'heavenly'
p2230
I4259
sS'griping'
p2231
I4095
sS'balancing'
p2232
I530
sS'offal'
p2233
I3913
sS'decide'
p2234
I3294
sS'surprise'
p2235
I1194
sS'awful'
p2236
I1395
sS'gainsay'
p2237
I2227
sS'condition'
p2238
I1354
sS'trigger'
p2239
I4274
sS'groups'
p2240
I3817
sS'heaven'
p2241
I1779
sS'norfolk'
p2242
I2924
sS'house-fronts'
p2243
I2836
sS'cable'
p2244
I1484
sS'--'
p2245
I186
sS'list'
p2246
I693
sS'joined'
p2247
I1657
sS'large'
p2248
I437
sS'sang'
p2249
I3345
sS'dusky'
p2250
I3393
sS'small'
p2251
I447
sS'disused'
p2252
I1256
sS'locomotive'
p2253
I1152
sS'manslaughter'
p2254
I2685
sS'rats'
p2255
I4098
sS'overflowings'
p2256
I859
sS'ten'
p2257
I2700
sS'tea'
p2258
I2955
sS'streets'
p2259
I906
sS'preposterous'
p2260
I1729
sS'self-contained'
p2261
I236
sS'intricate'
p2262
I2849
sS'rate'
p2263
I1589
sS'carriages'
p2264
I818
sS'pass'
p2265
I1542
sS'further'
p2266
I2649
sS'destitute'
p2267
I724
sS'chuckle'
p2268
I4292
sS'creatures'
p2269
I594
sS'grinning'
p2270
I4175
sS'what'
p2271
I66
sS'stood'
p2272
I197
sS'darkness'
p2273
I811
sS'clock'
p2274
I1721
sS'lamp-lighter'
p2275
I3391
sS'sun'
p2276
I1734
sS'stool'
p2277
I951
sS'brief'
p2278
I2512
sS'emotions'
p2279
I2615
sS'witnesses'
p2280
I3228
sS'faltered'
p2281
I1558
sS'condescension'
p2282
I2181
sS'fathoms'
p2283
I1482
sS'imperceptibly'
p2284
I3691
sS'learned'
p2285
I2497
sS'half-recumbent'
p2286
I1801
sS'public'
p2287
I2291
sS'multitude'
p2288
I759
sS'violently'
p2289
I4230
sS'exulted'
p2290
I3383
sS'full'
p2291
I744
sS'ferocious'
p2292
I1072
sS'mad'
p2293
I2831
sS'presence'
p2294
I3791
sS'loose'
p2295
I2560
sS'raked'
p2296
I3958
sS'leaping'
p2297
I4334
sS'forgive'
p2298
I3051
sS'hours'
p2299
I833
sS'topper'
p2300
I3554
sS'_her_'
p2301
I2373
sS'trunk'
p2302
I2208
sS'hast'
p2303
I4081
sS'strong'
p2304
I468
sS'observing'
p2305
I1322
sS'transformation'
p2306
I2722
sS'abject'
p2307
I3728
sS'extraordinary'
p2308
I2101
sS'stretching'
p2309
I3769
sS'metal'
p2310
I3954
sS'mouldy'
p2311
I3573
sS'drawers'
p2312
I2088
sS'extremes'
p2313
I2686
sS'misery'
p2314
I1685
sS'action'
p2315
I941
sS'chain'
p2316
I1283
sS'narrow'
p2317
I1501
sS'struggle'
p2318
I2493
sS'sticking'
p2319
I1111
sS'followed'
p2320
I510
sS'murmur'
p2321
I3208
sS'family'
p2322
I678
sS'turkey'
p2323
I2605
sS'suddenly'
p2324
I860
sS'clapping'
p2325
I2158
sS'solitude'
p2326
I858
sS'_that_'
p2327
I4169
sS'capital'
p2328
I3524
sS'put'
p2329
I50
sS'cork-screw'
p2330
I2387
sS'indoors'
p2331
I1429
sS'lurked'
p2332
I3745
sS'toys'
p2333
I2578
sS'globes'
p2334
I2190
sS'helmsman'
p2335
I3473
sS'discuss'
p2336
I4342
sS'wanted'
p2337
I3973
sS'eye'
p2338
I353
sS'takes'
p2339
I3541
sS'glittered'
p2340
I1861
sS'distinct'
p2341
I1872
sS'beginning'
p2342
I2539
sS'wiped'
p2343
I1600
sS'faint'
p2344
I2972
sS'rub'
p2345
I1739
sS'two'
p2346
I684
sS'pears'
p2347
I2757
sS'damaged'
p2348
I3466
sS'praised'
p2349
I4155
sS'deadest'
p2350
I75
sS'fragrance'
p2351
I2920
sS'taken'
p2352
I1143
sS'rejoined'
p2353
I2454
sS'kick'
p2354
I2593
sS'hurrah'
p2355
I3123
sS'rubbing'
p2356
I4277
sS'spoil'
p2357
I4042
sS'more'
p2358
I165
sS'horses'
p2359
I817
sS'lowering'
p2360
I1021
sS'wretched'
p2361
I1682
sS'door'
p2362
I201
sS'knows'
p2363
I2495
sS'handsomely'
p2364
I312
sS'brisk'
p2365
I2826
sS'furze'
p2366
I3408
sS'possession'
p2367
I1749
sS'excuse'
p2368
I792
sS'ate'
p2369
I3225
sS'keyhole'
p2370
I419
sS'broke'
p2371
I1787
sS'particular'
p2372
I1042
sS'known'
p2373
I204
sS'workhouses'
p2374
I737
sS'doom'
p2375
I3764
sS'producing'
p2376
I4050
sS'goblets'
p2377
I3269
sS'glad'
p2378
I751
sS'town'
p2379
I1000
sS'keeping'
p2380
I1386
sS'carelessly'
p2381
I4072
sS'hour'
p2382
I528
sS'strain'
p2383
I3606
sS'knocker'
p2384
I1043
sS'forbearance'
p2385
I1564
sS'remain'
p2386
I3283
sS'sudden'
p2387
I1772
sS'nine'
p2388
I2278
sS'den'
p2389
I3903
sS'learn'
p2390
I3601
sS'knocked'
p2391
I2249
sS'grope'
p2392
I1033
sS'rigid'
p2393
I2440
sS'spontaneous'
p2394
I2707
sS'pick'
p2395
I3969
sS'beautiful'
p2396
I1834
sS'purchases'
p2397
I2992
sS'embarrassing'
p2398
I1357
sS'cherry-cheeked'
p2399
I2752
sS'joints'
p2400
I2743
sS'onslaught'
p2401
I2582
sS'share'
p2402
I1456
sS'sticking-plaster'
p2403
I4301
sS'states'
p2404
I1755
sS'sphere'
p2405
I1548
sS'fiercely'
p2406
I3444
sS'numbers'
p2407
I3375
sS'sense'
p2408
I1938
sS'sharp'
p2409
I226
sS'cultivate'
p2410
I3502
sS'swung'
p2411
I1265
sS'dress'
p2412
I1841
sS'condemn'
p2413
I2460
sS'!'
I56
sS'extinguisher'
p2414
I1855
sS'mince-pies'
p2415
I2358
sS'court'
p2416
I385
sS'rather'
p2417
I786
sS'comfort'
p2418
I1487
sS'pressing'
p2419
I3637
sS'dismissed'
p2420
I2290
sS'maps'
p2421
I2187
sS'glowing'
p2422
I2767
sS'sacred'
p2423
I572
sS'extinguished'
p2424
I612
sS'relinquished'
p2425
I1098
sS'sleeve-buttons'
p2426
I3991
sS'unearthly'
p2427
I1802
sS'stir'
p2428
I1745
sS'creature'
p2429
I2225
sS'waved'
p2430
I2134
sS'tumbled'
p2431
I2988
sS'sprinkle'
p2432
I3041
sS'ubiquitous'
p2433
I3173
sS'tried'
p2434
I464
sS'rude'
p2435
I2545
sS'thickened'
p2436
I812
sS'calm'
p2437
I3943
sS'lustiest'
p2438
I4251
sS'derived'
p2439
I564
sS'ill-will'
p2440
I949
sS'thawed'
p2441
I2858
sS'consequence'
p2442
I3543
sS"'prentices"
p2443
I2400
sS'blood'
p2444
I1091
sS'coming'
p2445
I341
sS'_not_'
p2446
I1859
sS'pleaded'
p2447
I554
sS'bloom'
p2448
I1817
sS'bleak'
p2449
I380
sS'harsh'
p2450
I2439
sS'a'
I1
sS'profited'
p2451
I565
sS'humbug'
p2452
I483
sS'misanthropic'
p2453
I863
sS'crowded'
p2454
I362
sS'devote'
p2455
I3613
sS'coat'
p2456
I1325
sS'quoted'
p2457
I3287
sS'register'
p2458
I29
sS'artful'
p2459
I2361
sS'spectre'
p2460
I1387
sS'deserted'
p2461
I1990
sS'coal'
p2462
I451
sS'shore'
p2463
I3449
sS'dread'
p2464
I1263
sS'shade'
p2465
I1346
sS'alphabet'
p2466
I3643
sS'pleasure'
p2467
I694
sS'dream'
p2468
I1764
sS'playing'
p2469
I1027
sS'replied'
p2470
I700
sS'knots'
p2471
I4019
sS'infant'
p2472
I1683
sS'help'
p2473
I779
sS'developed'
p2474
I1545
sS'flowers'
p2475
I1844
sS'tumbling'
p2476
I2890
sS'soon'
p2477
I1268
sS'trade'
p2478
I78
sS'held'
p2479
I1114
sS'attitude'
p2480
I1180
sS'paper'
p2481
I2935
sS'through'
p2482
I535
sS'signs'
p2483
I2442
sS'ignorance'
p2484
I3761
sS'coal-scuttle'
p2485
I4346
sS'smiling'
p2486
I3242
sS'suffer'
p2487
I725
sS'its'
p2488
I289
sS"_that's_"
p2489
I3584
sS'officious'
p2490
I3127
sS'susceptible'
p2491
I1544
sS'fined'
p2492
I900
sS'brigands'
p2493
I2543
sS'labours'
p2494
I804
sS'deeds'
p2495
I1318
sS'late'
p2496
I2129
sS'harmless'
p2497
I3388
sS'parts'
p2498
I1867
sS'snowball'
p2499
I2878
sS'astonish'
p2500
I192
sS'attended'
p2501
I2577
sS'dwarfish'
p2502
I1878
sS'followers'
p2503
I2313
sS'travelling'
p2504
I1520
sS'governments'
p2505
I1670
sS'might'
p2506
I68
sS'forbear'
p2507
I3290
sS'evening'
p2508
I1011
sS'somebody'
p2509
I3230
sS'reappearance'
p2510
I2348
sS'yo'
p2511
I2262
sS'dim'
p2512
I2626
sS'cupola'
p2513
I1999
sS'contortions'
p2514
I3515
sS'ye'
p2515
I3130
sS'bought'
p2516
I3914
sS'eat'
p2517
I2029
sS'obeyed'
p2518
I2720
sS'walls'
p2519
I1712
sS'moaning'
p2520
I1668
sS'compound'
p2521
I3261
sS'reply'
p2522
I3682
sS'doing'
p2523
I4000
sS'gaol'
p2524
I3704
sS'detach'
p2525
I3788
sS'parlours'
p2526
I3356
sS'groped'
p2527
I1738
sS'mystery'
p2528
I3784
sS'feet'
p2529
I392
sS'likeness'
p2530
I3872
sS'elder'
p2531
I2806
sS'always'
p2532
I269
sS'presented'
p2533
I539
sS'loosely'
p2534
I2780
sS'bless'
p2535
I604
sS'courses'
p2536
I4202
sS'disdaining'
p2537
I2781
sS'snow-storms'
p2538
I2835
sS'stopped'
p2539
I314
sS'turns'
p2540
I1252
sS'found'
p2541
I1633
sS'duller'
p2542
I1853
sS'mercy'
p2543
I1435
sS'heavy'
p2544
I1162
sS'filberts'
p2545
I2918
sS'harm'
p2546
I3570
sS'begged'
p2547
I1883
sS'restless'
p2548
I1666
sS'weight'
p2549
I1471
sS'generation'
p2550
I3424
sS'resolute'
p2551
I656
sS'energy'
p2552
I940
sS'hard'
p2553
I225
sS'idea'
p2554
I1598
sS'watered'
p2555
I2294
sS'finish'
p2556
I3129
sS'expect'
p2557
I1619
sS'thoughtfully'
p2558
I2133
sS'blithe'
p2559
I3432
sS'operation'
p2560
I740
sS'beyond'
p2561
I442
sS'event'
p2562
I125
sS'braided'
p2563
I2547
sS'really'
p2564
I589
sS'inquired'
p2565
I332
sS'dears'
p2566
I3274
sS'veneration'
p2567
I570
sS'creditor'
p2568
I4136
sS'missed'
p2569
I1786
sS'visions'
p2570
I4181
sS'childish'
p2571
I2174
sS'since'
p2572
I775
sS'jolly'
p2573
I2148
sS'wordy'
p2574
I2881
sS'health'
p2575
I3310
sS'cheerfully'
p2576
I4160
sS'congenial'
p2577
I946
sS'issue'
p2578
I2380
sS'appearances'
p2579
I2692
sS'embarrassed'
p2580
I4120
sS'ass'
p2581
I2076
sS'_has_'
p2582
I602
sS'wisest'
p2583
I1780
sS'belief'
p2584
I2535
sS'protruding'
p2585
I3723
sS'dirt'
p2586
I3898
sS'roofs'
p2587
I2840
sS'bedlam'
p2588
I681
sS'guess'
p2589
I2630
sS'ponderous'
p2590
I1476
sS'pleasant'
p2591
I578
sS'houses'
p2592
I424
sS'reason'
p2593
I497
sS'base'
p2594
I3457
sS'brightest'
p2595
I2872
sS'members'
p2596
I1827
sS'tenderest'
p2597
I1816
sS'tassels'
p2598
I1304
sS'teach'
p2599
I2818
sS'reproach'
p2600
I2466
sS'brown-paper'
p2601
I2589
sS'owners'
p2602
I344
sS'shovelling'
p2603
I2874
sS'prophet'
p2604
I1237
sS'similarly'
p2605
I3947
sS'terrible'
p2606
I1093
sS'conducted'
p2607
I1587
sS'fruit'
p2608
I2823
sS'beggars'
p2609
I322
sS'leading'
p2610
I2074
sS'christmas-day'
p2611
I3033
sS'blush'
p2612
I2559
sS'fallen'
p2613
I3622
sS'assign'
p2614
I115
sS'delicate'
p2615
I2224
sS'ding'
p2616
I1789
sS'copper'
p2617
I3153
sS'dine'
p2618
I628
sS'gazed'
p2619
I1935
sS'cornhill'
p2620
I991
sS'feel'
p2621
I1380
sS'relate'
p2622
I153
sS'knocking'
p2623
I2568
sS'reflected'
p2624
I2730
sS'fancy'
p2625
I1049
sS'valentine'
p2626
I2084
sS'_was_'
p2627
I1343
sS'sympathy'
p2628
I366
sS'talked'
p2629
I3665
sS'done'
p2630
I92
sS'shilling'
p2631
I4272
sS'dong'
p2632
I1790
sS'blank'
p2633
I1243
sS'stated'
p2634
I4008
sS'wages'
p2635
I970
sS'mist'
p2636
I1690
sS'miss'
p2637
I2309
sS'pastrycook'
p2638
I3240
sS'story'
p2639
I8
sS'breathless'
p2640
I3201
sS'temperature'
p2641
I268
sS'jet'
p2642
I1849
sS'twenty'
p2643
I994
sS'st.'
p2644
I187
sS'obedience'
p2645
I1645
sS'least'
p2646
I1205
sS'pinned'
p2647
I2277
sS'wonderful'
p2648
I148
sS'identity'
p2649
I3636
sS'passed'
p2650
I873
sS'dealing'
p2651
I2457
sS'hundred'
p2652
I2810
sS'merciless'
p2653
I4135
sS'brown-faced'
p2654
I2893
sS'bowed'
p2655
I691
sS'feels'
p2656
I4104
sS'uproarious'
p2657
I2534
sS'month'
p2658
I4247
sS'needle'
p2659
I3648
sS'immediate'
p2660
I2437
sS'procession'
p2661
I3174
sS'rustlings'
p2662
I3630
sS'part'
p2663
I460
sS'believe'
p2664
I601
sS'stairs'
p2665
I1129
sS'grace'
p2666
I3200
sS'fred'
p2667
I3519
sS'dinner-carriers'
p2668
I3027
sS'ungrateful'
p2669
I3688
sS'kind'
p2670
I575
sS'grew'
p2671
I2136
sS'tunic'
p2672
I1829
sS'kindly'
p2673
I1547
sS'grocers'
p2674
I875
sS'double'
p2675
I1190
sS'wherefore'
p2676
I461
sS'scabbard'
p2677
I2800
sS'youth'
p2678
I3735
sS'nevertheless'
p2679
I3690
sS'cuff'
p2680
I2128
sS'supposed'
p2681
I3235
sS'attention'
p2682
I1385
sS'fringe'
p2683
I3135
sS'impulse'
p2684
I4063
sS'sister'
p2685
I2182
sS'stale'
p2686
I3738
sS"'ve"
p2687
I4265
sS'withered'
p2688
I2226
sS'vacant'
p2689
I3278
sS'dainties'
p2690
I2198
sS'mossy'
p2691
I2005
sS'heaviest'
p2692
I298
sS'ages'
p2693
I1539
sS'fireside'
p2694
I2621
sS'livery'
p2695
I1055
sS'pedestrian'
p2696
I1908
sS'substantial'
p2697
I2307
sS'alike'
p2698
I2613
sS'beseeching'
p2699
I2934
sS'three-quarters'
p2700
I3721
sS'orders'
p2701
I893
sS'lid'
p2702
I3117
sS'paths'
p2703
I363
sS'speaking'
p2704
I2422
sS'built'
p2705
I1209
sS'self'
p2706
I2044
sS'exceedingly'
p2707
I1591
sS'couch'
p2708
I2764
sS'also'
p2709
I1045
sS'labour'
p2710
I1540
sS'lip'
p2711
I1947
sS'applauded'
p2712
I606
sS'frail'
p2713
I614
sS'finding'
p2714
I525
sS'unconstrained'
p2715
I2796
sS'transparent'
p2716
I1321
sS'buff'
p2717
I1003
sS'province'
p2718
I3860
sS'play'
p2719
I162
sS'added'
p2720
I624
sS'retired'
p2721
I2399
sS'infinitely'
p2722
I4349
sS'serve'
p2723
I2094
sS'swiftly'
p2724
I3420
sS'reach'
p2725
I3390
sS'pondering'
p2726
I1511
sS'depths'
p2727
I3491
sS'most'
p2728
I1578
sS'bridle'
p2729
I2075
sS'eaten'
p2730
I2803
sS'position'
p2731
I1766
sS'nothing'
p2732
I147
sS'extremely'
p2733
I1741
sS'approving'
p2734
I3496
sS'oyster'
p2735
I238
sS'stately'
p2736
I3789
sS'salary'
p2737
I4337
sS'draped'
p2738
I3778
sS'puddings'
p2739
I2822
sS'sturdy'
p2740
I3470
sS'windows'
p2741
I406
sS'clear'
p2742
I1848
sS'sometimes'
p2743
I205
sS'doubts'
p2744
I3256
sS'gin'
p2745
I3171
sS'charitable'
p2746
I577
sS'barred'
p2747
I2276
sS'seething'
p2748
I2759
sS'intercedes'
p2749
I4210
sS'amazed'
p2750
I4124
sS'barren'
p2751
I3429
sS'weigh'
p2752
I2503
sS'charged'
p2753
I2274
sS'strutted'
p2754
I2010
sS'lying'
p2755
I2670
sS'joining'
p2756
I3463
sS'stones'
p2757
I394
sS'belle'
p2758
I2627
sS'high-road'
p2759
I1993
sS'contracted'
p2760
I3795
sS'particularly'
p2761
I67
sS'phenomenon'
p2762
I1089
sS'gold'
p2763
I598
sS'journeys'
p2764
I596
sS'blended'
p2765
I2953
sS'fond'
p2766
I4032
sS'scattered'
p2767
I2732
sS'street-door'
p2768
I4284
sS'carefully'
p2769
I3281
sS'pocketed'
p2770
I3072
sS'fine'
p2771
I3754
sS'find'
p2772
I655
sS'occupation'
p2773
I4186
sS'chimes'
p2774
I1715
sS'giant'
p2775
I2765
sS'softening'
p2776
I2063
sS'forfeits'
p2777
I2355
sS'justice'
p2778
I2491
sS'convinced'
p2779
I157
sS'ruin'
p2780
I4010
sS'heavily'
p2781
I1576
sS'unhappy'
p2782
I2424
sS'failed'
p2783
I470
sS'pretty'
p2784
I1157
sS'circle'
p2785
I3263
sS'apprentice'
p2786
I3335
sS'petrifaction'
p2787
I2735
sS'merged'
p2788
I2464
sS'ball-room'
p2789
I2299
sS'his'
p2790
I30
sS'gains'
p2791
I4053
sS'gratis'
p2792
I2916
sS'meanwhile'
p2793
I810
sS'express'
p2794
I2680
sS'upside'
p2795
I2092
sS'speckled'
p2796
I3244
sS'kitchens'
p2797
I3355
sS'whistle'
p2798
I3602
sS'ferret'
p2799
I1714
sS'rings'
p2800
I4024
sS'hid'
p2801
I3132
sS'breast'
p2802
I1433
sS'closely'
p2803
I1313
sS'irresolution'
p2804
I1102
sS'during'
p2805
I1047
sS'sepulchres'
p2806
I3926
sS'him'
p2807
I214
sS'chimney'
p2808
I2734
sS'molten'
p2809
I2968
sS'heartier'
p2810
I4324
sS'disgorged'
p2811
I3897
sS'sleeve'
p2812
I1740
sS'lighter'
p2813
I4139
sS'tumult'
p2814
I2238
sS'affability'
p2815
I3497
sS'cry'
p2816
I1422
sS'collapsed'
p2817
I4223
sS'alteration'
p2818
I4221
sS'remove'
p2819
I2633
sS'dismounted'
p2820
I950
sS'clocks'
p2821
I397
sS'gloves'
p2822
I3835
sS'common'
p2823
I729
sS'witches'
p2824
I3373
sS'submissively'
p2825
I2813
sS'obscure'
p2826
I3886
sS'river'
p2827
I1962
sS'archways'
p2828
I3895
sS'relentless'
p2829
I2518
sS'repulsed'
p2830
I4218
sS'delicately'
p2831
I1824
sS'set'
p2832
I1530
sS'luxury'
p2833
I3942
sS'achieved'
p2834
I3254
sS'immovable'
p2835
I4205
sS'grey'
p2836
I3715
sS'severally'
p2837
I3993
sS'see'
p2838
I321
sS'bare'
p2839
I1828
sS'are'
p2840
I319
sS'sea'
p2841
I1232
sS'tender'
p2842
I4089
sS'close'
p2843
I1202
sS'refuse'
p2844
I3921
sS'heaped'
p2845
I2296
sS'sung'
p2846
I3592
sS'arm'
p2847
I1571
sS'gaily'
p2848
I502
sS'success'
p2849
I3253
sS'knees'
p2850
I1434
sS'practice'
p2851
I4243
sS'learnt'
p2852
I2815
sS'spirits'
p2853
I711
sS'speed'
p2854
I4156
sS'leg'
p2855
I1864
sS'surmounted'
p2856
I1998
sS'demons'
p2857
I4047
sS'tolls'
p2858
I1620
sS'drooping'
p2859
I430
sS'case'
p2860
I1399
sS'grocer'
p2861
I2996
sS'exclaimed'
p2862
I1885
sS'various'
p2863
I2335
sS'affairs'
p2864
I4343
sS'woe'
p2865
I1454
sS'silly'
p2866
I2412
sS'funeral'
p2867
I133
sS'skimmed'
p2868
I3459
sS'knowing'
p2869
I369
sS'involuntarily'
p2870
I605
sS'beetling'
p2871
I3907
sS'unconscious'
p2872
I3694
sS'competent'
p2873
I3548
sS'brewing'
p2874
I436
sS'lunch'
p2875
I3832
sS'brooch'
p2876
I3992
sS'spray'
p2877
I2223
sS'death'
p2878
I1451
sS'coffee'
p2879
I2956
sS'stair-rod'
p2880
I3959
sS'invisible'
p2881
I832
sS'bone'
p2882
I3223
sS'half-hour'
p2883
I3655
sS'belshazzars'
p2884
I1229
sS'both'
p2885
I210
sS'last'
p2886
I613
sS'riddles'
p2887
I3869
sS'sultan'
p2888
I2090
sS'secrets'
p2889
I3492
sS'crime'
p2890
I3901
sS'barely'
p2891
I2653
sS'foreign'
p2892
I2068
sS'uglier'
p2893
I4039
sS'became'
p2894
I831
sS'twenty-fifth'
p2895
I972
sS'poverty'
p2896
I2458
sS'whole'
p2897
I634
sS'housetops'
p2898
I2875
sS'liked'
p2899
I359
sS'onward'
p2900
I3793
sS'danced'
p2901
I3111
sS'drunk'
p2902
I904
sS'simple'
p2903
I2775
sS'sweet'
p2904
I4260
sS'acted'
p2905
I2403
sS'deposit'
p2906
I2842
sS'sweep'
p2907
I2216
sS'whatever'
p2908
I25
sS'hollow'
p2909
I1794
sS'dances'
p2910
I2354
sS'adjoining'
p2911
I2714
sS'frosty'
p2912
I260
sS'peeled'
p2913
I3118
sS'church'
p2914
I822
sS'['
I512
sS'belt'
p2915
I1832
sS'whitechapel'
p2916
I3649
sS'worthless'
p2917
I3295
sS'described'
p2918
I1289
sS'raise'
p2919
I762
sS'sends'
p2920
I4278
sS'stamp'
p2921
I3677
sS'damp'
p2922
I2004
sS'steeples'
p2923
I3005
sS'due'
p2924
I571
sS'screened'
p2925
I3935
sS'whom'
p2926
I899
sS'secret'
p2927
I235
sS'extravagant'
p2928
I3514
sS'coarse'
p2929
I3409
sS'revered'
p2930
I4085
sS'pencil-case'
p2931
I3990
sS'brick'
p2932
I1996
sS'meeting'
p2933
I3843
sS'urgently'
p2934
I2932
sS'empty'
p2935
I2060
sS'firm'
p2936
I203
sS'affectionate'
p2937
I2337
sS'dialogue'
p2938
I4040
sS'suspicious'
p2939
I1179
sS'flight'
p2940
I1138
sS'gay'
p2941
I3692
sS'sending'
p2942
I2199
sS'fire'
p2943
I234
sS'beforehand'
p2944
I3180
sS'grating'
p2945
I258
sS'remark'
p2946
I2421
sS'uncurtained'
p2947
I4058
sS'else'
p2948
I517
sS'accommodate'
p2949
I3064
sS'fund'
p2950
I763
sS'vaguely'
p2951
I1134
sS'understand'
p2952
I794
sS'resisted'
p2953
I1915
sS'struck'
p2954
I232
sS'hardily'
p2955
I2689
sS'pierce'
p2956
I1713
sS'stolen'
p2957
I3232
sS'fur'
p2958
I2778
sS'look'
p2959
I1073
sS'trifled'
p2960
I2367
sS'frozen'
p2961
I840
sS'straight'
p2962
I1295
sS'crutch'
p2963
I3142
sS'forgetting'
p2964
I3189
sS'while'
p2965
I909
sS'match'
p2966
I2372
sS'leaning'
p2967
I2619
sS'kissing'
p2968
I2156
sS'robin'
p2969
I2111
sS'acquaintance'
p2970
I3503
sS'grouped'
p2971
I4041
sS'straggling'
p2972
I3899
sS'agitation'
p2973
I2410
sS'blotch'
p2974
I3037
sS'dotting'
p2975
I3392
sS'everywhere'
p2976
I3131
sS'stations'
p2977
I2395
sS'ecstasy'
p2978
I2081
sS'itself'
p2979
I1640
sS'boarding-school'
p2980
I3604
sS'screws'
p2981
I1113
sS'ready'
p2982
I507
sS'pronounced'
p2983
I4093
sS'hoar'
p2984
I2220
sS'attach'
p2985
I3852
sS'corpse'
p2986
I4049
sS'clucked'
p2987
I2009
sS'chestnuts'
p2988
I2751
sS'pigtail'
p2989
I1110
sS'by-streets'
p2990
I3012
sS'sun-light'
p2991
I4258
sS'wherein'
p2992
I1869
sS'delicious'
p2993
I2762
sS'ledgers'
p2994
I1317
sS'copying'
p2995
I445
sS'seize'
p2996
I3624
sS'engrosses'
p2997
I2470
sS'ray'
p2998
I3462
sS'forgiveness'
p2999
I4128
sS'daughters'
p3000
I1220
sS'higher'
p3001
I2377
sS'development'
p3002
I2597
sS'covetous'
p3003
I223
sS'used'
p3004
I965
sS'lie'
p3005
I1506
sS'keys'
p3006
I1315
sS'comprehensive'
p3007
I1569
sS'island'
p3008
I2114
sS'yesterday'
p3009
I2500
sS'desks'
p3010
I2037
sS'moment'
p3011
I509
sS'lumber-room'
p3012
I1167
sS'purpose'
p3013
I290
sS'necessity'
p3014
I1356
sS'infamous'
p3015
I3904
sS'early'
p3016
I4329
sS'lower'
p3017
I1430
sS'motionless'
p3018
I1081
sS'older'
p3019
I527
sS'cratchits'
p3020
I3102
sS'fellow-men'
p3021
I1446
sS'cheek'
p3022
I247
sS'better-natured'
p3023
I2879
sS'anybody'
p3024
I1881
sS'sports'
p3025
I2541
sS'person'
p3026
I1281
sS'cheer'
p3027
I757
sS'edge'
p3028
I360
sS'withdraw'
p3029
I4075
sS'thoroughly'
p3030
I3585
sS'toil'
p3031
I2427
sS'entry'
p3032
I1156
sS'spend'
p3033
I3395
sS'clasped'
p3034
I1309
sS'belinda'
p3035
I3085
sS'tim'
p3036
I3119
sS'endeavour'
p3037
I4341
sS'lads'
p3038
I2284
sS'shivering'
p3039
I2184
sS'crackled'
p3040
I869
sS'quarters'
p3041
I834
sS'distracting'
p3042
I1384
sS'shape'
p3043
I1245
sS'scrooge'
p3044
I40
sS'shrewdly'
p3045
I257
sS'world'
p3046
I519
sS'love'
p3047
I643
sS'letting'
p3048
I683
sS'porch'
p3049
I3875
sS'cut'
p3050
I122
sS'helping'
p3051
I3980
sS'corroborated'
p3052
I2407
sS'observant'
p3053
I1877
sS'blankets'
p3054
I4029
sS'decayed'
p3055
I2007
sS'canisters'
p3056
I2949
sS'pies'
p3057
I2821
sS'eager'
p3058
I2444
sS'pronouncing'
p3059
I3299
sS'questioned'
p3060
I2556
sS'crying'
p3061
I2103
sS'half-chimney'
p3062
I3381
sS'contrary'
p3063
I2536
sS'furniture'
p3064
I4190
sS'excited'
p3065
I2105
sS'surprised'
p3066
I3851
sS'useless'
p3067
I800
sS'silken'
p3068
I3629
sS'customers'
p3069
I2985
sS'big'
p3070
I4268
sS'couple'
p3071
I2334
sS'revelled'
p3072
I3565
sS'wilkins'
p3073
I2268
sS'matters'
p3074
I1687
sS'game'
p3075
I2740
sS'quest'
p3076
I3881
sS'messengers'
p3077
I1224
sS'wiser'
p3078
I2472
sS'doorways'
p3079
I346
sS'bit'
p3080
I1368
sS'besought'
p3081
I4184
sS'wings'
p3082
I1526
sS'vapour'
p3083
I1402
sS'insect'
p3084
I3297
sS'knock'
p3085
I4014
sS'onion'
p3086
I3110
sS'shaped'
p3087
I2887
sS'arose'
p3088
I3209
sS'raisins'
p3089
I2958
sS'strife'
p3090
I2237
sS'chorus'
p3091
I3431
sS'hammer'
p3092
I4254
sS'provoking'
p3093
I3530
sS'tumblers'
p3094
I3265
sS'shudder'
p3095
I3885
sS'disorder'
p3096
I1363
sS'clad'
p3097
I1912
sS'hilli-ho'
p3098
I2281
sS'copies'
p3099
I3074
sS'canst'
p3100
I4087
sS'irresistibly'
p3101
I3509
sS'often'
p3102
I307
sS'hinted'
p3103
I1621
sS'affects'
p3104
I1362
sS'fathers'
p3105
I3760
sS'creation'
p3106
I1418
sS'some'
p3107
I721
sS'back'
p3108
I139
sS'necessaries'
p3109
I730
sS'understood'
p3110
I146
sS'lips'
p3111
I254
sS'towards'
p3112
I1146
sS'mighty'
p3113
I889
sS'sight'
p3114
I1109
sS'lamp-light'
p3115
I3551
sS'selfishness'
p3116
I3057
sS'candle'
p3117
I466
sS'loses'
p3118
I3545
sS'pale'
p3119
I871
sS'laths'
p3120
I2146
sS'irresistible'
p3121
I2498
sS'shutter'
p3122
I2351
sS'scale'
p3123
I438
sS'gruel'
p3124
I1174
sS'stables'
p3125
I2011
sS'pelt'
p3126
I1001
sS'though'
p3127
I351
sS'cheapness'
p3128
I3215
sS'_there_'
p3129
I1922
sS'flashed'
p3130
I1795
sS'blithest'
p3131
I4303
sS'pen'
p3132
I717
sS'behave'
p3133
I3154
sS'connecting'
p3134
I2642
sS'simmer'
p3135
I3172
sS'assisted'
p3136
I3084
sS'relenting'
p3137
I4126
sS'fragments'
p3138
I1249
sS'either'
p3139
I1927
sS'be'
p3140
I106
sS'run'
p3141
I1026
sS'flickering'
p3142
I3357
sS'casks'
p3143
I1284
sS'weeds'
p3144
I4195
sS'lose'
p3145
I3544
sS'confidence'
p3146
I2502
sS'stem'
p3147
I3961
sS'step'
p3148
I1639
sS'concealed'
p3149
I2783
sS'consolation'
p3150
I2709
sS'sunniest'
p3151
I3528
sS'ache'
p3152
I4034
sS'carol'
p3153
I3
sS'intense'
p3154
I841
sS'pummel'
p3155
I2592
sS'shine'
p3156
I2717
sS'faith'
p3157
I3552
sS'proffering'
p3158
I815
sS'bristling'
p3159
I1306
sS'anything'
p3160
I47
sS'yawn'
p3161
I3823
sS'dashed'
p3162
I3452
sS'tracing'
p3163
I2716
sS'tartness'
p3164
I2982
sS'chuckled'
p3165
I4296
sS'mrs.'
p3166
I2306
sS'frightful'
p3167
I1421
sS'deserves'
p3168
I2420
sS'range'
p3169
I2681
sS'wicker'
p3170
I2990
sS'glimpses'
p3171
I2944
sS'hatred'
p3172
I3054
sS'consequently'
p3173
I2696
sS"'uncle"
p3174
I3581
sS'silence'
p3175
I1393
sS'seeing'
p3176
I798
sS'moss'
p3177
I3407
sS'grins'
p3178
I4354
sS'into'
p3179
I345
sS'within'
p3180
I240
sS'services'
p3181
I816
sS'appropriate'
p3182
I1349
sS'artifice'
p3183
I2784
sS'lesson'
p3184
I2816
sS'next'
p3185
I881
sS'curtsy'
p3186
I2386
sS'whims'
p3187
I3540
sS'eleven'
p3188
I2392
sS'exposed'
p3189
I3659
sS'question'
p3190
I1352
sS'vigour'
p3191
I745
sS'long'
p3192
I579
sS'custom'
p3193
I1191
sS'head-dress'
p3194
I3635
sS'parting'
p3195
I2650
sS'forward'
p3196
I4023
sS'wonderfully'
p3197
I2070
sS':'
I202
sS'belonged'
p3198
I1016
sS'files'
p3199
I3919
sS'strolled'
p3200
I3840
sS'himself'
p3201
I465
sS'elsewhere'
p3202
I4187
sS'inches'
p3203
I2247
sS'dilber'
p3204
I3968
sS'relaxed'
p3205
I2652
sS'frost'
p3206
I487
sS'instalments'
p3207
I2197
sS'butlers'
p3208
I896
sS'scuffle'
p3209
I2048
sS'boys'
p3210
I851
sS'link'
p3211
I1464
sS'alive'
p3212
I2252
sS'reef'
p3213
I3446
sS'atom'
p3214
I3222
sS'hopes'
p3215
I1944
sS'coldest'
p3216
I2970
sS'curtaining'
p3217
I3937
sS'reel'
p3218
I2654
sS'dull'
p3219
I883
sS'raising'
p3220
I1345
sS'gallantry'
p3221
I3983
sS'waterproof'
p3222
I3346
sS'up'
p3223
I123
sS'us'
p3224
I629
sS'oily'
p3225
I2259
sS'slander'
p3226
I3770
sS"'re"
p3227
I498
sS'cautiously'
p3228
I1104
sS'mature'
p3229
I1762
sS'faded'
p3230
I1689
sS"'merry"
p3231
I545
sS'intently'
p3232
I3722
sS'similar'
p3233
I3678
sS'called'
p3234
I208
sS'bell'
p3235
I825
sS'self-accusatory'
p3236
I1655
sS'genial'
p3237
I2793
sS'associated'
p3238
I2026
sS'roared'
p3239
I926
sS'goodly'
p3240
I3081
sS'steeped'
p3241
I3227
sS'influence'
p3242
I278
sS'haunt'
p3243
I2636
sS'package'
p3244
I2598
sS'deprive'
p3245
I3048
sS'single'
p3246
I3372
sS'warning'
p3247
I364
sS'surveying'
p3248
I3221
sS'graceful'
p3249
I2622
sS'dragging'
p3250
I1282
sS'tends'
p3251
I4055
sS'phantom'
p3252
I1330
sS'ancestors'
p3253
I82
sS'sunken'
p3254
I3447
sS'pendulous'
p3255
I3825
sS'hint'
p3256
I3260
sS'peace'
p3257
I1521
sS'backs'
p3258
I1966
sS'clicking'
p3259
I2062
sS'awoke'
p3260
I1709
sS'points'
p3261
I4323
sS'income'
p3262
I3334
sS'brazier'
p3263
I849
sS'imploringly'
p3264
I1485
sS'cesspools'
p3265
I3896
sS'nay'
p3266
I647
sS'nice'
p3267
I4320
sS'wished'
p3268
I2397
sS'draw'
p3269
I2669
sS'cellar'
p3270
I1071
sS'mustard'
p3271
I1370
sS'faintly'
p3272
I967
sS'breasts'
p3273
I390
sS'visits'
p3274
I1615
sS'prepared'
p3275
I2695
sS'door-nail'
p3276
I54
sS'drag'
p3277
I2173
sS'veriest'
p3278
I2183
sS'smiled'
p3279
I966
sS'ruthlessly'
p3280
I2544
sS'housekeepers'
p3281
I3553
sS'song'
p3282
I3343
sS'wrinkle'
p3283
I1815
sS'desert'
p3284
I3398
sS'ago'
p3285
I701
sS'lane'
p3286
I993
sS'land'
p3287
I3437
sS'happier'
p3288
I3352
sS'downcast'
p3289
I2558
sS'age'
p3290
I1814
sS'required'
p3291
I1444
sS'holes'
p3292
I3970
sS'walked'
p3293
I980
sS'appalling'
p3294
I1423
sS'cooked'
p3295
I3213
sS'neighbouring'
p3296
I407
sS'weights'
p3297
I3920
sS'presenting'
p3298
I707
sS'broad'
p3299
I1972
sS'far'
p3300
I1448
sS'fresh'
p3301
I1836
sS'peals'
p3302
I4252
sS'berries'
p3303
I868
sS'requires'
p3304
I4300
sS'having'
p3305
I505
sS'once'
p3306
I330
sS'dogged'
p3307
I2772
sS'ashamed'
p3308
I4115
sS'pinioned'
p3309
I2519
sS'hooks'
p3310
I2914
sS'resistance'
p3311
I2638
sS'cratchit'
p3312
I3069
sS'soften'
p3313
I4138
sS'cheerful'
p3314
I476
sS'sixpence'
p3315
I3082
sS'go'
p3316
I387
sS'haggard'
p3317
I2625
sS'adjustment'
p3318
I3505
sS'seemed'
p3319
I1037
sS'graves'
p3320
I4199
sS'animal'
p3321
I3661
sS'avoid'
p3322
I4132
sS'stave'
p3323
I10
sS'young'
p3324
I930
sS'send'
p3325
I4275
sS'attired'
p3326
I3097
sS'squeezing'
p3327
I218
sS'blaze'
p3328
I855
sS'suite'
p3329
I1019
sS'dislike'
p3330
I3542
sS'charity'
p3331
I1563
sS'friendly'
p3332
I3376
sS'sent'
p3333
I2166
sS'abode'
p3334
I1585
sS'recrossed'
p3335
I2847
sS'seized'
p3336
I938
sS'garden'
p3337
I2215
sS'torture'
p3338
I1523
sS'outside'
p3339
I386
sS'dessert'
p3340
I3550
sS'panting'
p3341
I2279
sS'miners'
p3342
I3418
sS'good-bye'
p3343
I2212
sS'spoon'
p3344
I1171
sS'putting'
p3345
I1231
sS'promise'
p3346
I2623
sS'continued'
p3347
I4299
sS'courage'
p3348
I4318
sS'incoherent'
p3349
I1649
sS'stiff'
p3350
I2366
sS'meant'
p3351
I2704
sS'disclaimed'
p3352
I1890
sS'button'
p3353
I1160
sS'eve'
p3354
I376
sS'try'
p3355
I2488
sS'tenderness'
p3356
I3214
sS'race'
p3357
I593
sS'knife'
p3358
I3211
sS'dealt'
p3359
I3928
sS'inspection'
p3360
I3002
sS'_were_'
p3361
I1344
sS'comforts'
p3362
I732
sS'smaller'
p3363
I449
sS'dirtier'
p3364
I2841
sS'folds'
p3365
I2787
sS'uncomfortably'
p3366
I2668
sS'half-drunken'
p3367
I4129
sS'lightest'
p3368
I2566
sS'sensation'
p3369
I1094
sS'boots'
p3370
I1303
sS'unprofitable'
p3371
I2514
sS'earth'
p3372
I1441
sS'notwithstanding'
p3373
I665
sS'gravely'
p3374
I3779
sS'twine'
p3375
I2946
sS'by-the-bye'
p3376
I4168
sS'power'
p3377
I1244
sS'opaque'
p3378
I1711
sS'giving'
p3379
I3801
sS'squeeze'
p3380
I2651
sS'reaching'
p3381
I4026
sS'abels'
p3382
I1218
sS'expressed'
p3383
I1897
sS'cell'
p3384
I441
sS'waiting'
p3385
I4285
sS'attire'
p3386
I3426
sS';'
I84
sS'bird'
p3387
I4288
sS'body'
p3388
I758
sS'sprinklings'
p3389
I3071
sS'melancholy'
p3390
I1005
sS'led'
p3391
I1583
sS'chose'
p3392
I49
sS'degree'
p3393
I274
sS'exchange'
p3394
I1751
sS'gathered'
p3395
I852
sS'pushing'
p3396
I2332
sS'punch'
p3397
I2761
sS'youngest'
p3398
I3226
sS'growing'
p3399
I2109
sS'bachelor'
p3400
I3555
sS'objects'
p3401
I1068
sS'let'
p3402
I556
sS'licence'
p3403
I2567
sS'others'
p3404
I769
sS'fifteen'
p3405
I674
sS'vinegar'
p3406
I3567
sS'great'
p3407
I848
sS'fondly'
p3408
I2620
sS'uneasy'
p3409
I2230
sS'noisily'
p3410
I3272
sS'poured'
p3411
I3874
sS'larger'
p3412
I2137
sS'contradiction'
p3413
I1839
sS'leaving'
p3414
I945
sS'benevolence'
p3415
I1565
sS"'for"
p3416
I4171
sS'slightest'
p3417
I4073
sS'nervous'
p3418
I2674
sS'opinion'
p3419
I806
sS'nameless'
p3420
I3014
sS'spices'
p3421
I2964
sS'makes'
p3422
I1365
sS'factious'
p3423
I3772
sS'wig'
p3424
I2243
sS'named'
p3425
I1980
sS'shovel'
p3426
I457
sS'apple'
p3427
I3185
sS'scales'
p3428
I2945
sS'forbid'
p3429
I2228
sS'win'
p3430
I2489
sS'worthy'
p3431
I2374
sS'apprehensive'
p3432
I2705
sS'baskets'
p3433
I1184
sS'extravagance'
p3434
I4234
sS'addressed'
p3435
I1799
sS'decrease'
p3436
I788
sS'names'
p3437
I211
sS'doubtfully'
p3438
I1351
sS'apply'
p3439
I1559
sS'resolutions'
p3440
I3878
sS'wailings'
p3441
I1652
sS'gateway'
p3442
I1036
sS'cloud'
p3443
I429
sS'announced'
p3444
I4060
sS'standing'
p3445
I1331
sS'use'
p3446
I2378
sS'from'
p3447
I142
sS'iced'
p3448
I270
sS'recalling'
p3449
I2919
sS'ministers'
p3450
I1493
sS'shut-up'
p3451
I584
sS'few'
p3452
I760
sS'doubt'
p3453
I24
sS'refuge'
p3454
I3705
sS'irrepressible'
p3455
I2594
sS'agreeable'
p3456
I1597
sS'themselves'
p3457
I2532
sS'proportions'
p3458
I1812
sS'judged'
p3459
I3374
sS'sort'
p3460
I443
sS'charcoal'
p3461
I3929
sS'laboured'
p3462
I1475
sS'parliament'
p3463
I626
sS'disgust'
p3464
I4045
sS'apprentices'
p3465
I2417
sS'started'
p3466
I141
sS'inclined'
p3467
I71
sS'rarest'
p3468
I3176
sS'heir'
p3469
I3095
sS'occurred'
p3470
I748
sS'infection'
p3471
I3506
sS'missile'
p3472
I2880
sS'apprenticed'
p3473
I2241
sS'dealings'
p3474
I1566
sS'fire-guard'
p3475
I1181
sS'carrying'
p3476
I3017
sS'diffuse'
p3477
I2873
sS'baby'
p3478
I911
sS'gladly'
p3479
I2494
sS'procuring'
p3480
I1610
sS'tearing'
p3481
I3103
sS'gills'
p3482
I3827
sS'women'
p3483
I581
sS'account'
p3484
I3999
sS'this'
p3485
I143
sS'laoco\xc3\xb6n'
p3486
I4235
sS'challenge'
p3487
I2673
sS'getting'
p3488
I1513
sS'fortunes'
p3489
I2002
sS'reddening'
p3490
I3307
sS'gruff'
p3491
I824
sS'anywhere'
p3492
I1498
sS'crossed'
p3493
I2846
sS'thin'
p3494
I253
sS'praise'
p3495
I2376
sS'executor'
p3496
I113
sS'chin'
p3497
I265
sS'drops'
p3498
I3029
sS'fetch'
p3499
I2993
sS'control'
p3500
I1087
sS'giants'
p3501
I3402
sS'streamed'
p3502
I2645
sS'tap'
p3503
I2206
sS'bent'
p3504
I3301
sS'links'
p3505
I814
sS'process'
p3506
I1064
sS'lock'
p3507
I1061
sS'flaring'
p3508
I405
sS'purposes'
p3509
I1909
sS'high'
p3510
I2245
sS'beckoned'
p3511
I1642
sS'heaving'
p3512
I3472
sS'pulling'
p3513
I2333
sS'something'
p3514
I747
sS'bones'
p3515
I934
sS'mislaying'
p3516
I4233
sS'interrupted'
p3517
I3546
sS'sitting-room'
p3518
I1165
sS'sir'
p3519
I623
sS'united'
p3520
I1754
sS'orson'
p3521
I2087
sS'shuffled'
p3522
I2718
sS'sit'
p3523
I1201
sS'dinners'
p3524
I3018
sS'onions'
p3525
I2896
sS'six'
p3526
I1137
sS'parlour'
p3527
I2186
sS'mumbled'
p3528
I932
sS'regions'
p3529
I1490
sS'lamp'
p3530
I870
sS'unquestionably'
p3531
I1746
sS'foggier'
p3532
I914
sS'instead'
p3533
I922
sS'mysteries'
p3534
I3751
sS'intelligent'
p3535
I4264
sS'clasping'
p3536
I1932
sS'stand'
p3537
I3799
sS'altar'
p3538
I4078
sS'administrator'
p3539
I114
sS'singular'
p3540
I1838
sS'watch'
p3541
I3476
sS'waters'
p3542
I3450
sS'fire-irons'
p3543
I3616
sS'tied'
p3544
I2209
sS'bothered'
p3545
I1760
sS'mixed'
p3546
I3841
sS'pigs'
p3547
I2820
sS'marrow'
p3548
I1389
sS'foremost'
p3549
I4094
sS'candle-light'
p3550
I2028
sS'strait-waistcoat'
p3551
I4339
sS'figure-head'
p3552
I3468
sS'farthing'
p3553
I4310
sS'light'
p3554
I403
sS'noises'
p3555
I1648
sS'lines'
p3556
I2033
sS'avarice'
p3557
I2443
sS'trembling'
p3558
I1462
sS'coverley'
p3559
I2365
sS'chief'
p3560
I38
sS'supplication'
p3561
I1918
sS'road'
p3562
I1925
sS'allow'
p3563
I3984
sS'pyramids'
p3564
I2908
sS'bakers'
p3565
I3019
sS'subsequently'
p3566
I2973
sS'furnish'
p3567
I755
sS'stomachaches'
p3568
I2305
sS'ha'
p3569
I3498
sS'wares'
p3570
I3927
sS'pretending'
p3571
I3634
sS'coolly'
p3572
I4027
sS'peck'
p3573
I3004
sS'top'
p3574
I2110
sS'encouraged'
p3575
I3587
sS'gladsome'
p3576
I316
sS'produced'
p3577
I2192
sS'offences'
p3578
I3533
sS'hugged'
p3579
I3157
sS'piping'
p3580
I4257
sS'including'
p3581
I1051
sS'looks'
p3582
I317
sS'quake'
p3583
I1590
sS'coat-skirts'
p3584
I1307
sS'indignantly'
p3585
I542
sS'polished'
p3586
I2998
sS'horny'
p3587
I3464
sS'perfect'
p3588
I2724
sS'delay'
p3589
I4131
sS'brood'
p3590
I1203
sS'outer'
p3591
I666
sS'chosen'
p3592
I2515
sS'masses'
p3593
I3400
sS'glee'
p3594
I2164
sS'ample'
p3595
I2786
sS'sunday'
p3596
I4157
sS'kenned'
p3597
I3397
sS'resorting'
p3598
I3610
sS'relents'
p3599
I4123
sS'degrees'
p3600
I2614
sS'choose'
p3601
I768
sS'covered'
p3602
I1884
sS'holiday'
p3603
I3339
sS'crowds'
p3604
I1579
sS'christmas-time'
p3605
I521
sS'tickled'
p3606
I3676
sS'ruined'
p3607
I4121
sS'distress'
p3608
I4165
sS'lunatic'
p3609
I682
sS'twopence'
p3610
I3320
sS'flour'
p3611
I3257
sS'crammed'
p3612
I3193
sS'cover'
p3613
I4071
sS'flew'
p3614
I1291
sS'mention'
p3615
I137
sS'hands'
p3616
I86
sS'front'
p3617
I2828
sS'kindness'
p3618
I4164
sS'day'
p3619
I132
sS'emotion'
p3620
I1698
sS'successor'
p3621
I4137
sS'old-fashioned'
p3622
I4005
sS'worlds'
p3623
I3044
sS'footstool'
p3624
I3642
sS'contagious'
p3625
I3510
sS'profound'
p3626
I3493
sS'warned'
p3627
I1773
sS'radiant'
p3628
I2884
sS'covering'
p3629
I2788
sS'feast'
p3630
I3306
sS'blazing'
p3631
I2868
sS'sin'
p3632
I3982
sS'lifetime'
p3633
I3976
sS'trimmed'
p3634
I1842
sS'slide'
p3635
I990
sS'vibrations'
p3636
I837
sS'truth'
p3637
I1382
sS'fields'
p3638
I1926
sS'crossing'
p3639
I3963
sS'accompanied'
p3640
I2177
sS'beneath'
p3641
I2644
sS'bills'
p3642
I523
sS'shaking'
p3643
I2151
sS'esteem'
p3644
I3846
sS'scanty'
p3645
I3347
sS'adventure'
p3646
I2683
sS'dreaming'
p3647
I2116
sS'waking'
p3648
I3482
sS'especial'
p3649
I2662
sS'abrahams'
p3650
I1228
sS'books'
p3651
I532
sS'ourselves'
p3652
I3981
sS'exceeded'
p3653
I4295
sS'our'
p3654
I81
sS'marley'
p3655
I12
sS'wander'
p3656
I1453
sS'witness'
p3657
I1455
sS'out'
p3658
I181
sS"'"
I546
sS'bag'
p3659
I4052
sS'house'
p3660
I891
sS'confess'
p3661
I2565
sS'wholly'
p3662
I3645
sS'shufflings'
p3663
I2923
sS'messenger'
p3664
I2665
sS'bunches'
p3665
I2909
sS'heartily'
p3666
I2538
sS'cause'
p3667
I1572
sS'dive'
p3668
I2587
sS'red'
p3669
I252
sS'shut'
p3670
I1103
sS'approached'
p3671
I1995
sS'frank'
p3672
I2997
sS'undressing'
p3673
I1706
sS'greedy'
p3674
I2445
sS'grog'
p3675
I3465
sS'fluctuated'
p3676
I1862
sS'please'
p3677
I4309
sS'surely'
p3678
I456
sS'dog-days'
p3679
I272
sS'shun'
p3680
I1616
sS'sitting'
p3681
I2244
sS'princess'
p3682
I2097
sS'shortest'
p3683
I2856
sS'repairing'
p3684
I845
sS'overtake'
p3685
I4331
sS'yard'
p3686
I1024
sS'jiffy'
p3687
I4330
sS'roved'
p3688
I1500
sS'could'
p3689
I105
sS'ask'
p3690
I652
sS'times'
p3691
I995
sS'conversation'
p3692
I1702
sS'length'
p3693
I635
sS'pudding'
p3694
I549
sS'wrote'
p3695
I4280
sS'mortal'
p3696
I1549
sS'biting'
p3697
I381
sS'baleful'
p3698
I3324
sS'genii'
p3699
I2093
sS'sorrowful'
p3700
I1654
sS'hoarding'
p3701
I4118
sS'comely'
p3702
I2522
sS'mankind'
p3703
I1561
sS'staggered'
p3704
I4336
sS'savour'
p3705
I2023
sS'powerful'
p3706
I621
sS'market-town'
p3707
I1959
sS'echo'
p3708
I2046
sS'bonnet'
p3709
I3126
sS'back-shop'
p3710
I2402
sS'alleys'
p3711
I3894
sS'seasonable'
p3712
I3139
sS'owner'
p3713
I928
sS'reached'
p3714
I1641
sS'quality'
p3715
I1860
sS'pities'
p3716
I4211
sS'ancient'
p3717
I820
sS'brimful'
p3718
I2163
sS'glisten'
p3719
I1983
sS'unknown'
p3720
I3489
sS'devils'
p3721
I3744
sS'seat'
p3722
I3279
sS'inasmuch'
p3723
I3683
sS'establishments'
p3724
I781
sS'their'
p3725
I343
sS'intermediate'
p3726
I1063
sS'scant'
p3727
I929
sS'vile'
p3728
I3640
sS'perfectly'
p3729
I156
sS'paved'
p3730
I1211
sS'malady'
p3731
I4355
sS'agility'
p3732
I2283
sS'stomach'
p3733
I1364
sS'discovered'
p3734
I3293
sS'explanation'
p3735
I1358
sS'nobody'
p3736
I313
sS'cannon-ball'
p3737
I3245
sS'dreary'
p3738
I1030
sS'feint'
p3739
I3623
sS"'change"
p3740
I45
sS'tacitly'
p3741
I952
sS'herself'
p3742
I3133
sS'remember'
p3743
I1627
sS'steel'
p3744
I229
sS'loved'
p3745
I3276
sS'good-humour'
p3746
I3030
sS'aught'
p3747
I2817
sS'richer'
p3748
I529
sS'labourers'
p3749
I844
sS'claim'
p3750
I3052
sS'appealing'
p3751
I3759
sS'visited'
p3752
I3699
sS'pawn-broker'
p3753
I3349
sS'result'
p3754
I2341
sS'counter'
p3755
I2401
sS'false'
p3756
I2505
sS'lateness'
p3757
I1703
sS'lightly'
p3758
I1913
sS'wash-house'
p3759
I3152
sS'gently'
p3760
I1903
sS'comfortable'
p3761
I2258
sS'horrors'
p3762
I3234
sS'gentle'
p3763
I1875
sS'unlikely'
p3764
I3500
sS'have'
p3765
I69
sS'chambers'
p3766
I1015
sS'need'
p3767
I1704
sS'turn'
p3768
I3197
sS'apparently'
p3769
I3854
sS'clearly'
p3770
I799
sS'viewed'
p3771
I1806
sS'jug'
p3772
I3170
sS'screw'
p3773
I3974
sS'afraid'
p3774
I746
sS'venturing'
p3775
I2688
sS'dishes'
p3776
I3199
sS'linen'
p3777
I3099
sS'pursued'
p3778
I1470
sS'able'
p3779
I2434
sS'parks'
p3780
I3101
sS'outward'
p3781
I3712
sS'instance'
p3782
I190
sS'schoolmaster'
p3783
I2179
sS'sprinkled'
p3784
I3025
sS'which'
p3785
I228
sS'exalted'
p3786
I3112
sS'chaise'
p3787
I2210
sS'divert'
p3788
I1410
sS'martha'
p3789
I3120
sS'vegetation'
p3790
I4196
sS'great-coat'
p3791
I975
sS'water-plug'
p3792
I857
sS'unless'
p3793
I3765
sS'clash'
p3794
I4253
sS'balustrades'
p3795
I1147
sS'who'
p3796
I439
sS'intentions'
p3797
I4228
sS'combustion'
p3798
I2708
sS'eight'
p3799
I1718
sS'preparations'
p3800
I3358
sS'cracking'
p3801
I1378
sS'tall'
p3802
I3341
sS'prisoner'
p3803
I3406
sS'nuisance'
p3804
I1536
sS'why'
p3805
I638
sS'evergreens'
p3806
I2222
sS'inexorable'
p3807
I4188
sS'sheba'
p3808
I1222
sS'consequences'
p3809
I2533
sS'bred'
p3810
I1933
sS'stronger'
p3811
I4217
sS'disease'
p3812
I3507
sS'face'
p3813
I489
sS'looked'
p3814
I450
sS'ignited'
p3815
I3247
sS'scrambled'
p3816
I1737
sS'_he_'
p3817
I2096
sS'christmas-eves'
p3818
I1474
sS'cash-boxes'
p3819
I1314
sS'occasion'
p3820
I1852
sS'carving-knife'
p3821
I3202
sS'ensued'
p3822
I2570
sS'away'
p3823
I1871
sS'fact'
p3824
I954
sS'gain'
p3825
I2469
sS'impression'
p3826
I753
sS'atmosphere'
p3827
I1398
sS'kith'
p3828
I3058
sS'perversion'
p3829
I3748
sS'stove'
p3830
I3930
sS'supported'
p3831
I3144
sS'unseen'
p3832
I3884
sS'anyway'
p3833
I4353
sS'hamlet'
p3834
I158
sS'bring'
p3835
I2157
sS'seaweed'
p3836
I3455
sS'rebuke'
p3837
I3302
sS'bedroom'
p3838
I1166
sS'fear'
p3839
I1646
sS'longer'
p3840
I2637
sS'gasping'
p3841
I2941
sS'pleased'
p3842
I3350
sS'partners'
p3843
I109
sS'wear'
p3844
I1428
sS'pause'
p3845
I1101
sS'knowledge'
p3846
I65
sS'halves'
p3847
I3520
sS'clutching'
p3848
I222
sS'('
I987
sS'hopeful'
p3849
I2987
sS'should'
p3850
I547
sS'buttons'
p3851
I1324
sS'brighter'
p3852
I4141
sS'fuel'
p3853
I1207
sS'employed'
p3854
I2314
sS'geese'
p3855
I2739
sS'fruiterers'
p3856
I2883
sS'thousands'
p3857
I728
sS'infernal'
p3858
I1397
sS'hope'
p3859
I1607
sS'regularly'
p3860
I1719
sS'doubting'
p3861
I3861
sS'move'
p3862
I2678
sS'handle'
p3863
I3210
sS'listened'
p3864
I1717
sS'means'
p3865
I767
sS'beat'
p3866
I1731
sS'familiar'
p3867
I924
sS'bear'
p3868
I1473
sS'enthroned'
p3869
I3743
sS'abundance'
p3870
I772
sS'ones'
p3871
I370
sS'words'
p3872
I1629
sS'transports'
p3873
I4249
sS'spur'
p3874
I508
sS'dwellings'
p3875
I2829
sS'poulterer'
p3876
I4262
sS'quiet'
p3877
I3879
sS'following'
p3878
I4207
sS'glory'
p3879
I2885
sS'organ'
p3880
I2257
sS'married'
p3881
I640
sS'tuned'
p3882
I2304
sS'delighted'
p3883
I3487
sS'sha'
p3884
I4025
sS'stuff'
p3885
I3268
sS'she'
p3886
I2169
sS'waggons'
p3887
I2845
sS'shrunk'
p3888
I2141
sS'basking'
p3889
I3107
sS'fixed'
p3890
I1391
sS'view'
p3891
I1810
sS'spotted'
p3892
I2967
sS'untrue'
p3893
I1097
sS'ogre'
p3894
I3321
sS'turkeys'
p3895
I2738
sS'burying'
p3896
I4197
sS'grieve'
p3897
I2453
sS'frame'
p3898
I3145
sS'shreds'
p3899
I3741
sS'shrouded'
p3900
I3785
sS'mentioned'
p3901
I782
sS'usefulness'
p3902
I1552
sS'desperate'
p3903
I1660
sS'downward'
p3904
I4201
sS'feathered'
p3905
I3178
sS'packed'
p3906
I2289
sS'dearly'
p3907
I2555
sS'puts'
p3908
I3582
sS'closet'
p3909
I1176
sS'rags'
p3910
I3910
sS'pattern'
p3911
I1468
sS'monstrous'
p3912
I1675
sS'turnings'
p3913
I3015
sS'purses'
p3914
I1319
sS'genius'
p3915
I1038
sS'state'
p3916
I1770
sS'supernatural'
p3917
I1634
sS'closed'
p3918
I982
sS'horrible'
p3919
I1084
sS'boughs'
p3920
I2056
sS'progress'
p3921
I3035
sS'neither'
p3922
I3792
sS'sold'
p3923
I4266
sS'midnight'
p3924
I3717
sS'wiry'
p3925
I264
sS'ends'
p3926
I984
sS'sole'
p3927
I112
sS'opening'
p3928
I2167
sS'importance'
p3929
I3845
sS'joy'
p3930
I2611
sS'sorrow'
p3931
I3508
sS'notion'
p3932
I2369
sS'interfere'
p3933
I795
sS'foreshadow'
p3934
I4203
sS'grasp'
p3935
I1914
sS'joe'
p3936
I3950
sS'merry'
p3937
I471
sS'yawning'
p3938
I3829
sS'precious'
p3939
I2549
sS'staring'
p3940
I1390
sS'observable'
p3941
I2785
sS'instant'
p3942
I1708
sS'limits'
p3943
I1502
sS"'that"
p3944
I4173
sS'joke'
p3945
I878
sS'taking'
p3946
I167
sS'butter-boats'
p3947
I1233
sS'equal'
p3948
I2679
sS'bedpost'
p3949
I4225
sS'assure'
p3950
I3594
sS'doorway'
p3951
I3022
sS'figures'
p3952
I1234
sS'rust'
p3953
I2804
sS'back-payments'
p3954
I4311
sS'wringing'
p3955
I1560
sS'flocking'
p3956
I3007
sS'swallow'
p3957
I1414
sS'glorious'
p3958
I879
sS'otherwise'
p3959
I107
sS'adjusted'
p3960
I2255
sS'mistletoe'
p3961
I2728
sS'statues'
p3962
I4145
sS'extent'
p3963
I3484
sS'bearing'
p3964
I3859
sS'wall'
p3965
I830
sS'ca'
p3966
I776
sS'caverns'
p3967
I3443
sS'walk'
p3968
I1440
sS'distinguish'
p3969
I1710
sS'foldings'
p3970
I3727
sS'beguiled'
p3971
I1010
sS'dot'
p3972
I4347
sS'worldly'
p3973
I1439
sS'news'
p3974
I4119
sS'respect'
p3975
I305
sS'erased'
p3976
I3767
sS'pouring'
p3977
I416
sS'debt'
p3978
I4133
sS'tread'
p3979
I1618
sS'rusty'
p3980
I3916
sS'tremendous'
p3981
I2811
sS'grindstone'
p3982
I217
sS'thanked'
p3983
I2205
sS'thankee'
p3984
I1611
sS'immense'
p3985
I2609
sS'gaze'
p3986
I1413
sS'slowly'
p3987
I1130
sS'ah'
p3988
I2371
sS'ship'
p3989
I3469
sS'speedily'
p3990
I3304
sS'feather'
p3991
I1226
sS'waste'
p3992
I3430
sS'killed'
p3993
I3667
sS'senses'
p3994
I1341
sS'perplexed'
p3995
I1758
sS'finishes'
p3996
I3563
sS'league'
p3997
I3448
sS'painted'
p3998
I196
sS'moved'
p3999
I3782
sS'sufficient'
p4000
I3220
sS'hob'
p4001
I1175
sS'neighbour'
p4002
I3371
sS'sausages'
p4003
I2746
sS'watches'
p4004
I3818
sS'bull'
p4005
I3670
sS'improved'
p4006
I805
sS'an'
p4007
I126
sS'present'
p4008
I727
sS'volunteer'
p4009
I3831
sS'kerchief'
p4010
I1337
sS'bye'
p4011
I3837
sS'unlike'
p4012
I2526
sS'fearful'
p4013
I4101
sS'plain'
p4014
I2034
sS'appearance'
p4015
I1808
sS'britain'
p4016
I2866
sS'value'
p4017
I2486
sS'will'
p4018
I94
sS'thou'
p4019
I4080
sS'persevered'
p4020
I4204
sS'timidly'
p4021
I2771
sS'scatter'
p4022
I3783
sS'wild'
p4023
I2085
sS'chattering'
p4024
I839
sS'plead'
p4025
I1906
sS'stuffing'
p4026
I3206
sS'ringing'
p4027
I3720
sS'ripe'
p4028
I3525
sS'almost'
p4029
I1613
sS'thus'
p4030
I1192
sS'surface'
p4031
I1247
sS'piteously'
p4032
I1679
sS'helped'
p4033
I3198
sS'examined'
p4034
I1693
sS'gothic'
p4035
I828
sS'demanded'
p4036
I738
sS'swinging'
p4037
I2059
sS'watched'
p4038
I3460
sS'prose'
p4039
I5
sS'partner'
p4040
I706
sS'greater'
p4041
I1426
sS'scents'
p4042
I2954
sS'glared'
p4043
I2180
sS'kissed'
p4044
I3526
sS'repleted'
p4045
I4198
sS'perhaps'
p4046
I1151
sS'began'
p4047
I163
sS'cross'
p4048
I511
sS'smothering'
p4049
I3619
sS'appraised'
p4050
I3994
sS'strange'
p4051
I1261
sS'speaker'
p4052
I622
sS'merciful'
p4053
I4056
sS'conversations'
p4054
I3853
sS'inch'
p4055
I2562
sS'party'
p4056
I658
sS'biffins'
p4057
I2925
sS'gets'
p4058
I3158
sS'joyously'
p4059
I3590
sS'difficult'
p4060
I3787
sS'earnestness'
p4061
I2099
sS'ball'
p4062
I2394
sS'abyss'
p4063
I3490
sS'flesh'
p4064
I3726
sS'prodigiously'
p4065
I2657
sS'drink'
p4066
I766
sS'upon'
p4067
I44
sS'effect'
p4068
I2360
sS'outcast'
p4069
I3556
sS'coaches'
p4070
I2235
sS'oranges'
p4071
I2755
sS'dust'
p4072
I3300
sS'officers'
p4073
I3475
sS'judgment'
p4074
I3978
sS'collar'
p4075
I3091
sS'warming'
p4076
I853
sS'pleasantly'
p4077
I4154
sS'poultry'
p4078
I2741
sS'sauce'
p4079
I3186
sS'scarcely'
p4080
I754
sS'tatters'
p4081
I3939
sS'off'
p4082
I689
sS'undertaker'
p4083
I36
sS'warranted'
p4084
I3650
sS'i'
I57
sS'freshest'
p4085
I3736
sS'colour'
p4086
I1083
sS'well'
p4087
I703
sS'thankful'
p4088
I3811
sS'finds'
p4089
I3580
sS'thought'
p4090
I433
sS'amends'
p4091
I1555
sS'command'
p4092
I4083
sS'administered'
p4093
I2196
sS'tails'
p4094
I350
sS'drawing'
p4095
I3719
sS'usual'
p4096
I809
sS'bending'
p4097
I2160
sS'taller'
p4098
I2248
sS'cried'
p4099
I475
sS'less'
p4100
I293
sS'moments'
p4101
I1854
sS'repassed'
p4102
I2234
sS'domestic'
p4103
I2393
sS'fancying'
p4104
I1025
sS'rolled'
p4105
I3441
sS'replenish'
p4106
I452
sS'aspirations'
p4107
I2468
sS'palm'
p4108
I3386
sS'recollection'
p4109
I1163
sS'rooms'
p4110
I1020
sS'paul'
p4111
I188
sS'happiness'
p4112
I1458
sS'mysterious'
p4113
I3790
sS'generous'
p4114
I233
sS'rapid'
p4115
I485
sS'likes'
p4116
I3575
sS'clergyman'
p4117
I34
sS'field'
p4118
I2691
sS'point'
p4119
I140
sS'sky'
p4120
I2855
sS'fled'
p4121
I943
sS'add'
p4122
I2430
sS'other'
p4123
I176
sS'attractive'
p4124
I4356
sS'unmoved'
p4125
I4103
sS'wet'
p4126
I3038
sS'silently'
p4127
I3780
sS'heartiness'
p4128
I3319
sS'ought'
p4129
I2712
sS'diverted'
p4130
I3685
sS'smart'
p4131
I1383
sS'resolved'
p4132
I1761
sS'fate'
p4133
I1609
sS'admit'
p4134
I3771
sS'stooped'
p4135
I935
sS'livid'
p4136
I1082
sS'hurry'
p4137
I4185
sS'five'
p4138
I901
sS'know'
p4139
I62
sS'knot'
p4140
I3820
sS'desk'
p4141
I2246
sS'immediately'
p4142
I608
sS'contrasting'
p4143
I2838
sS'wheel'
p4144
I3474
sS'you'
p4145
I93
sS'loss'
p4146
I3972
sS'displaced'
p4147
I2452
sS'necessary'
p4148
I459
sS'like'
p4149
I409
sS'lost'
p4150
I1688
sS'chairs'
p4151
I2585
sS'sofa'
p4152
I1169
sS'ring'
p4153
I3638
sS'bigotry'
p4154
I3056
sS'admitted'
p4155
I953
sS'dreaded'
p4156
I3277
sS'stagger'
p4157
I2391
sS'heed'
p4158
I1902
sS'storm-birds'
p4159
I3458
sS'particles'
p4160
I2860
sS'become'
p4161
I1753
sS'works'
p4162
I1724
sS'soft'
p4163
I1874
sS'caked'
p4164
I2966
sS'shed'
p4165
I2770
sS'because'
p4166
I641
sS'shabby'
p4167
I3167
sS'underwent'
p4168
I2409
sS'portly'
p4169
I685
sS'reclamation'
p4170
I1901
sS'searching'
p4171
I918
sS'hail'
p4172
I299
sS'immortal'
p4173
I1541
sS'hair'
p4174
I1077
sS'daylight'
p4175
I4111
sS'growth'
p4176
I2898
sS'warmer'
p4177
I669
sS'choosing'
p4178
I2504
sS'home'
p4179
I998
sS'hissing'
p4180
I3181
sS'peter'
p4181
I3086
sS'recognition'
p4182
I3948
sS'trust'
p4183
I4102
sS'leaf'
p4184
I3298
sS'lead'
p4185
I1951
sS'literally'
p4186
I191
sS'objected'
p4187
I3681
sS'lean'
p4188
I910
sS'delightful'
p4189
I4174
sS'shone'
p4190
I2382
sS'instantaneous'
p4191
I1937
sS'leap'
p4192
I1984
sS'magnitude'
p4193
I3757
sS'passion'
p4194
I2448
sS'saucepan'
p4195
I1173
sS'comical'
p4196
I3532
sS'chains'
p4197
I1290
sS'?'
I101
sS'conference'
p4198
I2664
sS'noise'
p4199
I1279
sS'slight'
p4200
I722
sS'dangling'
p4201
I985
sS'phantoms'
p4202
I427
sS'recompensed'
p4203
I4294
sS'conveyed'
p4204
I1492
sS'benefit'
p4205
I3536
sS'although'
p4206
I422
sS'death-cold'
p4207
I1333
sS'snapped'
p4208
I4289
sS'filth'
p4209
I3902
sS'choked'
p4210
I2857
sS'adversary'
p4211
I2639
sS'swept'
p4212
I2293
sS'noisy'
p4213
I4144
sS'throne'
p4214
I2737
sS'about'
p4215
I26
sS'rare'
p4216
I2960
sS'carried'
p4217
I266
sS'linger'
p4218
I1497
sS'withdrew'
p4219
I802
sS'brandy'
p4220
I3248
sS'foretold'
p4221
I1873
sS"'and"
p4222
I4147
sS'blessings'
p4223
I3382
sS'dominion'
p4224
I4084
sS'piled'
p4225
I3915
sS'outset'
p4226
I1267
sS'own'
p4227
I64
sS'letters'
p4228
I446
sS'fettered'
p4229
I1461
sS'bed-curtains'
p4230
I4022
sS'guard'
p4231
I3191
sS'weather'
p4232
I282
sS'camden'
p4233
I999
sS'erect'
p4234
I1637
sS'singing'
p4235
I2131
sS'cultivated'
p4236
I3608
sS'capable'
p4237
I3166
sS'quickly'
p4238
I478
sS'wheresoever'
p4239
I3404
sS'mere'
p4240
I426
sS'custard'
p4241
I3266
sS'doubtless'
p4242
I1851
sS'demeanour'
p4243
I2797
sS'regarded'
p4244
I3251
sS'glistened'
p4245
I2727
sS'suburbs'
p4246
I3061
sS'veil'
p4247
I4076
sS'outline'
p4248
I1868
sS'noticed'
p4249
I3714
sS'intention'
p4250
I1891
sS'exchanging'
p4251
I2877
sS'much'
p4252
I448
sS'grunted'
p4253
I3664
sS'heresy'
p4254
I3259
sS'suffers'
p4255
I3539
sS'globe'
p4256
I3716
sS'buy'
p4257
I764
sS'repeater'
p4258
I1727
sS'storehouse'
p4259
I2061
sS'but'
p4260
I79
sS'gait'
p4261
I249
sS'repeated'
p4262
I558
sS'ho'
p4263
I2263
sS'courts'
p4264
I347
sS'grate'
p4265
I1170
sS'highest'
p4266
I1259
sS'entered'
p4267
I1694
sS'he'
p4268
I48
sS'count'
p4269
I1757
sS'made'
p4270
I250
sS'wise'
p4271
I1584
sS'burial-place'
p4272
I3401
sS'places'
p4273
I2275
sS'whether'
p4274
I1353
sS'wish'
p4275
I741
sS'smooth'
p4276
I1241
sS'signed'
p4277
I32
sS'excitement'
p4278
I2250
sS'below'
p4279
I588
sS'gaps'
p4280
I2943
sS'cake'
p4281
I2195
sS'problem'
p4282
I1767
sS'piece'
p4283
I76
sS'minutes'
p4284
I2699
sS'display'
p4285
I3264
sS'stirring'
p4286
I4256
sS'block'
p4287
I2194
sS'anxious'
p4288
I4064
sS'eagerness'
p4289
I2175
sS'entering'
p4290
I2017
sS'unanimity'
p4291
I4327
sS'universal'
p4292
I3217
sS'penny'
p4293
I4011
sS'gnawing'
p4294
I4097
sS'pig'
p4295
I3672
sS'lived'
p4296
I435
sS'goodness'
p4297
I4308
sS'dowerless'
p4298
I2501
sS'plundered'
p4299
I2571
sS'mistaken'
p4300
I4340
sS'trotting'
p4301
I1965
sS'happen'
p4302
I3499
sS'authority'
p4303
I3706
sS'gush'
p4304
I3205
sS"'ll"
p4305
I618
sS'incredible'
p4306
I3183
sS'corporation'
p4307
I1053
sS'lately'
p4308
I4161
sS'smears'
p4309
I411
sS'book'
p4310
I1013
sS'happiest'
p4311
I4226
sS'special'
p4312
I1882
sS'branch'
p4313
I1835
sS'repute'
p4314
I3889
sS'behold'
p4315
I687
sS'gallantly'
p4316
I3096
sS'giddy'
p4317
I4239
sS'sealing-wax'
p4318
I4290
sS'repeat'
p4319
I98
sS'kinds'
p4320
I1494
sS'monday'
p4321
I903
sS'penetrated'
p4322
I3887
sS'stay'
p4323
I1496
sS'church-yard'
p4324
I189
sS'chance'
p4325
I1606
sS'sped'
p4326
I3435
sS'wrenching'
p4327
I219
sS'earthly'
p4328
I2022
sS'squeak'
p4329
I2047
sS'bonneted'
p4330
I1894
sS'friends'
p4331
I653
sS'weather-cock'
p4332
I1997
sS'vein'
p4333
I3583
sS'shadowing'
p4334
I3034
sS'ghost'
p4335
I7
sS'stirred'
p4336
I907
sS'sentiment'
p4337
I3680
sS'using'
p4338
I923
sS'starting'
p4339
I1800
sS'baker'
p4340
I2317
sS'lasted'
p4341
I1271
sS'unwatched'
p4342
I4067
sS'portion'
p4343
I3794
sS'lives'
p4344
I1674
sS'cheerfulness'
p4345
I2870
s.