(dp1
S'foul'
p2
I305
sS'four'
p3
I1963
sS'woods'
p4
I3510
sS'hanging'
p5
I1310
sS'andsolemnised'
p6
I139
sS'voice._'
p7
I543
sS'havediverted'
p8
I4568
sS'namedthem'
p9
I2302
sS'senseof'
p10
I2253
sS'lord'
p11
I969
sS'shaving'
p12
I5504
sS'rashly'
p13
I182
sS'ofall'
p14
I3850
sS'double-ironed'
p15
I1742
sS'figs'
p16
I3573
sS'screaming'
p17
I3747
sS'disturb'
p18
I90
sS'prize'
p19
I5454
sS'piling'
p20
I4133
sS'doublelocked'
p21
I1322
sS'sooty'
p22
I3437
sS'statuesin'
p23
I5225
sS'miller'
p24
I5475
sS'cordially'
p25
I720
sS'waistwas'
p26
I2113
sS'pulse'
p27
I1983
sS'second'
p28
I1837
sS'acheerful'
p29
I542
sS'thunder'
p30
I1240
sS'cooking'
p31
I3656
sS'theestablishments'
p32
I846
sS'increasing'
p33
I2144
sS'avery'
p34
I4199
sS'family.he'
p35
I5245
sS'here'
p36
I1059
sS'atoms'
p37
I3438
sS'shriek'
p38
I3874
sS'chink'
p39
I433
sS'snowing'
p40
I4097
sS'hiswhite'
p41
I481
sS'golden'
p42
I2902
sS'_would_'
p43
I2778
sS'opinionof'
p44
I873
sS'tea-spoons'
p45
I5017
sS'christmas-eve'
p46
I1084
sS'spoke'
p47
I263
sS'wholequarter'
p48
I4879
sS'scroogelooked'
p49
I2503
sS'music'
p50
I2295
sS'therefore'
p51
I95
sS'strike'
p52
I5136
sS'andberries'
p53
I937
sS'until'
p54
I1485
sS'brings'
p55
I144
sS'feared'
p56
I4724
sS'glass'
p57
I2569
sS'curtains.scrooge'
p58
I4500
sS'midst'
p59
I5230
sS'hold'
p60
I2104
sS'locked'
p61
I1321
sS'pursue'
p62
I867
sS'plunged'
p63
I3728
sS'leaped'
p64
I1451
sS'example'
p65
I4385
sS'greatstreets'
p66
I3421
sS'ananimal'
p67
I4537
sS'want'
p68
I695
sS'apendulous'
p69
I4769
sS'hob'
p70
I1306
sS'personhas'
p71
I4966
sS'travel'
p72
I1635
sS'drying'
p73
I2474
sS'feature'
p74
I5131
sS'how'
p75
I107
sS'hot'
p76
I1190
sS'andterrestrial'
p77
I2555
sS'place'
p78
I347
sS'wrong'
p79
I1973
sS'obscuring'
p80
I445
sS'calves'
p81
I2797
sS'endeavoured'
p82
I2020
sS'wink'
p83
I2810
sS'specks'
p84
I4150
sS'wing'
p85
I5166
sS'wind'
p86
I175
sS'wine'
p87
I1242
sS'dreamed'
p88
I5231
sS'ebenezer'
p89
I1689
sS'wrought'
p90
I1474
sS'fit'
p91
I3233
sS'narrowest'
p92
I438
sS'nobler'
p93
I2915
sS'hidden'
p94
I4819
sS'beingso'
p95
I2170
sS'silver'
p96
I638
sS'counter'
p97
I3543
sS'thecopper'
p98
I3813
sS'blushed'
p99
I3578
sS'burial'
p100
I27
sS'garment'
p101
I3338
sS'bowls'
p102
I3313
sS'recognising'
p103
I2274
sS'tight-fisted'
p104
I222
sS'cheerfully'
p105
I5258
sS'ofcourse'
p106
I3854
sS'stamping'
p107
I405
sS'_her_'
p108
I2785
sS'grapes'
p109
I3496
sS'sheet'
p110
I3409
sS'walkedup'
p111
I5173
sS'enormous'
p112
I4660
sS'ate'
p113
I3909
sS'shelves'
p114
I3487
sS'disturbed'
p115
I1562
sS'angelic'
p116
I1356
sS'aboutthe'
p117
I3755
sS'channels'
p118
I3424
sS'wasa'
p119
I3648
sS'sallied'
p120
I988
sS'fetchedscrooge'
p121
I4438
sS'service'
p122
I5278
sS'similarly'
p123
I4934
sS'master'
p124
I369
sS'listed'
p125
I4168
sS'legs'
p126
I1318
sS'bitter'
p127
I1332
sS'listen'
p128
I2844
sS'frowned'
p129
I769
sS'wisdom'
p130
I80
sS'arm.the'
p131
I1861
sS'task'
p132
I5502
sS'legatee'
p133
I122
sS'willbe'
p134
I5340
sS'showed'
p135
I2888
sS'icicle'
p136
I1974
sS'tree'
p137
I2277
sS'rusty'
p138
I4949
sS'shower'
p139
I3436
sS'idle'
p140
I843
sS'exclaimed'
p141
I2180
sS'theycling'
p142
I4662
sS'friend'
p143
I123
sS'feeling'
p144
I2254
sS'shyly'
p145
I2719
sS'thosewhose'
p146
I2182
sS'affairs'
p147
I5604
sS'doors'
p148
I2351
sS'aone'
p149
I3965
sS'somelatent'
p150
I4829
sS'even'
p151
I348
sS'shall'
p152
I88
sS'thrilled'
p153
I4732
sS'hisheart'
p154
I3818
sS'doit'
p155
I5042
sS'theirgreat'
p156
I4756
sS'turneduncomfortably'
p157
I3189
sS'mouth'
p158
I3093
sS'entry'
p159
I1281
sS'hide-and-seek'
p160
I1119
sS'andsepulchres'
p161
I4908
sS'grove'
p162
I3272
sS'came'
p163
I319
sS'saying'
p164
I2483
sS'ofguests'
p165
I4116
sS'loitered'
p166
I5444
sS'hearth-stone'
p167
I5150
sS'produceda'
p168
I2558
sS'busy'
p169
I393
sS'quaint'
p170
I1345
sS'cousins'
p171
I4111
sS'touched'
p172
I1977
sS'rich'
p173
I531
sS'heartily'
p174
I3465
sS'goblins'
p175
I1597
sS'extractthe'
p176
I1337
sS'andpaved'
p177
I1344
sS'emphatically'
p178
I99
sS'asscrooge'
p179
I4098
sS'five-and-sixpence'
p180
I4057
sS'terrors'
p181
I5121
sS'foremost'
p182
I5143
sS'pocket'
p183
I639
sS'head.the'
p184
I3156
sS'goneall'
p185
I2802
sS'splinter-bar'
p186
I1270
sS'tights'
p187
I1454
sS'withhis'
p188
I4448
sS'release'
p189
I2938
sS'hisrobe'
p190
I3704
sS'thathe'
p191
I4157
sS'blew'
p192
I293
sS'fair'
p193
I1040
sS'cheerfulvoice'
p194
I5240
sS'stoppingin'
p195
I5050
sS'result'
p196
I2738
sS'fain'
p197
I1128
sS'hammer'
p198
I5433
sS'best'
p199
I2551
sS'theclerk'
p200
I717
sS'rings'
p201
I5040
sS"scrooge'sclerk"
p202
I3703
sS'never'
p203
I198
sS'nature'
p204
I448
sS'rolled'
p205
I4214
sS'twinkling'
p206
I1066
sS'cut'
p207
I127
sS'unseemly'
p208
I4906
sS'extent'
p209
I4276
sS'defiance'
p210
I4963
sS'clungupon'
p211
I4629
sS'herd'
p212
I3004
sS'roller'
p213
I3545
sS'pity'
p214
I2471
sS'country'
p215
I92
sS'theirgood-humour'
p216
I3642
sS'incense'
p217
I3635
sS'adapted'
p218
I2213
sS'asked'
p219
I338
sS'agreat'
p220
I2140
sS'vain'
p221
I2211
sS'gleaming'
p222
I3274
sS'lighthouse'
p223
I4230
sS'underdone'
p224
I1545
sS'shouting'
p225
I3068
sS'union'
p226
I794
sS'tortureof'
p227
I1725
sS'fro'
p228
I5543
sS'.'
I17
sS'lamp-light.'
p229
I4366
sS'startled'
p230
I1206
sS'dots'
p231
I4330
sS'life'
p232
I342
sS'child'
p233
I2083
sS'worked'
p234
I2033
sS'chill'
p235
I292
sS'that.sitting-room'
p236
I1294
sS'opulence'
p237
I3478
sS'skirts'
p238
I1578
sS'played'
p239
I4433
sS'expending'
p240
I2439
sS'to-morrow'
p241
I670
sS'said.'
p242
I5249
sS'andhad'
p243
I1924
sS'severity'
p244
I2909
sS'things'
p245
I596
sS'yellow'
p246
I2451
sS'swarthy'
p247
I3516
sS'outits'
p248
I4675
sS'boiled'
p249
I580
sS'tops'
p250
I3398
sS'haggard'
p251
I3122
sS'tune'
p252
I4266
sS'echoed'
p253
I2843
sS'nomore'
p254
I2986
sS'echoes'
p255
I1247
sS'milliner'
p256
I4069
sS'joyously.after'
p257
I4420
sS'previous'
p258
I977
sS'spectacles'
p259
I1185
sS'ease'
p260
I3694
sS'had'
p261
I237
sS'mr.'
p262
I751
sS'innocent'
p263
I3666
sS'has'
p264
I595
sS'hat'
p265
I1037
sS'possible'
p266
I1985
sS'clustered'
p267
I3493
sS'shadow'
p268
I1175
sS'desire'
p269
I1293
sS'brought'
p270
I1852
sS'notunlike'
p271
I3324
sS'timeto'
p272
I3062
sS'butno'
p273
I3014
sS'pavement'
p274
I407
sS'steps'
p275
I5548
sS'right'
p276
I522
sS'old'
p277
I201
sS'people'
p278
I212
sS'crown'
p279
I2130
sS'captive'
p280
I1741
sS'theyhad'
p281
I3687
sS'ofsmell'
p282
I4876
sS'whoknew'
p283
I1126
sS'for'
p284
I43
sS'bottom'
p285
I2736
sS'plucked'
p286
I3033
sS'fog'
p287
I510
sS'treadmill'
p288
I801
sS'shrivelled'
p289
I254
sS'itself.again'
p290
I4256
sS'pinched'
p291
I4639
sS'water-plugbeing'
p292
I926
sS'gillsof'
p293
I4771
sS'losing'
p294
I658
sS'capacious'
p295
I3341
sS'coal-scuttlebefore'
p296
I5607
sS'recollect'
p297
I2269
sS'ofchristmas'
p298
I3715
sS'raised'
p299
I1600
sS'son'
p300
I195
sS'thankful'
p301
I4743
sS'beings'
p302
I3662
sS'packagewas'
p303
I3088
sS'sow'
p304
I5139
sS'soon'
p305
I1409
sS'hallo'
p306
I5412
sS'support'
p307
I845
sS'constantly'
p308
I863
sS'width'
p309
I1274
sS'grasping'
p310
I226
sS'happy'
p311
I708
sS'waistcoat'
p312
I1453
sS'offer'
p313
I2568
sS'seentrotting'
p314
I2284
sS'startedfrom'
p315
I147
sS'inside'
p316
I3134
sS'tell'
p317
I1599
sS'palm'
p318
I4141
sS'panels'
p319
I2489
sS'liberal'
p320
I5027
sS'onhis'
p321
I5583
sS'meagre'
p322
I2566
sS"''"
p323
I321
sS'smelt'
p324
I3748
sS'floor'
p325
I1672
sS'smell'
p326
I3929
sS"'s"
p327
I9
sS"'d"
p328
I1043
sS'intent'
p329
I298
sS'rolling'
p330
I1790
sS"'m"
p331
I2434
sS'myunhallowed'
p332
I86
sS"'i"
p333
I5271
sS'fastened'
p334
I1249
sS'good-natured'
p335
I4413
sS'time'
p336
I388
sS'conferred'
p337
I3735
sS'gown'
p338
I3719
sS'chain'
p339
I1428
sS'littledown'
p340
I5267
sS'thechair'
p341
I1392
sS'chair'
p342
I1519
sS'hole'
p343
I1704
sS'coldroast'
p344
I2759
sS'apimple'
p345
I2266
sS'hisside'
p346
I4291
sS'wasan'
p347
I131
sS'language.the'
p348
I5093
sS'iput'
p349
I837
sS'choice'
p350
I3529
sS'gloomy'
p351
I1108
sS'bustle'
p352
I3847
sS'minute'
p353
I1415
sS'immensetwelfth-cakes'
p354
I3311
sS'cooks'
p355
I967
sS'leave'
p356
I592
sS'scrooge.the'
p357
I1731
sS'overit'
p358
I4432
sS'insignificant'
p359
I2859
sS'sigh'
p360
I2392
sS'pot-bellied'
p361
I3470
sS'coach-houses'
p362
I2341
sS'prediction'
p363
I4688
sS'gnawed'
p364
I1009
sS'withliving'
p365
I3270
sS'celebrated'
p366
I3003
sS'falling'
p367
I296
sS'ground'
p368
I1730
sS'thisintercourse'
p369
I5355
sS'honour'
p370
I1083
sS'funeral'
p371
I138
sS'understanding'
p372
I4477
sS'address'
p373
I5478
sS'alone'
p374
I593
sS'along'
p375
I375
sS'passengers'
p376
I2603
sS'brilliant'
p377
I5422
sS'wherever'
p378
I4470
sS'concealed'
p379
I3345
sS'munifi'
p380
I5538
sS'love'
p381
I683
sS'sohideously'
p382
I1735
sS'mrs.fezziwig'
p383
I2693
sS'butprostrate'
p384
I4633
sS'undergone'
p385
I1940
sS'working'
p386
I1753
sS'positive'
p387
I2794
sS'angry'
p388
I667
sS'give'
p389
I1686
sS'vigour'
p390
I804
sS'wondering'
p391
I5322
sS'goodtemper'
p392
I4404
sS'wicked'
p393
I4005
sS'``'
p394
I318
sS'whywas'
p395
I2308
sS'afford'
p396
I842
sS'odious'
p397
I4035
sS'back-shop.during'
p398
I2827
sS'fourthe'
p399
I4694
sS'lookingabout'
p400
I2473
sS'believed'
p401
I1484
sS'tartness'
p402
I3580
sS'mirrors'
p403
I3280
sS'allowed'
p404
I4362
sS'winter'
p405
I2243
sS'sudden'
p406
I2039
sS'spot'
p407
I187
sS'speedof'
p408
I5247
sS'such'
p409
I346
sS'revealed'
p410
I5168
sS'waggons'
p411
I3417
sS'disagreeable'
p412
I4539
sS'natural'
p413
I4976
sS'conscious'
p414
I1208
sS'so'
p415
I125
sS'pulled'
p416
I2717
sS'drunken'
p417
I4870
sS'lighter'
p418
I5209
sS'years'
p419
I114
sS'course'
p420
I105
sS'tendency'
p421
I4571
sS'solitary'
p422
I244
sS'limbs'
p423
I3798
sS'bygain'
p424
I2963
sS'torn'
p425
I3030
sS'mused'
p426
I1721
sS'goodst'
p427
I994
sS'remonstrated'
p428
I2228
sS'abold'
p429
I1154
sS'strivewithin'
p430
I5387
sS'beef.foggier'
p431
I989
sS'shouted'
p432
I2292
sS'appropriate'
p433
I1511
sS'_you_'
p434
I655
sS'veins'
p435
I4430
sS'quarter'
p436
I2052
sS'thecredentials'
p437
I772
sS'receipt'
p438
I4065
sS'entering'
p439
I2347
sS'collarsso'
p440
I4078
sS'fezziwigs'
p441
I2697
sS'giddy'
p442
I5410
sS'unwatched'
p443
I5100
sS'workingstill'
p444
I5265
sS'itwere'
p445
I1610
sS'reconciled'
p446
I5262
sS'hopenot'
p447
I4971
sS'seventh'
p448
I3670
sS'quite'
p449
I415
sS'besides'
p450
I856
sS'scarred'
p451
I4250
sS'powerlies'
p452
I2858
sS'hispigtail'
p453
I1459
sS'undigested'
p454
I1537
sS'couldnot'
p455
I5599
sS'briskand'
p456
I3393
sS'misused'
p457
I1765
sS'emotion'
p458
I1939
sS'spoken'
p459
I2234
sS'one'
p460
I282
sS'themwith'
p461
I5511
sS'spanish'
p462
I3481
sS'open'
p463
I303
sS'vibrate.look'
p464
I1843
sS'city'
p465
I1151
sS'sucking-pigs'
p466
I3296
sS'penitence'
p467
I4002
sS'ourselvesbefore'
p468
I4989
sS'disorderof'
p469
I1533
sS'shawl'
p470
I3777
sS'ridiculous'
p471
I687
sS'depressed'
p472
I5177
sS'coats'
p473
I4970
sS'future'
p474
I3994
sS'wandering'
p475
I1895
sS'addressing'
p476
I750
sS'tasted'
p477
I2573
sS'turned'
p478
I1186
sS'sad'
p479
I129
sS'say'
p480
I57
sS'buried'
p481
I582
sS'borough'
p482
I5614
sS'saw'
p483
I354
sS'well'
p484
I760
sS'sat'
p485
I392
sS'last.by'
p486
I4096
sS'fashionable'
p487
I3743
sS'aside'
p488
I2070
sS'take'
p489
I1330
sS'altered'
p490
I2939
sS'opposite'
p491
I2998
sS'syllable'
p492
I1938
sS'knew'
p493
I103
sS'supernaturalvisitor'
p494
I1856
sS'knee'
p495
I4698
sS'onscrooge'
p496
I3327
sS'sale'
p497
I958
sS'bade'
p498
I2578
sS'trembled'
p499
I1662
sS'walking'
p500
I509
sS'hisbody'
p501
I1475
sS'surplus'
p502
I854
sS'new-born'
p503
I4851
sS'bright'
p504
I2006
sS'sosurely'
p505
I474
sS'weapons'
p506
I1002
sS'slow'
p507
I1716
sS'tears'
p508
I2893
sS'going'
p509
I156
sS'outrage'
p510
I4463
sS'blinds'
p511
I4115
sS'butalways'
p512
I4586
sS'wilfully'
p513
I2192
sS'satisfied.he'
p514
I5509
sS'rejoiced'
p515
I2303
sS'tobring'
p516
I5463
sS'theends'
p517
I5346
sS'clang'
p518
I5434
sS'rejoices'
p519
I836
sS'clearest'
p520
I3448
sS'prime'
p521
I2877
sS'other.after'
p522
I4938
sS'speakcomfort'
p523
I1684
sS'resource'
p524
I4683
sS'keenly'
p525
I833
sS'theroaring'
p526
I4099
sS'hinges'
p527
I4899
sS'byand'
p528
I450
sS'roger'
p529
I2769
sS'liable'
p530
I2229
sS'where'
p531
I306
sS'vision'
p532
I1589
sS'morose'
p533
I530
sS'sincetheir'
p534
I3951
sS'hastened'
p535
I5318
sS'purest'
p536
I2112
sS'pent-house'
p537
I4889
sS'alarming'
p538
I1991
sS'whicheffort'
p539
I486
sS'moons'
p540
I2800
sS'now.no'
p541
I1486
sS'apparition'
p542
I1621
sS'screen'
p543
I4954
sS'apiece'
p544
I5507
sS'scrutinise'
p545
I4903
sS'sobbingviolently'
p546
I5392
sS'plungedhis'
p547
I2741
sS'jovial'
p548
I2639
sS'spare'
p549
I1276
sS'menacing'
p550
I4646
sS'spark'
p551
I653
sS'undermine'
p552
I4219
sS'conversed'
p553
I4753
sS'signed'
p554
I28
sS'ever.scrooge'
p555
I5348
sS'many'
p556
I113
sS'loudly'
p557
I1411
sS'expression'
p558
I676
sS'ears.he'
p559
I5518
sS'itonly'
p560
I4406
sS'hadoccurred'
p561
I809
sS'caring'
p562
I1285
sS'gas-pipes'
p563
I915
sS'stretch'
p564
I4071
sS'west'
p565
I4175
sS'breath'
p566
I517
sS'especialpurpose'
p567
I3182
sS'himand'
p568
I2547
sS'ofhimself'
p569
I2951
sS'lanes'
p570
I3620
sS'thousand'
p571
I2255
sS'formed'
p572
I2108
sS'sturdily'
p573
I1218
sS'observe'
p574
I2991
sS'abject'
p575
I4625
sS'former'
p576
I2472
sS'astake'
p577
I583
sS'situation'
p578
I659
sS'notobserved'
p579
I1498
sS'brow'
p580
I1817
sS'engaged'
p581
I5227
sS'quiet'
p582
I5223
sS'givefor'
p583
I5008
sS'ivy'
p584
I3278
sS'thesame'
p585
I5403
sS'notthat'
p586
I5133
sS'defy'
p587
I4402
sS'cheery'
p588
I3357
sS'ofrooms'
p589
I1110
sS'vacant'
p590
I3987
sS'genii'
p591
I2432
sS'trains'
p592
I2185
sS'summer'
p593
I2126
sS'tokeep'
p594
I3984
sS'amansion'
p595
I2323
sS'being'
p596
I487
sS'andwhy'
p597
I1627
sS'rest'
p598
I602
sS'flutterings'
p599
I4484
sS'inaudible'
p600
I4581
sS'weekly'
p601
I4058
sS'ghostly'
p602
I1184
sS'joyful'
p603
I3360
sS'skies'
p604
I3758
sS'sums'
p605
I5006
sS'dark'
p606
I185
sS'spoketo'
p607
I5285
sS'bandage'
p608
I1609
sS'world'
p609
I686
sS'ithappened'
p610
I2980
sS'dare'
p611
I600
sS'tremulous'
p612
I904
sS'stranger'
p613
I1212
sS'abright'
p614
I4290
sS'shutter'
p615
I2751
sS'kenned'
p616
I4155
sS'claw'
p617
I4621
sS'clap'
p618
I2651
sS'grouping'
p619
I2732
sS'satisfactory'
p620
I4336
sS'lobster'
p621
I1178
sS'thinks'
p622
I3820
sS'noon'
p623
I1990
sS'dimpled'
p624
I4324
sS'sucha'
p625
I1603
sS'think.'
p626
I5153
sS'power'
p627
I1379
sS'fire.quiet'
p628
I5222
sS'fezziwig'
p629
I2628
sS'snuff-box'
p630
I4765
sS'stone'
p631
I1127
sS'industry'
p632
I2928
sS'act'
p633
I1263
sS'lofty'
p634
I2688
sS'stony'
p635
I1590
sS'image'
p636
I4841
sS'parties'
p637
I4659
sS'thatbewildering'
p638
I4066
sS'residuary'
p639
I121
sS'her'
p640
I2509
sS'endeavouring'
p641
I1958
sS'hey'
p642
I4807
sS'face.marley'
p643
I1173
sS'yearned'
p644
I3740
sS'broadwise'
p645
I1269
sS'with'
p646
I16
sS'fruiterers'
p647
I3467
sS'rush'
p648
I3054
sS'thatwas'
p649
I5578
sS'oldsinner'
p650
I230
sS'rags'
p651
I4890
sS'dirty'
p652
I2488
sS'severally'
p653
I5002
sS'rust'
p654
I3366
sS'darker'
p655
I2487
sS'gone'
p656
I413
sS'exhausted'
p657
I2750
sS'certain'
p658
I2616
sS'am'
p659
I155
sS'watches'
p660
I4755
sS'an'
p661
I140
sS'as'
p662
I50
sS'at'
p663
I172
sS'walks'
p664
I3509
sS'watched'
p665
I4239
sS'fromthe'
p666
I4052
sS'beaming'
p667
I2698
sS'closebeside'
p668
I5259
sS'gayest'
p669
I3616
sS'intimation'
p670
I502
sS'sayyou'
p671
I1264
sS'aday'
p672
I1050
sS'tricks'
p673
I3550
sS'groom'
p674
I2430
sS'thechuckle'
p675
I5496
sS'having'
p676
I532
sS'congenialfrost.at'
p677
I1024
sS'caused'
p678
I5161
sS'beware'
p679
I4667
sS'orcould'
p680
I2671
sS'welfare'
p681
I1773
sS'content'
p682
I3444
sS'head.altogether'
p683
I4333
sS'to'
p684
I14
sS'tail'
p685
I1466
sS'dressing'
p686
I2612
sS'smile'
p687
I2695
sS'case'
p688
I1575
sS'beautifulyoung'
p689
I2994
sS'floated'
p690
I1889
sS'theyteach'
p691
I5364
sS'withinhimself'
p692
I2024
sS'offal'
p693
I4893
sS'hiscandle'
p694
I1036
sS'surprise'
p695
I1874
sS'myspirit'
p696
I1699
sS'mensee'
p697
I3828
sS'condition'
p698
I1518
sS'cable'
p699
I1680
sS'time.scrooge'
p700
I5581
sS'laying'
p701
I793
sS'joined'
p702
I1887
sS'large'
p703
I452
sS'sang'
p704
I4083
sS'dusky'
p705
I4149
sS'small'
p706
I464
sS'sank'
p707
I3171
sS'past'
p708
I1971
sS'andgreasy'
p709
I4892
sS'observingthat'
p710
I3210
sS'morethan'
p711
I2497
sS'destitute'
p712
I781
sS'clock'
p713
I1972
sS'loosewaves'
p714
I3045
sS'imperceptibly'
p715
I4575
sS'full'
p716
I803
sS'escaping'
p717
I1823
sS'leaping'
p718
I5591
sS'hours'
p719
I901
sS'musthave'
p720
I1975
sS'hast'
p721
I5123
sS'elbow.it'
p722
I2081
sS'lookers-on'
p723
I3569
sS'hopeto'
p724
I4741
sS'bestow'
p725
I335
sS'saidscrooge.the'
p726
I4716
sS'mouldy'
p727
I4393
sS'muchabout'
p728
I4762
sS'pick'
p729
I4968
sS'action'
p730
I1020
sS'thoughtwas'
p731
I5200
sS'preposterousclock'
p732
I1982
sS'followed'
p733
I537
sS'revelled'
p734
I4382
sS'beheld'
p735
I4690
sS'andregret'
p736
I2970
sS'beingchanged'
p737
I3913
sS'peals'
p738
I5431
sS'anythinghas'
p739
I1988
sS'pears'
p740
I3310
sS'notleave'
p741
I5155
sS'fragrance'
p742
I3508
sS'throughhis'
p743
I1290
sS'more'
p744
I168
sS'door'
p745
I207
sS'company'
p746
I3546
sS'twothe'
p747
I1950
sS'doom'
p748
I4669
sS'joinedin'
p749
I4200
sS'keeping'
p750
I1559
sS'astheir'
p751
I3632
sS'knocker'
p752
I1167
sS'learn'
p753
I4436
sS'knocked'
p754
I2626
sS'grope'
p755
I1129
sS'beautiful'
p756
I2117
sS'uponan'
p757
I2235
sS'cherry-cheeked'
p758
I3305
sS'neglected'
p759
I2317
sS'states'
p760
I2015
sS'fiercely'
p761
I4218
sS'anill-will'
p762
I1027
sS'sense'
p763
I2788
sS'dress'
p764
I2124
sS'alocomotive'
p765
I1278
sS'condemn'
p766
I2908
sS'mince-pies'
p767
I3299
sS'impulse'
p768
I5095
sS'ruddyas'
p769
I942
sS'downupon'
p770
I3155
sS'dismissed'
p771
I2674
sS'andknock'
p772
I5551
sS'amhere'
p773
I5397
sS'wasnever'
p774
I4546
sS'relinquished'
p775
I1216
sS'creature'
p776
I2591
sS'waved'
p777
I2482
sS'sprinkle'
p778
I3659
sS'hisown'
p779
I274
sS'thickened'
p780
I879
sS'ill-will'
p781
I3677
sS'waves'
p782
I4237
sS'pleaded'
p783
I586
sS'register'
p784
I25
sS'children'
p785
I337
sS'replied'
p786
I756
sS'theforfeits'
p787
I4505
sS'bowl'
p788
I3531
sS'trade'
p789
I78
sS'resorts'
p790
I5304
sS'attitude'
p791
I1859
sS'pang'
p792
I5521
sS'signs'
p793
I2881
sS'smiling'
p794
I3936
sS'its'
p795
I299
sS'deeds'
p796
I1472
sS'alli'
p797
I4774
sS'shuddering'
p798
I5083
sS'followers'
p799
I2700
sS'travelling'
p800
I1722
sS'sauce'
p801
I3862
sS'hoop'
p802
I2466
sS'it.'
p803
I5460
sS'deliberating'
p804
I4062
sS'hung-upmistletoe'
p805
I3492
sS'snowball'
p806
I3459
sS'weeds'
p807
I5331
sS'likeness'
p808
I4845
sS'andit'
p809
I3672
sS'always'
p810
I277
sS'refuseiron'
p811
I4902
sS'courses'
p812
I5342
sS'piping'
p813
I5437
sS'found'
p814
I1855
sS'begged'
p815
I2267
sS'resolute'
p816
I700
sS'soyou'
p817
I1282
sS'hadnever'
p818
I1483
sS'really'
p819
I627
sS'inquired'
p820
I343
sS'allthree'
p821
I5361
sS'missed'
p822
I2056
sS'hood'
p823
I5377
sS'theneck'
p824
I3080
sS'belief'
p825
I3013
sS'bedlam'
p826
I732
sS'thespirit'
p827
I2204
sS'hispartner'
p828
I3135
sS'murmur'
p829
I3888
sS'better-natured'
p830
I3460
sS'owners'
p831
I358
sS'herelbows'
p832
I4962
sS'christmas-day'
p833
I3647
sS'theslow'
p834
I3761
sS'arose'
p835
I3890
sS'gazed'
p836
I2249
sS'thefire-place'
p837
I1341
sS'stagger.when'
p838
I2812
sS'guess'
p839
I3129
sS'jet'
p840
I2133
sS'ofdarkest'
p841
I4183
sS'immediate'
p842
I2875
sS'stairs'
p843
I1252
sS'grace'
p844
I3879
sS'andno'
p845
I3231
sS'ungrateful'
p846
I4572
sS'indeed.there'
p847
I4084
sS'submissively'
p848
I3377
sS'marriage'
p849
I3952
sS'mossy'
p850
I2334
sS'beforehand'
p851
I3855
sS'fireside'
p852
I3116
sS'livery'
p853
I1157
sS'pedestrian'
p854
I2214
sS'bedpost.stave'
p855
I5380
sS'hishands'
p856
I1709
sS'self'
p857
I2379
sS'also'
p858
I1143
sS'christmascarol'
p859
I2479
sS'frail'
p860
I652
sS'heavenknows'
p861
I2954
sS'seized'
p862
I1017
sS'play'
p863
I165
sS'exulted'
p864
I4137
sS'swiftly'
p865
I4186
sS'buthe'
p866
I5367
sS'yawn'
p867
I4767
sS'bowels'
p868
I1482
sS'weremince-pies'
p869
I2760
sS'seize'
p870
I4475
sS'sometimes'
p871
I211
sS'cover'
p872
I5106
sS'barred'
p873
I2657
sS'barren'
p874
I4197
sS'dragged'
p875
I5035
sS'high-road'
p876
I2320
sS'gold'
p877
I637
sS'upon.and'
p878
I5579
sS'hedrew'
p879
I1461
sS'occupation'
p880
I5311
sS'him.meanwhile'
p881
I877
sS'failed'
p882
I490
sS'thatextremity'
p883
I677
sS'worldlyfortune'
p884
I2926
sS'giants'
p885
I4165
sS'gratis'
p886
I3503
sS'farthing'
p887
I5533
sS'closely'
p888
I1467
sS'itsdistinctness'
p889
I2151
sS'tumult'
p890
I2610
sS'cry'
p891
I1602
sS'dismounted'
p892
I1028
sS'smokylamp'
p893
I4957
sS'obscure'
p894
I4863
sS'river'
p895
I2281
sS'saidscrooge'
p896
I572
sS'body'
p897
I820
sS'delicately'
p898
I2107
sS'set'
p899
I1733
sS'hishorror'
p900
I1608
sS'see'
p901
I333
sS'sea'
p902
I1365
sS'outward'
p903
I4604
sS'knees'
p904
I1617
sS'spirits'
p905
I767
sS'demons'
p906
I5073
sS'monsters'
p907
I4653
sS'knowing'
p908
I383
sS'brewing'
p909
I451
sS'belshazzars'
p910
I1362
sS'improved'
p911
I872
sS'thou'
p912
I5122
sS'barely'
p913
I3169
sS'twenty-fifth'
p914
I1053
sS'labourerswere'
p915
I913
sS'whole'
p916
I1058
sS'housetops'
p917
I3454
sS'drunk'
p918
I979
sS'acted'
p919
I2828
sS'hollow'
p920
I2064
sS'frosty'
p921
I267
sS'church'
p922
I890
sS'improvement'
p923
I4831
sS'corpseitself'
p924
I5075
sS'belt'
p925
I2115
sS'worthless'
p926
I4011
sS'filth'
p927
I4882
sS'suburbs'
p928
I3688
sS'extravagant'
p929
I4313
sS"people's.mine"
p930
I861
sS'firm'
p931
I209
sS'fire'
p932
I241
sS'fund'
p933
I825
sS'awake'
p934
I2043
sS'besthumour'
p935
I3598
sS'struck'
p936
I239
sS'strangeto'
p937
I3682
sS'straight'
p938
I1444
sS'forgetting'
p939
I3867
sS'pressed'
p940
I3154
sS'leaning'
p941
I3113
sS'kissing'
p942
I2510
sS'robin'
p943
I2455
sS'agitation'
p944
I2835
sS'whichwould'
p945
I4055
sS'frouzy'
p946
I4919
sS'dotting'
p947
I4148
sS'untilthe'
p948
I2917
sS'clucked'
p949
I2338
sS'since'
p950
I839
sS'ledgers'
p951
I1471
sS'dozen'
p952
I3776
sS'forgiveness'
p953
I5195
sS'comprehensive'
p954
I1781
sS'whenhe'
p955
I3829
sS'infamous'
p956
I4885
sS'youmust'
p957
I5491
sS'thethreshold.now'
p958
I1138
sS'anhour'
p959
I1416
sS'person'
p960
I1425
sS'clasped'
p961
I1462
sS'lads'
p962
I2666
sS'crackled'
p963
I938
sS'andgratitude'
p964
I3102
sS'haveconducted'
p965
I1801
sS'went.you'
p966
I1256
sS'cuffs'
p967
I3835
sS'knowwhether'
p968
I5451
sS'eager'
p969
I2884
sS'crying'
p970
I2444
sS'surprised'
p971
I4813
sS'verywealthy'
p972
I4800
sS'hadany'
p973
I4570
sS'couple'
p974
I2726
sS'wilkins'
p975
I2646
sS'quest'
p976
I4856
sS'asdead'
p977
I101
sS'flannel'
p978
I5077
sS'chorus'
p979
I4201
sS'faceto'
p980
I2076
sS'mytrade'
p981
I1778
sS'canst'
p982
I5129
sS'spring'
p983
I1978
sS'necessaries'
p984
I788
sS'tounderstand'
p985
I859
sS'mighty'
p986
I961
sS'sight'
p987
I1229
sS'pale'
p988
I940
sS'gruel'
p989
I1304
sS'stables'
p990
I2340
sS'cheapness'
p991
I3898
sS'behave'
p992
I3814
sS'be'
p993
I109
sS'nowhere'
p994
I5219
sS'carol'
p995
I1015
sS'by'
p996
I29
sS'glancedanxiously'
p997
I2505
sS'anything'
p998
I44
sS'sick-beds'
p999
I4587
sS'deserves'
p1000
I2850
sS"'uncle"
p1001
I4405
sS'into'
p1002
I1232
sS'thethundering'
p1003
I4213
sS'tomeet'
p1004
I4109
sS'careand'
p1005
I2882
sS'ofmetal'
p1006
I4950
sS'custom'
p1007
I1323
sS':'
I208
sS'thepath'
p1008
I1832
sS'elsewhere'
p1009
I5313
sS'inches'
p1010
I2624
sS'relaxed'
p1011
I3168
sS'instalments'
p1012
I2563
sS'link'
p1013
I1656
sS'line'
p1014
I4923
sS'up'
p1015
I128
sS'us'
p1016
I669
sS'slander'
p1017
I4676
sS'mature'
p1018
I2025
sS'faded'
p1019
I1927
sS'genial'
p1020
I3649
sS'likewise'
p1021
I4507
sS'influence'
p1022
I287
sS'haunt'
p1023
I3146
sS'surveying'
p1024
I3905
sS'graceful'
p1025
I3118
sS'phantom'
p1026
I1488
sS'sunken'
p1027
I4222
sS'andhis'
p1028
I3702
sS'andbegged'
p1029
I2178
sS'fineone'
p1030
I5056
sS'brazier'
p1031
I918
sS'imploringly'
p1032
I1683
sS'mankind'
p1033
I1771
sS'faintly'
p1034
I1047
sS'masterpeter'
p1035
I3727
sS'sides'
p1036
I4311
sS'ago'
p1037
I758
sS'lane'
p1038
I1079
sS'land'
p1039
I4209
sS'thestreets'
p1040
I5510
sS'age'
p1041
I2096
sS'holes'
p1042
I4969
sS'walked'
p1043
I1063
sS'dot'
p1044
I5608
sS'fresh'
p1045
I2119
sS'shorteststreets'
p1046
I3430
sS'scratch'
p1047
I4806
sS'soften'
p1048
I5208
sS'seemed'
p1049
I1197
sS'anywhere.my'
p1050
I1697
sS'young'
p1051
I1008
sS'send'
p1052
I5470
sS'rejoined'
p1053
I2901
sS'werelinked'
p1054
I1904
sS'dislike'
p1055
I4356
sS'carelessly'
p1056
I5107
sS'sent'
p1057
I2524
sS'garden'
p1058
I2582
sS'torture'
p1059
I2985
sS'bobtook'
p1060
I3865
sS'panting'
p1061
I2660
sS'onemarley'
p1062
I8
sS'continued'
p1063
I5503
sS'try'
p1064
I2946
sS'race'
p1065
I632
sS'awoman'
p1066
I4929
sS'dirtier'
p1067
I3412
sS'unprofitable'
p1068
I2979
sS'negus'
p1069
I2758
sS'twine'
p1070
I3544
sS'foryour'
p1071
I4678
sS'by-the-bye'
p1072
I5273
sS'waning'
p1073
I4744
sS'expressed'
p1074
I2199
sS'excitement.the'
p1075
I3537
sS'lessons'
p1076
I5363
sS'led'
p1077
I1796
sS'leg'
p1078
I2152
sS'gathered'
p1079
I921
sS'punch'
p1080
I3314
sS'poverty'
p1081
I2906
sS'fifteen'
p1082
I725
sS'vinegar'
p1083
I4384
sS'great'
p1084
I917
sS'thata'
p1085
I2201
sS"'for"
p1086
I5277
sS'opinion'
p1087
I4350
sS'scoresof'
p1088
I3618
sS'makes'
p1089
I1535
sS'factious'
p1090
I4679
sS'hall.and'
p1091
I3697
sS'confidence'
p1092
I2961
sS'recalling'
p1093
I3507
sS'ministers'
p1094
I1691
sS'next'
p1095
I952
sS'eleven'
p1096
I2813
sS'doubt'
p1097
I21
sS'irrepressible'
p1098
I3083
sS'baba'
p1099
I2416
sS'laboured'
p1100
I1669
sS'sir.'
p1101
I805
sS'dealings'
p1102
I1777
sS'carrying'
p1103
I3624
sS'baby'
p1104
I987
sS'gladly'
p1105
I2953
sS'charity'
p1106
I1774
sS'this'
p1107
I148
sS'challenge'
p1108
I3197
sS'scatter'
p1109
I4701
sS'shopsand'
p1110
I4869
sS'streamed'
p1111
I3160
sS'bent'
p1112
I4020
sS'process'
p1113
I1170
sS'lock'
p1114
I1166
sS'purposes'
p1115
I2215
sS'high'
p1116
I2622
sS'beckoned'
p1117
I1867
sS'sitting-room'
p1118
I5415
sS'shuffled'
p1119
I3262
sS'madecomfortable'
p1120
I4501
sS'wares'
p1121
I4909
sS'thisgirl'
p1122
I4666
sS'delay'
p1123
I5199
sS'hairwas'
p1124
I4607
sS'animal'
p1125
I4538
sS'intelligent'
p1126
I5450
sS'clasping'
p1127
I2245
sS'singular'
p1128
I2121
sS'fire-irons'
p1129
I4464
sS'tied'
p1130
I2576
sS'pigs'
p1131
I3387
sS'marrow'
p1132
I1563
sS'patted'
p1133
I5544
sS'figure-head'
p1134
I4251
sS'noises'
p1135
I1878
sS'allow'
p1136
I4992
sS'thechaise'
p1137
I2577
sS'peck'
p1138
I3608
sS'move'
p1139
I3203
sS'mumbled'
p1140
I1010
sS'produced'
p1141
I2874
sS'perfect'
p1142
I3271
sS'lyingthere'
p1143
I5041
sS'mistletoe'
p1144
I3277
sS'likefeather'
p1145
I1359
sS'shudder'
p1146
I4860
sS'degrees'
p1147
I3106
sS'themwhen'
p1148
I5141
sS'arebadly'
p1149
I850
sS'ship'
p1150
I4252
sS'transparent'
p1151
I1476
sS'fall.he'
p1152
I2891
sS'whither'
p1153
I4208
sS'delightful'
p1154
I5457
sS'vibrations'
p1155
I905
sS'goodtime'
p1156
I611
sS'hadgone'
p1157
I2499
sS'truth'
p1158
I1555
sS'fields'
p1159
I2237
sS'accompanied'
p1160
I2539
sS'beneath'
p1161
I3157
sS'doing'
p1162
I5011
sS'andmuscular'
p1163
I2103
sS'theback'
p1164
I2364
sS'books'
p1165
I562
sS'wander'
p1166
I1643
sS'witness'
p1167
I1646
sS"'"
I945
sS'myclerk'
p1168
I724
sS'bunches'
p1169
I3495
sS'shut'
p1170
I1223
sS'bang.the'
p1171
I1238
sS'greedy'
p1172
I2885
sS'crossedarms'
p1173
I5039
sS'surely'
p1174
I2971
sS'shun'
p1175
I1831
sS'could'
p1176
I108
sS'chilly'
p1177
I2357
sS'length'
p1178
I675
sS'pudding'
p1179
I581
sS'bobproposed'
p1180
I3978
sS'distinguish'
p1181
I1954
sS'ofserious'
p1182
I5179
sS'staggered'
p1183
I5593
sS'scene'
p1184
I2831
sS'gatherings'
p1185
I4129
sS'brimful'
p1186
I2518
sS'survivingpartner'
p1187
I762
sS'frightfulrange'
p1188
I4210
sS'cityknew'
p1189
I5613
sS'malady'
p1190
I5626
sS'hilli-ho'
p1191
I2662
sS'iwill'
p1192
I5360
sS'quickwheels'
p1193
I2584
sS'uncurtained'
p1194
I5089
sS'steel'
p1195
I236
sS'feelingassured'
p1196
I4818
sS'aninfant'
p1197
I1919
sS'listeners'
p1198
I4791
sS'courtoutside'
p1199
I400
sS'cheekagainst'
p1200
I5242
sS'false'
p1201
I2965
sS'adifferent'
p1202
I5301
sS'againstsurprise'
p1203
I1326
sS'gently'
p1204
I2208
sS'gentle'
p1205
I2168
sS'clearly'
p1206
I865
sS'noother'
p1207
I3350
sS'rainless'
p1208
I302
sS'dishes'
p1209
I3878
sS'itwas'
p1210
I218
sS'accuracy'
p1211
I5094
sS'manof'
p1212
I4060
sS'thewhole'
p1213
I674
sS'bred'
p1214
I2247
sS'face'
p1215
I514
sS'lots'
p1216
I2667
sS'demurely'
p1217
I3491
sS'cash-boxes'
p1218
I1468
sS'ground.he'
p1219
I3162
sS'fact'
p1220
I1139
sS'atmosphere'
p1221
I2940
sS'perversion'
p1222
I4648
sS'bring'
p1223
I2511
sS'infive'
p1224
I5568
sS'bedroom'
p1225
I1295
sS'rough'
p1226
I3392
sS'throughand'
p1227
I1489
sS'reelto'
p1228
I3170
sS'thefigure'
p1229
I3340
sS'pause'
p1230
I1221
sS'jaw'
p1231
I1614
sS"shopkeepers'benevolence"
p1232
I3497
sS'should'
p1233
I579
sS'buttons'
p1234
I1479
sS'toovertake'
p1235
I5585
sS'hope'
p1236
I1822
sS'meant'
p1237
I3243
sS'handle'
p1238
I3892
sS'listened'
p1239
I1965
sS'means'
p1240
I1553
sS'familiar'
p1241
I1001
sS'itswhole'
p1242
I3159
sS'basking'
p1243
I3750
sS'frame'
p1244
I3800
sS'packed'
p1245
I2673
sS'beenlight'
p1246
I2251
sS'behindhim'
p1247
I5512
sS'retentive'
p1248
I2345
sS'spreaditself'
p1249
I4166
sS'ends'
p1250
I5344
sS'gruel.it'
p1251
I1331
sS'notion'
p1252
I4410
sS'lookingthrough'
p1253
I1478
sS'grasp'
p1254
I2221
sS'belinda'
p1255
I3914
sS'andaway'
p1256
I3612
sS'staring'
p1257
I1565
sS'aclicking'
p1258
I2399
sS'observable'
p1259
I3347
sS'decayed.fowls'
p1260
I2337
sS'thebalustrades'
p1261
I1272
sS'doorway'
p1262
I3630
sS'figures'
p1263
I1367
sS'tears.the'
p1264
I2403
sS'adjusted'
p1265
I2633
sS'consequenceof'
p1266
I4387
sS'otherhouses'
p1267
I1120
sS'thewindow'
p1268
I1864
sS'in.suppose'
p1269
I3917
sS'debt'
p1270
I5202
sS'steadiness'
p1271
I2145
sS'drank'
p1272
I4041
sS'feather'
p1273
I5406
sS'retirement.scrooge'
p1274
I4928
sS'hadhappened'
p1275
I2498
sS'amongthe'
p1276
I601
sS'grinning'
p1277
I5288
sS'parlourthat'
p1278
I2552
sS'onlyone'
p1279
I685
sS'stuffing'
p1280
I3886
sS'ripe'
p1281
I4327
sS'not.master'
p1282
I2574
sS'demanded'
p1283
I796
sS'alone.quite'
p1284
I3137
sS'greater'
p1285
I1607
sS'glared'
p1286
I2543
sS'arm.even'
p1287
I2143
sS'thatsuch'
p1288
I954
sS'biffins'
p1289
I3514
sS'ball'
p1290
I2815
sS'wisest'
p1291
I2049
sS'upon'
p1292
I41
sS'dust'
p1293
I4019
sS'identity'
p1294
I4492
sS'pleasantly'
p1295
I5244
sS'thehour'
p1296
I2044
sS'ofa'
p1297
I1209
sS'off'
p1298
I742
sS'colour'
p1299
I1194
sS'ofregret'
p1300
I1762
sS'command'
p1301
I5125
sS'administered'
p1302
I2562
sS'drawing'
p1303
I4613
sS'less'
p1304
I4012
sS'moments'
p1305
I2139
sS'andfur-booted'
p1306
I4119
sS'bycandle-light'
p1307
I2362
sS'paul'
p1308
I190
sS'thither'
p1309
I1897
sS'wouldhave'
p1310
I2783
sS'generous'
p1311
I3700
sS'clergyman'
p1312
I31
sS'thegentlemen'
p1313
I868
sS'wet'
p1314
I3654
sS'stooped'
p1315
I1013
sS'five'
p1316
I975
sS'desk'
p1317
I2623
sS'pies'
p1318
I3388
sS'goldengoblets'
p1319
I3973
sS'crisp'
p1320
I2296
sS'onion'
p1321
I3753
sS'chairs'
p1322
I3073
sS'bigotry'
p1323
I3680
sS'flickering'
p1324
I4104
sS'cried.shaving'
p1325
I5501
sS'become'
p1326
I2013
sS'underwent'
p1327
I5316
sS'portly'
p1328
I737
sS'immortal'
p1329
I1746
sS'daylight'
p1330
I5169
sS'almonds'
p1331
I3558
sS'choosing'
p1332
I2964
sS'awhole'
p1333
I1987
sS'recognition'
p1334
I4937
sS'byhouses'
p1335
I5330
sS'literally'
p1336
I193
sS'avoid'
p1337
I5201
sS'shone'
p1338
I2798
sS'passion'
p1339
I2889
sS'saucepan'
p1340
I1303
sS'thefog'
p1341
I430
sS'anoffice'
p1342
I5319
sS'recompensed'
p1343
I5497
sS'adversary'
p1344
I3150
sS'sister'
p1345
I2548
sS'firsttime'
p1346
I2421
sS'thesize'
p1347
I5474
sS'withscrooge'
p1348
I3629
sS'letters'
p1349
I463
sS'camden'
p1350
I1086
sS'tiny'
p1351
I2513
sS'cultivated'
p1352
I4446
sS'peoplein'
p1353
I736
sS'useto'
p1354
I4343
sS'mere'
p1355
I440
sS'glistened'
p1356
I3276
sS'theshadow'
p1357
I4834
sS'scanty'
p1358
I4087
sS'much'
p1359
I466
sS'helpedit'
p1360
I5253
sS'withtears'
p1361
I5394
sS'storehouse'
p1362
I2398
sS'grate'
p1363
I1300
sS'thehouse'
p1364
I5312
sS'count'
p1365
I2862
sS'places'
p1366
I3671
sS'shrunk'
p1367
I2490
sS'thydominion'
p1368
I5126
sS'smooth'
p1369
I1375
sS'problem'
p1370
I2032
sS'uglier'
p1371
I5062
sS'heartto'
p1372
I5522
sS'bearing'
p1373
I4822
sS'therelately'
p1374
I5260
sS'enoughthat'
p1375
I3105
sS'plundered'
p1376
I3056
sS'ina'
p1377
I1179
sS'behold'
p1378
I739
sS'gallantly'
p1379
I3738
sS'repeat'
p1380
I98
sS'christmas.external'
p1381
I284
sS'monday'
p1382
I978
sS'ominousword'
p1383
I768
sS'chance'
p1384
I1821
sS'wrenching'
p1385
I225
sS'veil'
p1386
I5114
sS'vein'
p1387
I4408
sS'ghost'
p1388
I4
sS'lasted'
p1389
I1414
sS'hethought.marley'
p1390
I2021
sS'doubts'
p1391
I3954
sS'desirable'
p1392
I777
sS'mansion'
p1393
I962
sS'werelooking'
p1394
I5558
sS'tooshort'
p1395
I1758
sS'sputtered'
p1396
I3976
sS'unanimity'
p1397
I5574
sS'pavementin'
p1398
I3395
sS'thecarving-knife'
p1399
I3882
sS'fancyabout'
p1400
I1150
sS'sped'
p1401
I4207
sS'plaintive'
p1402
I4082
sS'worth'
p1403
I2943
sS'wreath'
p1404
I3352
sS'four-roomed'
p1405
I3716
sS'whichhis'
p1406
I2072
sS'jacob'
p1407
I1512
sS'chapel'
p1408
I3611
sS'red'
p1409
I260
sS'charwoman'
p1410
I4939
sS'bubbling'
p1411
I3762
sS'horn'
p1412
I3325
sS'notturn'
p1413
I5130
sS'established'
p1414
I3194
sS'endsto-night.'
p1415
I4610
sS'askedme'
p1416
I5024
sS'above'
p1417
I205
sS'churches'
p1418
I5429
sS'told'
p1419
I2174
sS'shutup'
p1420
I3133
sS'festive'
p1421
I773
sS'gripingcares'
p1422
I5144
sS'kindred'
p1423
I766
sS'householdshould'
p1424
I971
sS'obtained'
p1425
I4056
sS'assnug'
p1426
I2681
sS'daughter'
p1427
I3017
sS'theappearance'
p1428
I2088
sS'itsback'
p1429
I2095
sS'cheats'
p1430
I1536
sS'opportunities'
p1431
I1764
sS'glance'
p1432
I1393
sS'total'
p1433
I5009
sS'andglittered'
p1434
I2148
sS'ideataking'
p1435
I3261
sS'negative'
p1436
I4567
sS'hewas'
p1437
I5082
sS'hiswild'
p1438
I2423
sS'distinctlyunderstood'
p1439
I150
sS'ihave'
p1440
I598
sS'adamant'
p1441
I4003
sS'overrun'
p1442
I2343
sS'word'
p1443
I711
sS'wore'
p1444
I1660
sS'highly-decorated'
p1445
I3581
sS'work'
p1446
I571
sS'worn'
p1447
I3604
sS'eighteen'
p1448
I3373
sS'incame'
p1449
I2703
sS'elbow'
p1450
I3966
sS'quiteas'
p1451
I3218
sS'allpermitted'
p1452
I1694
sS'scroogesaid'
p1453
I5515
sS'provide'
p1454
I3376
sS'agony'
p1455
I5366
sS'nuts'
p1456
I386
sS'very'
p1457
I136
sS'andfrost'
p1458
I1130
sS'by-and-bythey'
p1459
I4080
sS'barer'
p1460
I2367
sS'lad'
p1461
I5449
sS'earlier'
p1462
I1060
sS'movable'
p1463
I2672
sS'bared'
p1464
I4138
sS'lay'
p1465
I2034
sS'law'
p1466
I802
sS"man'sdeath"
p1467
I5214
sS'dunstan'
p1468
I995
sS'greet'
p1469
I3063
sS'ghost.scrooge'
p1470
I2198
sS'haste'
p1471
I1899
sS'order'
p1472
I2012
sS'succeededby'
p1473
I1421
sS'office'
p1474
I279
sS'devote'
p1475
I4453
sS'consent'
p1476
I3441
sS'satisfied'
p1477
I1320
sS'havequestioned'
p1478
I3041
sS'mayor'
p1479
I970
sS'somewhere'
p1480
I4153
sS'homerampant'
p1481
I3805
sS'androom'
p1482
I1275
sS'then'
p1483
I361
sS'them'
p1484
I410
sS'fragment'
p1485
I1544
sS'safe'
p1486
I1911
sS'befrightened'
p1487
I1248
sS'break'
p1488
I3918
sS'they'
p1489
I316
sS'embarrassed'
p1490
I5185
sS'rocks'
p1491
I4211
sS'dingy'
p1492
I442
sS'doubtsof'
p1493
I4599
sS'owner'
p1494
I1006
sS'prosebeing'
p1495
I3
sS'forty'
p1496
I3010
sS'fellows'
p1497
I2653
sS'strangers'
p1498
I4946
sS'remorse'
p1499
I1726
sS'forth'
p1500
I1638
sS'andcares'
p1501
I2261
sS'middle-aged'
p1502
I180
sS'sailinground'
p1503
I2457
sS'mindor'
p1504
I819
sS'dinewith'
p1505
I4357
sS'dashing'
p1506
I2585
sS'_to'
p1507
I1628
sS'top.oh'
p1508
I3945
sS'hurriedup'
p1509
I4751
sS'notthe'
p1510
I5455
sS'allso'
p1511
I3586
sS'you.there'
p1512
I4510
sS'render'
p1513
I2853
sS'another'
p1514
I631
sS'thoughtfully'
p1515
I2481
sS'thick'
p1516
I4182
sS'nowand'
p1517
I3457
sS'illustrate'
p1518
I1348
sS'hearse'
p1519
I1266
sS'disgorged'
p1520
I4875
sS'vibrate'
p1521
I4687
sS'plentiful'
p1522
I3556
sS'dogs'
p1523
I351
sS'emblem'
p1524
I2123
sS'theplace'
p1525
I2359
sS'wasted'
p1526
I5057
sS'mercy'
p1527
I1619
sS'tavern'
p1528
I1093
sS'seated'
p1529
I5221
sS'iron'
p1530
I1679
sS'thespirits'
p1531
I5446
sS'nothigh'
p1532
I2790
sS'manner'
p1533
I1718
sS'stomach'
p1534
I1534
sS'orthat'
p1535
I5216
sS'forced'
p1536
I2989
sS'herfinger'
p1537
I4495
sS'laden'
p1538
I2413
sS'convenient'
p1539
I1039
sS'latter'
p1540
I1457
sS'subjects'
p1541
I3216
sS'andwide'
p1542
I1637
sS'itscoming'
p1543
I1448
sS'conducive'
p1544
I2203
sS'gravy'
p1545
I1547
sS'ofit'
p1546
I5109
sS'questionedbeggars'
p1547
I5545
sS'ironmongery'
p1548
I76
sS'grave'
p1549
I629
sS'somerciless'
p1550
I5204
sS'briskly'
p1551
I2644
sS'wrung'
p1552
I1650
sS'nephew'
p1553
I498
sS'enjoyed'
p1554
I2833
sS'toast'
p1555
I4042
sS'him.'
p1556
I5445
sS'latent'
p1557
I2382
sS'moreperplexed'
p1558
I2019
sS'home.scrooge'
p1559
I1932
sS'thecase'
p1560
I5084
sS'twistedthem'
p1561
I4640
sS'do'
p1562
I54
sS'de'
p1563
I2770
sS'frowning'
p1564
I4181
sS'was.and'
p1565
I4460
sS'good-humour'
p1566
I4309
sS'haunted'
p1567
I1433
sS'congealed'
p1568
I930
sS'happiest'
p1569
I5384
sS'behindhand'
p1570
I4317
sS'covering'
p1571
I3351
sS'tothat'
p1572
I3934
sS'steam'
p1573
I3317
sS'gladness'
p1574
I2309
sS'observed'
p1575
I858
sS'miserable'
p1576
I4627
sS'_my_'
p1577
I5030
sS'away'
p1578
I2162
sS'gentleman'
p1579
I181
sS'appealing'
p1580
I4663
sS'unable'
p1581
I1916
sS'drawn'
p1582
I2069
sS'we'
p1583
I159
sS'wo'
p1584
I1445
sS'handful'
p1585
I1339
sS'travellers'
p1586
I2301
sS'often.the'
p1587
I4758
sS'wouldrender'
p1588
I4837
sS'received'
p1589
I3089
sS'climate'
p1590
I3446
sS'itscapacious'
p1591
I4140
sS'ill'
p1592
I1044
sS'freshest'
p1593
I4636
sS'tough'
p1594
I3176
sS'thatits'
p1595
I4712
sS'directions'
p1596
I5464
sS'athing.at'
p1597
I3958
sS'youcompany'
p1598
I4742
sS'speak'
p1599
I2973
sS'condemned'
p1600
I1639
sS'wideand'
p1601
I3215
sS'chimneys'
p1602
I3439
sS'warmth'
p1603
I288
sS'easy'
p1604
I1273
sS'you'
p1605
I330
sS'lightestlicence'
p1606
I3051
sS'applied'
p1607
I4828
sS'air'
p1608
I429
sS'ranhome'
p1609
I1085
sS'voice'
p1610
I266
sS'twoold-fashioned'
p1611
I5016
sS'skipping'
p1612
I2663
sS'erect'
p1613
I1858
sS'chose.but'
p1614
I3609
sS'bilious'
p1615
I3572
sS'smelllike'
p1616
I3927
sS'viewed'
p1617
I2085
sS'plates'
p1618
I3864
sS'wheel'
p1619
I4260
sS'springing'
p1620
I5137
sS'swell'
p1621
I4429
sS'rail'
p1622
I4398
sS'rain'
p1623
I308
sS'hand'
p1624
I48
sS'theirtalk'
p1625
I4761
sS'palpable'
p1626
I427
sS'kept'
p1627
I471
sS'thy'
p1628
I5124
sS'this.quiet'
p1629
I4854
sS'drip'
p1630
I2388
sS'ragged'
p1631
I919
sS'youwill'
p1632
I94
sS'musical'
p1633
I4421
sS'andscrooge'
p1634
I1288
sS'halloo'
p1635
I2467
sS'quoted'
p1636
I4000
sS'halloa'
p1637
I2465
sS'becameintense'
p1638
I910
sS'farther'
p1639
I5254
sS'spread'
p1640
I5165
sS'board'
p1641
I2712
sS'growl.the'
p1642
I1064
sS'free-and-easy'
p1643
I3200
sS'andvast'
p1644
I2354
sS'boxes'
p1645
I3582
sS'myplace'
p1646
I5310
sS'night'
p1647
I173
sS'dilber'
p1648
I4965
sS'security'
p1649
I2016
sS'bemarried'
p1650
I2437
sS'sends'
p1651
I5473
sS'odours'
p1652
I2256
sS'born'
p1653
I3371
sS'bore'
p1654
I3321
sS'theevergreens'
p1655
I2588
sS'festivities'
p1656
I4277
sS'honoured'
p1657
I5128
sS'beating'
p1658
I403
sS'herneedle'
p1659
I5174
sS'marketing'
p1660
I5074
sS'view'
p1661
I2090
sS'illustration'
p1662
I540
sS'post'
p1663
I2276
sS'onthe'
p1664
I976
sS'rememberwhat'
p1665
I1845
sS'impenetrable'
p1666
I1174
sS'newspapers'
p1667
I1096
sS'months'
p1668
I568
sS'banker'
p1669
I1099
sS'plum-puddings'
p1670
I3300
sS'mantle'
p1671
I3335
sS'wasting'
p1672
I5058
sS'bound'
p1673
I634
sS'hadnot'
p1674
I417
sS'hands.she'
p1675
I5193
sS'wag'
p1676
I362
sS'thebow'
p1677
I4261
sS'way'
p1678
I344
sS'atwice-turned'
p1679
I3718
sS'findinghimself'
p1680
I1674
sS'was'
p1681
I11
sS'war'
p1682
I3770
sS'tints'
p1683
I4637
sS'him._'
p1684
I1629
sS'becoming'
p1685
I646
sS'mysterious'
p1686
I4713
sS'astonished'
p1687
I3226
sS'true'
p1688
I2597
sS'apostles'
p1689
I1363
sS'prayed'
p1690
I5194
sS'evidence'
p1691
I1528
sS'howling'
p1692
I4195
sS'apoplectic'
p1693
I3477
sS'promised'
p1694
I1062
sS'prayer'
p1695
I5372
sS'cratchitentered'
p1696
I3935
sS'wintry'
p1697
I290
sS'theirparting.scrooge'
p1698
I4812
sS'dimly'
p1699
I3152
sS'dying'
p1700
I1449
sS'reality'
p1701
I1529
sS'intothe'
p1702
I2655
sS'holding'
p1703
I3183
sS'topper'
p1704
I4369
sS'thesunniest'
p1705
I4332
sS'bornetowards'
p1706
I3057
sS'_he_'
p1707
I2436
sS'brothers'
p1708
I3370
sS'welcome'
p1709
I4131
sS'fire-place'
p1710
I1527
sS'bestowed'
p1711
I1160
sS'paces'
p1712
I1870
sS'together'
p1713
I1420
sS'beds'
p1714
I1360
sS'singerfled'
p1715
I1021
sS'matron'
p1716
I2996
sS'dance'
p1717
I2740
sS'grateful'
p1718
I3554
sS'thehall'
p1719
I1233
sS'toothpick'
p1720
I1582
sS'scowling'
p1721
I4631
sS'certainly'
p1722
I765
sS'gigs'
p1723
I2287
sS'hereto-night'
p1724
I1819
sS'peoplewho'
p1725
I2776
sS'brown'
p1726
I428
sS'aldermen'
p1727
I1156
sS'chirrup'
p1728
I2669
sS'anonymous'
p1729
I838
sS'forgiving'
p1730
I613
sS'feeble'
p1731
I2376
sS"blindman'sbuff.scrooge"
p1732
I1089
sS'presented'
p1733
I569
sS'turns'
p1734
I1390
sS'upper'
p1735
I4718
sS'brave'
p1736
I3720
sS'regret'
p1737
I1881
sS'cost'
p1738
I848
sS'penetrated'
p1739
I4864
sS'appear'
p1740
I1809
sS'*scrooge'
p1741
I5610
sS'trivial'
p1742
I4817
sS'orhandsome'
p1743
I2993
sS'raiseyour'
p1744
I5601
sS'shared'
p1745
I1648
sS'peeled'
p1746
I3765
sS'didnot'
p1747
I5619
sS'lustrous'
p1748
I2114
sS'roaring'
p1749
I3282
sS'change'
p1750
I1171
sS'buck'
p1751
I5459
sS'havechosen'
p1752
I2981
sS'impatiently'
p1753
I2931
sS'manstood'
p1754
I4842
sS'burdensome'
p1755
I2856
sS'usually'
p1756
I776
sS'contradictionof'
p1757
I2122
sS'homeward'
p1758
I4271
sS'retired'
p1759
I2823
sS'hishand'
p1760
I5486
sS'marked'
p1761
I1493
sS'inslow'
p1762
I3535
sS'stingy'
p1763
I4036
sS'live'
p1764
I546
sS'angels'
p1765
I4642
sS'intently'
p1766
I4736
sS'credulity'
p1767
I3816
sS'repentance'
p1768
I2969
sS'clue'
p1769
I4836
sS'theopen'
p1770
I2350
sS'returnedthem'
p1771
I719
sS'decked'
p1772
I4192
sS'indescribable'
p1773
I3103
sS'cap'
p1774
I2142
sS'cat'
p1775
I4553
sS'can'
p1776
I153
sS'cab'
p1777
I5492
sS'heart'
p1778
I585
sS'paused'
p1779
I5323
sS'heard'
p1780
I1431
sS'fortunes'
p1781
I2330
sS'regale'
p1782
I1014
sS'paperbags'
p1783
I3525
sS'precepts.it'
p1784
I4598
sS'toldit'
p1785
I2768
sS'retorted'
p1786
I2920
sS'staircase'
p1787
I1267
sS'ponies'
p1788
I2283
sS'value.but'
p1789
I3052
sS'tocount'
p1790
I2017
sS'tohis'
p1791
I2448
sS'couldfeign'
p1792
I5587
sS'lifting'
p1793
I1714
sS'insideout'
p1794
I5399
sS'remember'
p1795
I2270
sS'whenever'
p1796
I1707
sS'candles'
p1797
I419
sS'theywere.he'
p1798
I5255
sS'crept'
p1799
I5349
sS'offend'
p1800
I2190
sS'incoherentsounds'
p1801
I1879
sS'indeed'
p1802
I672
sS'by.scrooge'
p1803
I2018
sS'cold'
p1804
I246
sS'still'
p1805
I797
sS'birds'
p1806
I3851
sS'trifle'
p1807
I336
sS'curls'
p1808
I3354
sS'forms'
p1809
I2371
sS'window'
p1810
I897
sS'spacious'
p1811
I2331
sS'dreadfully'
p1812
I126
sS'chattering'
p1813
I908
sS'eyesupon'
p1814
I4023
sS'sweetened'
p1815
I3860
sS'introduce'
p1816
I4298
sS'liberality'
p1817
I759
sS'scaling'
p1818
I3072
sS'flint'
p1819
I233
sS'half'
p1820
I1226
sS'not'
p1821
I89
sS'now'
p1822
I693
sS'provision'
p1823
I780
sS'hall'
p1824
I1251
sS'nor'
p1825
I1487
sS'servant'
p1826
I2567
sS'drop'
p1827
I1779
sS'eh'
p1828
I5049
sS'hurried'
p1829
I3587
sS'scrooge.'
p1830
I3132
sS'fires'
p1831
I4100
sS'year'
p1832
I390
sS'happen'
p1833
I4295
sS'inmodest'
p1834
I3579
sS'tried'
p1835
I483
sS'shown'
p1836
I3144
sS'shadowing'
p1837
I3650
sS'space'
p1838
I1761
sS'looking'
p1839
I1513
sS'clanked'
p1840
I1734
sS'housemaid'
p1841
I2704
sS'suchsubjects'
p1842
I2441
sS'easy.he'
p1843
I4840
sS'ownthoughts'
p1844
I4392
sS'card'
p1845
I5280
sS'care'
p1846
I370
sS'vestige'
p1847
I2240
sS'waxy'
p1848
I2557
sS'received.although'
p1849
I4723
sS'transition'
p1850
I2469
sS'thoughhe'
p1851
I5178
sS'honest'
p1852
I2449
sS'blind'
p1853
I349
sS'chillinginfluence'
p1854
I1491
sS'privateproperty'
p1855
I3734
sS'yourself'
p1856
I556
sS'isprecious'
p1857
I4745
sS'mightwater'
p1858
I3502
sS'directly'
p1859
I3644
sS'impossible'
p1860
I953
sS'ring'
p1861
I4494
sS'drove'
p1862
I2581
sS"'em"
p1863
I564
sS'size'
p1864
I3691
sS'checked'
p1865
I5427
sS'caught'
p1866
I3442
sS'sheen'
p1867
I2116
sS'thaw'
p1868
I281
sS'that'
p1869
I58
sS'pelting'
p1870
I301
sS'flowery'
p1871
I1807
sS'short'
p1872
I2871
sS'immediatelyensued'
p1873
I3055
sS'ownhands'
p1874
I3192
sS'flowers'
p1875
I2127
sS'than'
p1876
I177
sS"children'sfaces"
p1877
I5210
sS'ithad'
p1878
I3143
sS'soonreturned'
p1879
I3845
sS'transferred'
p1880
I5203
sS'apples'
p1881
I3306
sS'fruits'
p1882
I3530
sS'hislegs'
p1883
I2811
sS'ithas'
p1884
I604
sS'wasknown'
p1885
I210
sS'angel'
p1886
I5407
sS'remained'
p1887
I4603
sS'andirresistible'
p1888
I2957
sS'triggerwho'
p1889
I5469
sS'inhis'
p1890
I1552
sS'myrace'
p1891
I3997
sS'begin'
p1892
I15
sS'price'
p1893
I3048
sS'pharaoh'
p1894
I1352
sS'nodoubt'
p1895
I4497
sS'thenlet'
p1896
I1163
sS']'
I544
sS'forever'
p1897
I2520
sS'steady'
p1898
I5104
sS'mrs'
p1899
I3801
sS'dowerlessgirl'
p1900
I2960
sS'fifty'
p1901
I1676
sS'discovered'
p1902
I4007
sS'crashing'
p1903
I3590
sS'thelashes'
p1904
I3042
sS'stair'
p1905
I3109
sS'texture'
p1906
I1494
sS'wasnot'
p1907
I2222
sS'only'
p1908
I314
sS'developed'
p1909
I1752
sS'thatthrough'
p1910
I4240
sS'truly'
p1911
I5145
sS'loath'
p1912
I2538
sS'spiritwithin'
p1913
I1631
sS'unfastened'
p1914
I5033
sS'stroll'
p1915
I171
sS'sprigs'
p1916
I936
sS'seldom'
p1917
I4194
sS'breeches'
p1918
I1710
sS'beingacquainted'
p1919
I3202
sS'husband'
p1920
I3126
sS'door-nail.mind'
p1921
I51
sS'burst'
p1922
I4555
sS'bran-new'
p1923
I2752
sS'asleep'
p1924
I1948
sS'andwhich'
p1925
I2135
sS'sport'
p1926
I3035
sS'thefloor'
p1927
I3288
sS'between'
p1928
I1846
sS'justified'
p1929
I1738
sS'drawn.the'
p1930
I2068
sS'therestood'
p1931
I4229
sS'blame'
p1932
I3141
sS'frompublic'
p1933
I2675
sS'thearm.'
p1934
I2209
sS'hurts'
p1935
I5234
sS'receded'
p1936
I2089
sS'pray'
p1937
I1808
sS'unwept'
p1938
I5101
sS'wheels'
p1939
I3416
sS'comes'
p1940
I1687
sS'nobodyin'
p1941
I1308
sS'inexplicable'
p1942
I1402
sS'wreaths'
p1943
I3297
sS'merriest'
p1944
I2528
sS'_have_'
p1945
I2936
sS'meansprepared'
p1946
I3229
sS'muttered'
p1947
I722
sS'harmless'
p1948
I4144
sS'wheezing'
p1949
I402
sS'astonish'
p1950
I194
sS'saidthe'
p1951
I2593
sS'yearsto'
p1952
I2186
sS'suspected'
p1953
I2711
sS'infaded'
p1954
I4993
sS'crumb'
p1955
I1542
sS'these'
p1956
I754
sS'joke'
p1957
I949
sS'forhim.he'
p1958
I5628
sS'twoto'
p1959
I2867
sS'embrace'
p1960
I2532
sS'somebody'
p1961
I3919
sS'multitudes'
p1962
I4846
sS'awhile'
p1963
I4454
sS'inquire'
p1964
I2197
sS'gentlemen'
p1965
I738
sS'inquiry'
p1966
I2026
sS'contortions'
p1967
I4314
sS'noble'
p1968
I4301
sS'finish'
p1969
I3781
sS'fruit'
p1970
I3390
sS'swallow'
p1971
I1593
sS'werepouring'
p1972
I2846
sS'breezy'
p1973
I186
sS'severe'
p1974
I3391
sS'whistleit'
p1975
I4437
sS'charged'
p1976
I2654
sS'heaps'
p1977
I4231
sS'dancers'
p1978
I2748
sS'tobe'
p1979
I1198
sS'growled'
p1980
I684
sS'greetings'
p1981
I715
sS'touch'
p1982
I997
sS'death'
p1983
I1641
sS'thinking'
p1984
I2200
sS'littleunderstood'
p1985
I5212
sS'mournful'
p1986
I1136
sS'ca'
p1987
I841
sS'real'
p1988
I2611
sS'read'
p1989
I1095
sS'ruler'
p1990
I1018
sS'early'
p1991
I5576
sS'earnest'
p1992
I5462
sS'_she_'
p1993
I5571
sS'listening'
p1994
I1886
sS'using'
p1995
I1000
sS'fortune'
p1996
I2864
sS'heightened'
p1997
I2446
sS'pounds'
p1998
I2849
sS'miracle'
p1999
I5191
sS'benefit'
p2000
I4347
sS'couldhave'
p2001
I3696
sS'downward'
p2002
I5341
sS'twelve'
p2003
I1842
sS'smallatom'
p2004
I3906
sS'exposed'
p2005
I4535
sS'thecoldest'
p2006
I3568
sS'cityclocks'
p2007
I411
sS'passions'
p2008
I2183
sS'lessattractive'
p2009
I5627
sS'hisusual'
p2010
I4844
sS'garret'
p2011
I983
sS'behind.scrooge'
p2012
I1481
sS'wereshown'
p2013
I2496
sS'business'
p2014
I134
sS'thedisjointed'
p2015
I1383
sS'uneasy'
p2016
I2598
sS'sixty'
p2017
I1677
sS'doneso'
p2018
I2847
sS'boldly'
p2019
I2720
sS'comely'
p2020
I2995
sS'greatly'
p2021
I783
sS'andconsidered'
p2022
I3961
sS'strait-waistcoat'
p2023
I5598
sS'thesepeople'
p2024
I3665
sS'heavy'
p2025
I1289
sS'farthan'
p2026
I3462
sS'likerace-horses.'
p2027
I2661
sS'heated'
p2028
I507
sS'nervous.gentlemen'
p2029
I3199
sS'your'
p2030
I561
sS'intervention'
p2031
I3188
sS'removing'
p2032
I4943
sS'idolhas'
p2033
I2895
sS'poured'
p2034
I4847
sS'low'
p2035
I275
sS'werenorfolk'
p2036
I3513
sS'curiously'
p2037
I1189
sS'himselfamongst'
p2038
I4469
sS'trying'
p2039
I2713
sS'andnever'
p2040
I4428
sS'waste'
p2041
I4198
sS'poulterer'
p2042
I5448
sS'thepeople'
p2043
I5597
sS'flatheresy'
p2044
I3956
sS'theresprung'
p2045
I2131
sS'youalways'
p2046
I4342
sS'moved'
p2047
I4700
sS'ofrusty'
p2048
I4896
sS'sheath'
p2049
I3364
sS'washing-stand'
p2050
I1317
sS'inoperation'
p2051
I798
sS'evenings'
p2052
I5239
sS'snuffed'
p2053
I1035
sS'thelonely'
p2054
I4282
sS'fools'
p2055
I548
sS'poor'
p2056
I525
sS'therecollection'
p2057
I2978
sS'desolation'
p2058
I4178
sS'poorrevellers'
p2059
I3627
sS'peal'
p2060
I1246
sS'begrieved'
p2061
I5243
sS'pooh'
p2062
I1236
sS'building'
p2063
I1113
sS'thisnew'
p2064
I3190
sS'well-remembered'
p2065
I2321
sS'makeamends'
p2066
I5385
sS'scroogedid'
p2067
I5152
sS'mourner'
p2068
I36
sS'surrounded'
p2069
I1675
sS'breadth'
p2070
I4139
sS'splitting'
p2071
I3403
sS'month'
p2072
I5424
sS'ceased'
p2073
I1418
sS'thoughtful'
p2074
I1708
sS'dreadful'
p2075
I1620
sS'hehas'
p2076
I5237
sS'pledged'
p2077
I4577
sS'bonnetfor'
p2078
I3778
sS'hehad'
p2079
I4513
sS'confidential'
p2080
I4499
sS'ofmen'
p2081
I1693
sS'horror'
p2082
I1196
sS'decide'
p2083
I4009
sS'thisrate'
p2084
I1803
sS'heaven'
p2085
I2048
sS'meanto'
p2086
I4395
sS'--'
p2087
I188
sS'shouldattach'
p2088
I4814
sS'laughingas'
p2089
I3131
sS'relenting'
p2090
I5192
sS'isme'
p2091
I1645
sS'streets'
p2092
I981
sS'self-contained'
p2093
I243
sS'befriends'
p2094
I697
sS'chuckle'
p2095
I5493
sS'darkness'
p2096
I878
sS'emotions'
p2097
I3107
sS'chainslike'
p2098
I1901
sS'witnesses'
p2099
I3916
sS'learned'
p2100
I2956
sS'thechurch'
p2101
I3823
sS'ferocious'
p2102
I1181
sS'trunk'
p2103
I2575
sS'strong'
p2104
I488
sS'holidays.he'
p2105
I2501
sS'reason'
p2106
I523
sS'drawers'
p2107
I2427
sS'inoffice'
p2108
I4498
sS'family'
p2109
I729
sS'thewound'
p2110
I5138
sS'_that_'
p2111
I5275
sS'put'
p2112
I47
sS'lurked'
p2113
I4645
sS'toys'
p2114
I3066
sS'globes'
p2115
I2556
sS'torch.think'
p2116
I3711
sS'takes'
p2117
I4355
sS'asqueezing'
p2118
I224
sS'praised'
p2119
I5246
sS'taken'
p2120
I1268
sS'lowering'
p2121
I1111
sS'quickening'
p2122
I5524
sS'everknew'
p2123
I5274
sS'excuse'
p2124
I857
sS'broke'
p2125
I2816
sS'hurry'
p2126
I5309
sS'producing'
p2127
I5076
sS'beforehim'
p2128
I3790
sS'alwaysturning'
p2129
I2733
sS'nine'
p2130
I2659
sS'spontaneous'
p2131
I3246
sS'andhandsome'
p2132
I515
sS'uponthe'
p2133
I1839
sS'poker.quite'
p2134
I1319
sS'beggars'
p2135
I3827
sS'unearthly'
p2136
I2077
sS'ever.whether'
p2137
I1926
sS'rude'
p2138
I3026
sS'derived'
p2139
I597
sS'_not_'
p2140
I2146
sS'andbrown'
p2141
I3506
sS'a'
I0
sS'humbug'
p2142
I506
sS'abusiness-like'
p2143
I1717
sS'spectre'
p2144
I1561
sS'dread'
p2145
I1403
sS'it.come'
p2146
I5465
sS'dream'
p2147
I2027
sS'help'
p2148
I844
sS'chalked'
p2149
I5005
sS'held'
p2150
I1235
sS'committed'
p2151
I3596
sS'allthe'
p2152
I3027
sS'fined'
p2153
I974
sS'brigands'
p2154
I3023
sS'labours'
p2155
I871
sS'disclosed'
p2156
I2366
sS'fool'
p2157
I5059
sS'greatexcitement'
p2158
I2627
sS'evening'
p2159
I2614
sS'yo'
p2160
I2640
sS'ye'
p2161
I3783
sS'look-out'
p2162
I3195
sS'moaning'
p2163
I1900
sS'foot'
p2164
I4619
sS'aclaw'
p2165
I4620
sS'itlong'
p2166
I4945
sS'bless'
p2167
I643
sS'disdaining'
p2168
I3343
sS'stopped'
p2169
I324
sS'duller'
p2170
I2138
sS'barrels'
p2171
I3301
sS'abull'
p2172
I4550
sS'restless'
p2173
I2886
sS'diedseven'
p2174
I757
sS'jaws'
p2175
I1851
sS'blank'
p2176
I1377
sS'beyond'
p2177
I459
sS'todo'
p2178
I5112
sS'event'
p2179
I130
sS'subsided.and'
p2180
I3111
sS'dears'
p2181
I3979
sS'veneration'
p2182
I606
sS'item'
p2183
I563
sS'miss'
p2184
I2696
sS'robert'
p2185
I4039
sS'enshrouded'
p2186
I1929
sS'jolly'
p2187
I2500
sS'issue'
p2188
I2796
sS'ass'
p2189
I2412
sS'drink'
p2190
I829
sS'bass'
p2191
I4427
sS'protruding'
p2192
I4618
sS'dirt'
p2193
I4877
sS'houses'
p2194
I1434
sS'asa'
p2195
I5408
sS'base'
p2196
I4234
sS'brightest'
p2197
I3449
sS'ask'
p2198
I696
sS'shovelling'
p2199
I3453
sS'just'
p2200
I412
sS'terrible'
p2201
I1210
sS'expecting'
p2202
I5172
sS'bed-curtainsin'
p2203
I5396
sS'blush'
p2204
I3044
sS'assign'
p2205
I119
sS'knots'
p2206
I5034
sS'shakinghands'
p2207
I2818
sS'hiswits'
p2208
I2829
sS'knocking'
p2209
I3053
sS'reflected'
p2210
I3279
sS'elder'
p2211
I3369
sS'isnot'
p2212
I5132
sS'mist'
p2213
I1928
sS'visions'
p2214
I5303
sS'horse'
p2215
I3804
sS'everheard'
p2216
I3821
sS'st.'
p2217
I189
sS'obedience'
p2218
I1873
sS'pinned'
p2219
I2658
sS'wonderful'
p2220
I152
sS'hundred'
p2221
I3374
sS'bowed'
p2222
I745
sS'apprentice'
p2223
I4068
sS'grew'
p2224
I2484
sS'tunic'
p2225
I2111
sS'kindly'
p2226
I1754
sS'grocers'
p2227
I946
sS'grey'
p2228
I4608
sS'orhad'
p2229
I4267
sS'withered'
p2230
I2592
sS'urgently'
p2231
I3522
sS'back-yard'
p2232
I3920
sS'juicy'
p2233
I3307
sS'substantial'
p2234
I2694
sS'neverhad'
p2235
I701
sS'lid'
p2236
I3763
sS'lie'
p2237
I1706
sS'nervousto'
p2238
I3915
sS'officers'
p2239
I4262
sS'labour'
p2240
I1745
sS'lip'
p2241
I2262
sS'applauded'
p2242
I645
sS'towards'
p2243
I1271
sS'plunder'
p2244
I4996
sS'bridle'
p2245
I2411
sS'eaten'
p2246
I3526
sS'position'
p2247
I2030
sS'hadentered'
p2248
I1934
sS'salary'
p2249
I5595
sS'puddings'
p2250
I3389
sS'sturdy'
p2251
I4254
sS'belindacratchit'
p2252
I3726
sS'clear'
p2253
I2132
sS'tosee'
p2254
I2684
sS'phenomenon'
p2255
I1204
sS'knees.the'
p2256
I5352
sS'pocketed'
p2257
I3712
sS'justice'
p2258
I2949
sS'flesh'
p2259
I4622
sS'itsappearance'
p2260
I3198
sS'quitedelightful'
p2261
I5283
sS'pretty'
p2262
I1283
sS'circle'
p2263
I3964
sS'ball-room'
p2264
I2683
sS'waterproof'
p2265
I4086
sS'feels'
p2266
I5160
sS'pretending'
p2267
I4488
sS'during'
p2268
I1147
sS'alonethat'
p2269
I3541
sS'chimney'
p2270
I3283
sS'molten'
p2271
I3566
sS'witha'
p2272
I1397
sS'alteration'
p2273
I5376
sS'gloves'
p2274
I4784
sS'rooms'
p2275
I1124
sS'cramp'
p2276
I3664
sS'close'
p2277
I1335
sS'heartis'
p2278
I2934
sS'oldhonest'
p2279
I2419
sS'tolls'
p2280
I1835
sS'grocer'
p2281
I3599
sS'twofish'
p2282
I1315
sS'woe'
p2283
I1644
sS'unconscious'
p2284
I4578
sS'timidly'
p2285
I3329
sS'spray'
p2286
I2589
sS'invisible'
p2287
I900
sS'league'
p2288
I4223
sS'secrets'
p2289
I4286
sS'unbrokenflood'
p2290
I3161
sS'forgotten'
p2291
I1121
sS'liked'
p2292
I372
sS'likea'
p2293
I1465
sS'whatever'
p2294
I22
sS'likes'
p2295
I4396
sS'persecuted'
p2296
I1595
sS'hintedscrooge'
p2297
I1836
sS'described'
p2298
I1435
sS'stamp'
p2299
I4559
sS'damp'
p2300
I2333
sS'coarse'
p2301
I4173
sS'pencil-case'
p2302
I4999
sS'empty'
p2303
I2397
sS'dialogue'
p2304
I5063
sS'lived'
p2305
I449
sS'nomist'
p2306
I5435
sS'linkby'
p2307
I1655
sS'else'
p2308
I545
sS'lives'
p2309
I1909
sS'atfirst'
p2310
I1378
sS'utmost'
p2311
I4738
sS'look'
p2312
I1183
sS'dusty'
p2313
I4394
sS'while'
p2314
I984
sS'match'
p2315
I2784
sS'byreaching'
p2316
I5044
sS'straggling'
p2317
I4878
sS'boarding-school'
p2318
I4439
sS'ready'
p2319
I534
sS'hoar'
p2320
I2586
sS'toget'
p2321
I4558
sS'summersun'
p2322
I3450
sS'conflict'
p2323
I5393
sS'covetous'
p2324
I229
sS'used'
p2325
I1045
sS'beetlingshop'
p2326
I4888
sS'hecared'
p2327
I4278
sS'older'
p2328
I557
sS'anxious'
p2329
I5096
sS'grins'
p2330
I5625
sS'appalled'
p2331
I4656
sS'torecover.but'
p2332
I4731
sS'shivering'
p2333
I2550
sS'andwhere'
p2334
I4008
sS'tumblingover'
p2335
I4465
sS'quarters'
p2336
I2037
sS'momentis'
p2337
I5299
sS'theadvantage'
p2338
I312
sS'christmas-timeagain'
p2339
I2613
sS'pronouncing'
p2340
I4017
sS'transformation'
p2341
I3269
sS'useless'
p2342
I866
sS'showing'
p2343
I3698
sS'aponderous'
p2344
I1670
sS'writeit'
p2345
I5479
sS'game'
p2346
I3292
sS'dearly'
p2347
I3040
sS'wings'
p2348
I1728
sS'stuff'
p2349
I3972
sS'ableak'
p2350
I4159
sS'strife'
p2351
I2609
sS'provoking'
p2352
I4334
sS'achance'
p2353
I4942
sS'fathers'
p2354
I4664
sS'creation'
p2355
I4652
sS'some'
p2356
I827
sS'lips'
p2357
I578
sS'aship'
p2358
I4258
sS'bird.he'
p2359
I5487
sS'laths'
p2360
I2495
sS'savage'
p2361
I4540
sS'ofrepose'
p2362
I1946
sS'dull'
p2363
I955
sS'simmer'
p2364
I3843
sS'rub'
p2365
I1995
sS'crammed'
p2366
I3871
sS'stem'
p2367
I4958
sS'step'
p2368
I1863
sS'ache'
p2369
I5054
sS'harm.i'
p2370
I4389
sS'abroad'
p2371
I1632
sS'plumping'
p2372
I3401
sS'shine'
p2373
I3260
sS'faith'
p2374
I4367
sS'proffering'
p2375
I883
sS'tracing'
p2376
I3259
sS'wicker'
p2377
I3591
sS'silence'
p2378
I1568
sS'seeing'
p2379
I864
sS'dangle'
p2380
I3498
sS'within'
p2381
I247
sS'travels.much'
p2382
I4584
sS'thestrong'
p2383
I1665
sS'believe.'
p2384
I3138
sS'himself'
p2385
I484
sS'collapsed'
p2386
I5378
sS'frost'
p2387
I511
sS'hail'
p2388
I309
sS'reef'
p2389
I4221
sS'tobed'
p2390
I2523
sS'beenscattered'
p2391
I3281
sS'accustomed'
p2392
I4843
sS'to-night'
p2393
I2648
sS'housesopposite'
p2394
I439
sS'chafed'
p2395
I4226
sS'ofdelight'
p2396
I3889
sS'sullen'
p2397
I4180
sS'waslighted'
p2398
I5257
sS'scro-o-o-o-oge'
p2399
I4561
sS'mouthagain.while'
p2400
I4959
sS'referringto'
p2401
I747
sS'did.nobody'
p2402
I323
sS'mightbe'
p2403
I4253
sS'nay'
p2404
I689
sS'draw'
p2405
I3191
sS'gointo'
p2406
I665
sS'withoutby'
p2407
I4918
sS'visits'
p2408
I1830
sS'door-nail'
p2409
I66
sS'drag'
p2410
I2535
sS'smiled'
p2411
I1046
sS'approving'
p2412
I4292
sS'theinstant'
p2413
I2066
sS'required'
p2414
I1630
sS'theywere'
p2415
I1869
sS'oldgentleman'
p2416
I5526
sS'neighbouring'
p2417
I1962
sS'lying'
p2418
I3193
sS'berries'
p2419
I3275
sS'requires'
p2420
I5505
sS'sounded'
p2421
I2063
sS'pinioned'
p2422
I2988
sS'waswhom'
p2423
I5300
sS'cheerful'
p2424
I496
sS'theouter'
p2425
I5098
sS'sixpence'
p2426
I3723
sS'go'
p2427
I401
sS'instant.stave'
p2428
I1949
sS'attired'
p2429
I3739
sS'seethat'
p2430
I5563
sS'andself-accusatory'
p2431
I1885
sS'mind.scrooge'
p2432
I197
sS'suite'
p2433
I1109
sS'ofsomething'
p2434
I4529
sS'recrossed'
p2435
I3420
sS'skreeks'
p2436
I4948
sS'coverley'
p2437
I2771
sS'miners'
p2438
I4184
sS'thisman'
p2439
I5162
sS'hedreaded'
p2440
I5339
sS'button'
p2441
I1286
sS'watered'
p2442
I2678
sS'tellme'
p2443
I3986
sS'acquaintance.it'
p2444
I4300
sS'inspection'
p2445
I3606
sS'_were_'
p2446
I1505
sS'comforts'
p2447
I790
sS'pastrycook'
p2448
I3932
sS'sheworked'
p2449
I4070
sS'boots'
p2450
I1455
sS'waking'
p2451
I4272
sS'notwithstanding'
p2452
I712
sS'outstretchedhand'
p2453
I4705
sS'opaque'
p2454
I1955
sS'abels'
p2455
I1351
sS'cell'
p2456
I458
sS';'
I85
sS'melancholy'
p2457
I1091
sS'brooch'
p2458
I5001
sS'facein'
p2459
I3142
sS'following'
p2460
I5350
sS'flightof'
p2461
I1262
sS'andextremely'
p2462
I1998
sS'noisily'
p2463
I3977
sS'withdrawing'
p2464
I5167
sS'that.the'
p2465
I24
sS'besmart'
p2466
I1556
sS'benevolence'
p2467
I1776
sS'nameless'
p2468
I3621
sS'fellow-men'
p2469
I1634
sS'wig'
p2470
I2620
sS'win'
p2471
I2947
sS'wereso'
p2472
I2294
sS'apprehensive'
p2473
I3244
sS'addressed'
p2474
I2073
sS'singing'
p2475
I2478
sS'_there_'
p2476
I2231
sS'cloud'
p2477
I443
sS'shut-up'
p2478
I622
sS'agreeable'
p2479
I1812
sS'ofhis'
p2480
I5052
sS'windupon'
p2481
I4196
sS'started'
p2482
I4655
sS'missile'
p2483
I3461
sS'eveningwith'
p2484
I1098
sS'ofhim'
p2485
I5631
sS'crossed'
p2486
I3419
sS'meet'
p2487
I3332
sS'drops'
p2488
I3641
sS'control'
p2489
I1200
sS'links'
p2490
I882
sS'pulling'
p2491
I2724
sS'wentforth'
p2492
I3378
sS"waso'clock"
p2493
I339
sS'sought'
p2494
I1922
sS'mislaying'
p2495
I5400
sS'orson'
p2496
I2425
sS'foretold'
p2497
I2165
sS'dozenof'
p2498
I567
sS'jiffy'
p2499
I5584
sS'avarice'
p2500
I2883
sS'bakers'
p2501
I3626
sS'offences'
p2502
I4338
sS'bystruggling'
p2503
I4589
sS'including'
p2504
I1153
sS'haveasked'
p2505
I2176
sS'mentioned'
p2506
I847
sS'intodoorways'
p2507
I359
sS'brood'
p2508
I1336
sS'outer'
p2509
I714
sS'masses'
p2510
I4162
sS'fitto'
p2511
I4013
sS'sword'
p2512
I3363
sS'twopence'
p2513
I4045
sS'tatters'
p2514
I4922
sS'hands'
p2515
I87
sS'front'
p2516
I3396
sS'slide'
p2517
I1076
sS'crossing'
p2518
I4961
sS'shaking'
p2519
I2504
sS'esteem'
p2520
I4803
sS'sankagain.the'
p2521
I4205
sS'hissole'
p2522
I120
sS'globe'
p2523
I4609
sS'power.the'
p2524
I2051
sS'exceeded'
p2525
I5498
sS'special'
p2526
I2177
sS'confess'
p2527
I3050
sS'cause'
p2528
I1784
sS'undressing'
p2529
I1947
sS'undo'
p2530
I5029
sS'gaol'
p2531
I4592
sS'princess'
p2532
I2438
sS'resumed'
p2533
I870
sS'diminished'
p2534
I2091
sS'keep'
p2535
I454
sS'wrote'
p2536
I5477
sS'mad'
p2537
I3400
sS'bargain.the'
p2538
I142
sS'seasonable'
p2539
I4808
sS'quality'
p2540
I2147
sS'pities'
p2541
I5358
sS'andevery'
p2542
I2725
sS'firstof'
p2543
I2010
sS'wrapper'
p2544
I1497
sS'merrier'
p2545
I4051
sS'ankle'
p2546
I1913
sS'vile'
p2547
I4496
sS'perfectly'
p2548
I160
sS'mr.scrooge'
p2549
I4038
sS'exactly'
p2550
I5338
sS'wiry'
p2551
I271
sS'feint'
p2552
I4474
sS'!'
I52
sS'bythe'
p2553
I4936
sS'herself'
p2554
I3786
sS'neck'
p2555
I2094
sS'aught'
p2556
I3383
sS'bed'
p2557
I1102
sS'ashovel'
p2558
I3962
sS'dumb'
p2559
I5091
sS'pawn-broker'
p2560
I4089
sS'lightly'
p2561
I4121
sS'wash-house'
p2562
I3812
sS'horrors'
p2563
I3924
sS'chambers'
p2564
I1103
sS'need'
p2565
I1945
sS'ofsheba'
p2566
I1355
sS'screw'
p2567
I4975
sS'enjoyment.'
p2568
I3667
sS'pursued'
p2569
I1663
sS'able'
p2570
I2866
sS'sprinkled'
p2571
I3634
sS'battled'
p2572
I2607
sS'sewing'
p2573
I5228
sS'intentions'
p2574
I5390
sS'connected'
p2575
I2258
sS'but'
p2576
I79
sS'money-changing'
p2577
I1703
sS'tall'
p2578
I4077
sS'consequences'
p2579
I3011
sS'eachother'
p2580
I3640
sS'scrambled'
p2581
I1992
sS'christmas-eves'
p2582
I1668
sS'lampswere'
p2583
I2679
sS'impression'
p2584
I814
sS'wereblazing'
p2585
I3443
sS'anyway'
p2586
I5623
sS'itshair'
p2587
I1577
sS'partners'
p2588
I112
sS'envy'
p2589
I3679
sS'ofjolly'
p2590
I3473
sS'morechildren'
p2591
I3001
sS'hislast'
p2592
I1161
sS'itwould'
p2593
I2163
sS'wasolder'
p2594
I2876
sS'hopeful'
p2595
I3588
sS'death-cold'
p2596
I1492
sS'brighter'
p2597
I5213
sS'thementer'
p2598
I4124
sS'fuel'
p2599
I1340
sS'employed'
p2600
I2702
sS'doubting'
p2601
I4826
sS'dwellings'
p2602
I3397
sS'be.the'
p2603
I4523
sS'tuned'
p2604
I2691
sS'sha'
p2605
I5043
sS'she'
p2606
I2534
sS'spotted'
p2607
I3565
sS'itsfolds'
p2608
I4721
sS'burying'
p2609
I5334
sS'shrouded'
p2610
I4703
sS'usefulness'
p2611
I1760
sS'desperate'
p2612
I1891
sS'youngcratchits'
p2613
I3866
sS'joys'
p2614
I2260
sS'written'
p2615
I4668
sS'supernatural'
p2616
I2086
sS'horrible'
p2617
I1195
sS'neither'
p2618
I4715
sS'sold'
p2619
I5453
sS'sole'
p2620
I116
sS'importance'
p2621
I4801
sS'interfere'
p2622
I860
sS'foreshadow'
p2623
I5343
sS'spared'
p2624
I3995
sS'merry'
p2625
I491
sS'yawning'
p2626
I4773
sS'precious'
p2627
I3766
sS'tosay'
p2628
I5146
sS'limits'
p2629
I1702
sS'admit'
p2630
I4677
sS'flocking'
p2631
I3613
sS'baleful'
p2632
I4053
sS'foldings'
p2633
I4624
sS'itmay'
p2634
I4010
sS'erased'
p2635
I4672
sS'poem'
p2636
I3005
sS'tread'
p2637
I1833
sS'thanked'
p2638
I2571
sS'thankee'
p2639
I1826
sS'immense'
p2640
I3099
sS'slowly'
p2641
I1253
sS'candle.he'
p2642
I1219
sS'senses'
p2643
I1531
sS'both'
p2644
I216
sS'roughtable'
p2645
I4246
sS'theconduct'
p2646
I4835
sS'willdiscuss'
p2647
I5603
sS'damagedand'
p2648
I4249
sS'fiftytimes'
p2649
I5541
sS'ploughedup'
p2650
I3414
sS'instantly'
p2651
I1034
sS'eat.they'
p2652
I2363
sS'asgood'
p2653
I5612
sS'examined'
p2654
I1933
sS'motionless.that'
p2655
I1192
sS'swinging'
p2656
I2396
sS'thebed'
p2657
I3196
sS'cometo'
p2658
I5282
sS'thespectre'
p2659
I5115
sS'repleted'
p2660
I5335
sS'began'
p2661
I166
sS'parts'
p2662
I2157
sS'speaker'
p2663
I4777
sS'party'
p2664
I703
sS'notwithstanding.'
p2665
I1592
sS'verycheerful'
p2666
I3445
sS'appearances'
p2667
I3223
sS'effect'
p2668
I2762
sS'genialface'
p2669
I3355
sS'portlygentleman'
p2670
I5519
sS'poultry'
p2671
I3293
sS'nearneighbour'
p2672
I4122
sS'i'
I53
sS'severalhomes'
p2673
I2314
sS'amends'
p2674
I1763
sS'corporation'
p2675
I1155
sS'andpleasant'
p2676
I3511
sS'liehere.he'
p2677
I4799
sS'taller'
p2678
I2625
sS'doso'
p2679
I1640
sS'mistaken'
p2680
I5600
sS'mistakes'
p2681
I3597
sS'torepress.he'
p2682
I5182
sS'askedscrooge'
p2683
I2166
sS'hisbroken'
p2684
I5391
sS'workingnow'
p2685
I3382
sS'drew'
p2686
I2079
sS'havemade'
p2687
I4473
sS'matched'
p2688
I4953
sS'kick'
p2689
I3082
sS'fate'
p2690
I5373
sS'crushed'
p2691
I3028
sS'livid'
p2692
I1193
sS'unseen'
p2693
I4859
sS'ghostmarley'
p2694
I10
sS'immediately'
p2695
I2205
sS'bornein'
p2696
I1158
sS'loss'
p2697
I4973
sS'necessary'
p2698
I478
sS'lost'
p2699
I1925
sS'andfeebly'
p2700
I3894
sS'lose'
p2701
I4359
sS'thedessert'
p2702
I4365
sS'gotpeter'
p2703
I5286
sS'shed'
p2704
I3326
sS'belonged'
p2705
I1105
sS'scuffle'
p2706
I2385
sS'christmasstave'
p2707
I7
sS'warmer'
p2708
I718
sS'home'
p2709
I1101
sS'peter'
p2710
I3757
sS'thereis'
p2711
I64
sS'broad'
p2712
I2293
sS'objected'
p2713
I4564
sS'whilethe'
p2714
I3975
sS'?'
I104
sS'phantoms'
p2715
I441
sS'pulpy'
p2716
I3575
sS'choked'
p2717
I3431
sS'lasttime'
p2718
I4684
sS'most.why'
p2719
I1791
sS'refuge'
p2720
I4682
sS'withdeath'
p2721
I4979
sS'fettered'
p2722
I1652
sS'thenremembered'
p2723
I1430
sS'whydid'
p2724
I2305
sS'doubtless'
p2725
I2136
sS'histaking'
p2726
I170
sS'noticed'
p2727
I4606
sS'theman'
p2728
I5354
sS'gait'
p2729
I257
sS'drinksthe'
p2730
I4033
sS'gain'
p2731
I2918
sS'courts'
p2732
I360
sS'ha'
p2733
I4294
sS'eat'
p2734
I3584
sS'he'
p2735
I45
sS'grieve'
p2736
I2899
sS"you'reparticular"
p2737
I1507
sS'turnings'
p2738
I3622
sS'histerror'
p2739
I1560
sS'itis'
p2740
I2860
sS'display'
p2741
I3967
sS'universal'
p2742
I3900
sS'penny'
p2743
I5025
sS'theyfaded'
p2744
I4092
sS'theconsolation'
p2745
I3248
sS'kissed'
p2746
I4329
sS'scarcelyentered'
p2747
I4933
sS'authority'
p2748
I4594
sS'ghost.they'
p2749
I4630
sS'wouldbe'
p2750
I1214
sS'star'
p2751
I1795
sS'stay'
p2752
I1695
sS'church-yard'
p2753
I191
sS'friends'
p2754
I2318
sS'grunted'
p2755
I4541
sS'densegloom'
p2756
I2159
sS'helpthem'
p2757
I2737
sS'sisterto'
p2758
I3834
sS'portion'
p2759
I4719
sS'down-stairs'
p2760
I5480
sS'pardon'
p2761
I5529
sS'knelt'
p2762
I4628
sS'wouldbecome'
p2763
I2801
sS'littlebusiness'
p2764
I1115
sS'whose'
p2765
I891
sS'unfeeling'
p2766
I4037
sS'swan'
p2767
I3853
sS'presents'
p2768
I3067
sS'sorry'
p2769
I698
sS'_me_'
p2770
I1048
sS'vast'
p2771
I1759
sS'baking'
p2772
I4107
sS'youever'
p2773
I5270
sS'clothed'
p2774
I3333
sS'solution'
p2775
I4838
sS'convenience'
p2776
I5032
sS'turkey-cock'
p2777
I4772
sS'sexton'
p2778
I4450
sS'itprofesses'
p2779
I2907
sS'aparting'
p2780
I3166
sS'clothes'
p2781
I3614
sS'winded'
p2782
I5416
sS'force'
p2783
I2184
sS'likely'
p2784
I4776
sS'fellow-passengers'
p2785
I628
sS'prisons'
p2786
I791
sS'asif'
p2787
I3836
sS'orchestra'
p2788
I2690
sS'yonder'
p2789
I5314
sS'scale.the'
p2790
I453
sS'reverently'
p2791
I2187
sS'new'
p2792
I213
sS'ever'
p2793
I238
sS'sidled'
p2794
I4478
sS'micebehind'
p2795
I2386
sS'men'
p2796
I350
sS'intheir'
p2797
I4417
sS'ingroups'
p2798
I4754
sS'overand'
p2799
I1860
sS'met'
p2800
I4788
sS'active'
p2801
I3831
sS'dry'
p2802
I2682
sS'thathung'
p2803
I1395
sS'piercing'
p2804
I992
sS'permit'
p2805
I96
sS'suitable'
p2806
I4952
sS'eyebrows'
p2807
I270
sS'theghost'
p2808
I3140
sS'hadfallen'
p2809
I4472
sS'moral'
p2810
I4830
sS'guests'
p2811
I4526
sS'arms'
p2812
I2102
sS'blindman'
p2813
I4458
sS'call'
p2814
I385
sS'calm'
p2815
I4927
sS'abouttheir'
p2816
I5065
sS'spiritswhen'
p2817
I1951
sS'right.'
p2818
I5564
sS'poulterers'
p2819
I944
sS'churchyard'
p2820
I5326
sS'peeping'
p2821
I894
sS'sobbed.they'
p2822
I2319
sS'warn'
p2823
I1820
sS'warm'
p2824
I409
sS'ward'
p2825
I1736
sS'soonas'
p2826
I2734
sS'blindfold'
p2827
I2272
sS'waswonderful'
p2828
I4103
sS'room'
p2829
I473
sS'andmashed'
p2830
I3903
sS'roof'
p2831
I2328
sS'root'
p2832
I2890
sS'underthe'
p2833
I1297
sS'laughs'
p2834
I5423
sS'involve'
p2835
I1521
sS'rimewas'
p2836
I268
sS'havefilled'
p2837
I4635
sS'elicited'
p2838
I4536
sS'longline'
p2839
I5421
sS'littlechild'
p2840
I5252
sS'inbed'
p2841
I3178
sS'answer'
p2842
I533
sS'bedight'
p2843
I3943
sS'magnitude.'
p2844
I4661
sS'curiosity'
p2845
I1892
sS'_they_'
p2846
I5151
sS'execrable'
p2847
I4487
sS'third'
p2848
I1838
sS'thango'
p2849
I2047
sS'fictitious'
p2850
I3095
sS'half-a-crown'
p2851
I1042
sS'knowthat'
p2852
I1743
sS'happy.they'
p2853
I5264
sS'eyesin'
p2854
I4461
sS'before'
p2855
I690
sS'coffin-nail'
p2856
I73
sS','
I13
sS'better'
p2857
I367
sS'damascus'
p2858
I2428
sS'low-browed'
p2859
I4887
sS'overcome'
p2860
I3163
sS'weakness'
p2861
I5021
sS'abreathless'
p2862
I3881
sS'glazed'
p2863
I1567
sS'meat'
p2864
I828
sS'brightness'
p2865
I934
sS'roast'
p2866
I2764
sS'went'
p2867
I673
sS'side'
p2868
I1526
sS'bone'
p2869
I3907
sS'mean'
p2870
I56
sS'lighthearts'
p2871
I5207
sS'afforded'
p2872
I5067
sS'calmly'
p2873
I3946
sS'daws'
p2874
I3607
sS'principles'
p2875
I956
sS'caustic'
p2876
I1502
sS'thoroughfares'
p2877
I2601
sS'almosttouched'
p2878
I5088
sS'merchants'
p2879
I4750
sS'hushed'
p2880
I5211
sS'particles'
p2881
I3434
sS'detestation'
p2882
I5069
sS'revolving'
p2883
I4850
sS'turning'
p2884
I663
sS'thatit'
p2885
I477
sS'struggle'
p2886
I2952
sS'mistress'
p2887
I2718
sS'shaggy'
p2888
I2282
sS'wallswere'
p2889
I2332
sS'lumber-room'
p2890
I1296
sS'cellars'
p2891
I1244
sS'loud'
p2892
I4204
sS'chinked'
p2893
I4752
sS'features'
p2894
I250
sS'grade'
p2895
I4650
sS'thefolded'
p2896
I1495
sS'lettuce'
p2897
I2452
sS'floors'
p2898
I1442
sS'night.scrooge'
p2899
I1890
sS'comforter'
p2900
I482
sS'him.holding'
p2901
I5371
sS'andquarters'
p2902
I902
sS'girls'
p2903
I3490
sS'shewas'
p2904
I2786
sS'approach.'
p2905
I503
sS'fancying'
p2906
I1116
sS'theheaviest'
p2907
I307
sS'peculiar'
p2908
I3657
sS'waistcoats'
p2909
I3472
sS'begins'
p2910
I4381
sS'distance'
p2911
I382
sS'matter'
p2912
I2477
sS'louder'
p2913
I1441
sS'silly'
p2914
I2840
sS'loiter'
p2915
I5053
sS'threadbare'
p2916
I3791
sS'mind'
p2917
I1159
sS'mine'
p2918
I590
sS'seen'
p2919
I1145
sS'seem'
p2920
I620
sS'seek'
p2921
I2945
sS'tells'
p2922
I2932
sS'himin'
p2923
I5467
sS'niece'
p2924
I4320
sS'thesticks'
p2925
I3560
sS'anold'
p2926
I3127
sS'fiveminutes'
p2927
I3234
sS'mashed'
p2928
I3857
sS'alarm'
p2929
I3100
sS'dog'
p2930
I2766
sS'points'
p2931
I5562
sS'principle'
p2932
I2968
sS'laststroke'
p2933
I4686
sS'rapture'
p2934
I925
sS'visitor'
p2935
I2078
sS'retire'
p2936
I731
sS'deftly'
p2937
I2809
sS'thesilent'
p2938
I4725
sS'judges'
p2939
I4364
sS'wolfish'
p2940
I4632
sS'explain'
p2941
I1164
sS'cripple'
p2942
I3824
sS'sugar'
p2943
I3567
sS'hispipe'
p2944
I4944
sS'judged'
p2945
I4126
sS'foundthat'
p2946
I4726
sS'folks'
p2947
I2841
sS'wearing'
p2948
I5014
sS'tiles'
p2949
I1346
sS'stop'
p2950
I810
sS'worldof'
p2951
I547
sS"cratchit'shouse"
p2952
I5220
sS'whitechapel'
p2953
I4518
sS'strongeryet'
p2954
I5369
sS'bad'
p2955
I1177
sS'softly'
p2956
I1407
sS'itsface'
p2957
I4704
sS'bah'
p2958
I504
sS'ears'
p2959
I2716
sS'market-town'
p2960
I2278
sS'densewithout'
p2961
I435
sS'reference'
p2962
I4858
sS'assembledfriends'
p2963
I4316
sS'raggedsheet'
p2964
I5090
sS'ofany'
p2965
I2942
sS'andto'
p2966
I2445
sS'subject'
p2967
I4373
sS'ferreteyes'
p2968
I1960
sS'snuff'
p2969
I4764
sS'said'
p2970
I505
sS'acharcoal'
p2971
I4911
sS'scrap'
p2972
I636
sS'artificial'
p2973
I3404
sS'merrychristmas'
p2974
I2310
sS'potato.there'
p2975
I1546
sS'sorts'
p2976
I3923
sS'by-ways'
p2977
I2313
sS'ignorance'
p2978
I4665
sS'weary'
p2979
I1705
sS"'that"
p2980
I5281
sS'examinedand'
p2981
I5003
sS"'and"
p2982
I5229
sS'cousin'
p2983
I2705
sS'picking'
p2984
I1052
sS'wasready'
p2985
I3221
sS'stoppedto'
p2986
I3706
sS'against'
p2987
I570
sS'music-book'
p2988
I2687
sS'andnot'
p2989
I630
sS'pursuit'
p2990
I2910
sS'appeared'
p2991
I352
sS'incessant'
p2992
I1724
sS'thencoming'
p2993
I1443
sS'diedaway'
p2994
I2825
sS'puts'
p2995
I4407
sS'_to_'
p2996
I1509
sS'three'
p2997
I414
sS'rememberthat'
p2998
I3685
sS'recognised'
p2999
I4865
sS'interest'
p3000
I3628
sS'entered'
p3001
I3328
sS'hischamber'
p3002
I1957
sS'idol'
p3003
I2900
sS'threw'
p3004
I1391
sS'dismiss'
p3005
I2977
sS'tolled'
p3006
I2042
sS'personally'
p3007
I1906
sS'frombetween'
p3008
I4061
sS'tank'
p3009
I461
sS'thestreet'
p3010
I3476
sS'near'
p3011
I2375
sS'melted'
p3012
I2161
sS'suppose'
p3013
I1038
sS'seven'
p3014
I755
sS'is'
p3015
I19
sS'vagueuncertain'
p3016
I4733
sS'it'
p3017
I38
sS'shame'
p3018
I3645
sS'cant'
p3019
I4006
sS'ibelieve'
p3020
I640
sS'all.he'
p3021
I3981
sS'jest'
p3022
I3464
sS'in'
p3023
I83
sS'if'
p3024
I158
sS'grown'
p3025
I2643
sS'growl'
p3026
I4426
sS'bottles'
p3027
I4891
sS'belle'
p3028
I3125
sS'make'
p3029
I840
sS'confronting'
p3030
I1857
sS'grows'
p3031
I2870
sS'bells'
p3032
I1417
sS'jocund'
p3033
I2300
sS'clung'
p3034
I4233
sS'leastthree'
p3035
I3787
sS'delight'
p3036
I3086
sS'kin'
p3037
I3684
sS'supposing'
p3038
I4569
sS'stiffened'
p3039
I256
sS'thoughts'
p3040
I1369
sS'bones.to'
p3041
I1564
sS'smoked'
p3042
I518
sS'_did_'
p3043
I1220
sS'yours'
p3044
I3128
sS'left'
p3045
I710
sS'oyster.the'
p3046
I245
sS'consciousness'
p3047
I2299
sS'hesometimes'
p3048
I4514
sS'wiser'
p3049
I2921
sS'assigned'
p3050
I1585
sS'human'
p3051
I379
sS'yes'
p3052
I671
sS'dullconversation'
p3053
I1943
sS'yet'
p3054
I990
sS'infinitely'
p3055
I5611
sS'legion'
p3056
I1596
sS'regarded'
p3057
I5513
sS'character'
p3058
I2470
sS'save'
p3059
I494
sS'trimming'
p3060
I1255
sS'boasted'
p3061
I1073
sS'forthamong'
p3062
I3528
sS'mr.marley'
p3063
I752
sS'affability'
p3064
I4293
sS'thinlips'
p3065
I261
sS'shoulder'
p3066
I3795
sS'ramparts'
p3067
I176
sS'patience'
p3068
I4348
sS'hoarding'
p3069
I5183
sS'ofwork'
p3070
I2775
sS'deal'
p3071
I2370
sS'somehow'
p3072
I2361
sS'dead'
p3073
I12
sS'standing'
p3074
I1490
sS'apronsbehind'
p3075
I3603
sS'dear'
p3076
I2418
sS'eked'
p3077
I3902
sS'tripped'
p3078
I4120
sS'undisturbed'
p3079
I1937
sS'carts'
p3080
I2288
sS'dispelled'
p3081
I4049
sS'bold'
p3082
I2196
sS'wept'
p3083
I2378
sS'offinto'
p3084
I3811
sS'blithe'
p3085
I4203
sS'theircooking'
p3086
I3652
sS'afternoon'
p3087
I694
sS'astiny'
p3088
I5633
sS"spirit'ssorrowful"
p3089
I4623
sS'down'
p3090
I320
sS'lies'
p3091
I3136
sS'chime'
p3092
I2036
sS'frightened'
p3093
I5081
sS'itsunconstrained'
p3094
I3358
sS'slipshod'
p3095
I4871
sS'illustrious'
p3096
I5420
sS'coal-box'
p3097
I472
sS'fork'
p3098
I3729
sS'fori'
p3099
I4397
sS'form'
p3100
I2377
sS'fora'
p3101
I4073
sS"couldn'treplenish"
p3102
I470
sS'garments'
p3103
I2406
sS'avisitation'
p3104
I2041
sS'shiningicicles'
p3105
I3353
sS'attached'
p3106
I1912
sS'bounds'
p3107
I2304
sS'thoughthere'
p3108
I5289
sS'stages'
p3109
I2730
sS'temper'
p3110
I875
sS'manyback-payments'
p3111
I5534
sS'havedone'
p3112
I5250
sS'sticks'
p3113
I5489
sS'despondentpoplar'
p3114
I2395
sS'covers'
p3115
I3631
sS'theprecious'
p3116
I3031
sS'floating'
p3117
I2257
sS'aunts'
p3118
I4113
sS'leafless'
p3119
I2393
sS'handed'
p3120
I771
sS'half-chimney'
p3121
I4134
sS'warehouse'
p3122
I206
sS'holly'
p3123
I584
sS'ribbons'
p3124
I3721
sS'castabout'
p3125
I4163
sS'dies'
p3126
I4400
sS'felt'
p3127
I834
sS'fell'
p3128
I682
sS'died'
p3129
I2596
sS'ghostof'
p3130
I4441
sS'counting-house'
p3131
I394
sS'theircan'
p3132
I4247
sS'teeth'
p3133
I1850
sS'parcels'
p3134
I3078
sS'restored'
p3135
I3643
sS'forthe'
p3136
I4972
sS'themes'
p3137
I3899
sS'mild'
p3138
I4040
sS'skin'
p3139
I2101
sS'lean'
p3140
I985
sS'depend'
p3141
I4984
sS'swoon'
p3142
I1606
sS'father'
p3143
I163
sS'bordered'
p3144
I3336
sS'thedog-days'
p3145
I280
sS'answered'
p3146
I215
sS'unpleasant'
p3147
I3394
sS'pace'
p3148
I5525
sS'fancied'
p3149
I4857
sS'abundance'
p3150
I835
sS'goingon'
p3151
I3533
sS'governments'
p3152
I1903
sS'dim'
p3153
I3124
sS'did'
p3154
I106
sS'die'
p3155
I852
sS'dig'
p3156
I5592
sS'thisnephew'
p3157
I512
sS'round'
p3158
I566
sS'talked'
p3159
I4542
sS'dealing'
p3160
I2904
sS'readyfor'
p3161
I5482
sS'wherefore'
p3162
I480
sS'putdown'
p3163
I2426
sS'favour'
p3164
I4064
sS'filled'
p3165
I1894
sS'clerk'
p3166
I32
sS'involuntarily'
p3167
I644
sS'french'
p3168
I3576
sS'hummed'
p3169
I4265
sS'_will_'
p3170
I642
sS'box'
p3171
I2541
sS'boy'
p3172
I2248
sS'bow'
p3173
I2804
sS'thesmart'
p3174
I1849
sS'bob'
p3175
I3707
sS'quarrel'
p3176
I702
sS'hither'
p3177
I1896
sS'dick'
p3178
I2642
sS'useful'
p3179
I811
sS'careworn'
p3180
I5176
sS'withal'
p3181
I398
sS'giveit'
p3182
I692
sS'toquarrel'
p3183
I3646
sS'everybody'
p3184
I2822
sS'taughtscrooge'
p3185
I4597
sS'wealth'
p3186
I2911
sS'sharper'
p3187
I4521
sS'sake'
p3188
I1844
sS'flaunting'
p3189
I4960
sS'flung'
p3190
I1788
sS'condescension'
p3191
I2545
sS'rigid'
p3192
I5117
sS'robe'
p3193
I2226
sS'walled'
p3194
I5329
sS'pageant'
p3195
I951
sS'won-der-ful'
p3196
I5575
sS'soul'
p3197
I2830
sS'growing'
p3198
I2453
sS'making'
p3199
I2001
sS'deceased'
p3200
I1106
sS'dimwith'
p3201
I3315
sS'confused'
p3202
I1877
sS'half-a-dozengas-lamps'
p3203
I1280
sS'andmade'
p3204
I2689
sS'till'
p3205
I4399
sS'sunday'
p3206
I5248
sS'skater'
p3207
I4809
sS'tile'
p3208
I1376
sS'like.of'
p3209
I5447
sS'him.the'
p3210
I5226
sS'may'
p3211
I594
sS'freezing'
p3212
I2217
sS'grog'
p3213
I4248
sS'designed'
p3214
I1347
sS'man'
p3215
I133
sS'waist'
p3216
I1071
sS'outpouring'
p3217
I4142
sS'deposit'
p3218
I3413
sS'padlocks'
p3219
I1470
sS'talk'
p3220
I1257
sS'nearly'
p3221
I1806
sS'yearsafterwards'
p3222
I204
sS'shoes'
p3223
I1314
sS'pointed'
p3224
I252
sS'wishing'
p3225
I1586
sS'shake'
p3226
I5356
sS'agothic'
p3227
I896
sS'blendedscents'
p3228
I3551
sS'group'
p3229
I3061
sS'thank'
p3230
I5540
sS'wasthe'
p3231
I497
sS'main'
p3232
I911
sS'upnow'
p3233
I5142
sS'truest'
p3234
I4980
sS'pitch-and-toss'
p3235
I3211
sS'rattled'
p3236
I3548
sS'makesome'
p3237
I778
sS'tinytim'
p3238
I3832
sS'tucker'
p3239
I4378
sS'lunch'
p3240
I4780
sS'inits'
p3241
I1755
sS'aspirations'
p3242
I2916
sS'killed'
p3243
I4547
sS'muchhappiness'
p3244
I5547
sS"home'slike"
p3245
I2522
sS'mulledwine'
p3246
I4573
sS'girl'
p3247
I2507
sS'astale'
p3248
I4638
sS'parted.'
p3249
I2982
sS'verylamp-lighter'
p3250
I4147
sS'hungrybrothers'
p3251
I4018
sS'hearty.his'
p3252
I3830
sS'emerged'
p3253
I3617
sS'dutch'
p3254
I1343
sS'correct'
p3255
I1980
sS'after'
p3256
I184
sS'anddwindled'
p3257
I5379
sS'inever'
p3258
I3025
sS'byhis'
p3259
I3264
sS'anddread.scrooge'
p3260
I4654
sS'advance'
p3261
I2803
sS'contented'
p3262
I4091
sS'thing'
p3263
I371
sS'nextmorning'
p3264
I1061
sS'thine'
p3265
I5118
sS'flewback'
p3266
I2028
sS'think'
p3267
I625
sS'first'
p3268
I501
sS'cheese'
p3269
I1543
sS'butmarley'
p3270
I1172
sS'dwelling'
p3271
I3709
sS'long'
p3272
I617
sS'carry'
p3273
I4339
sS'sounds'
p3274
I5516
sS'up.the'
p3275
I2615
sS'little'
p3276
I286
sS'slept'
p3277
I1986
sS'raged'
p3278
I4215
sS'nipped'
p3279
I251
sS'thispower'
p3280
I3699
sS'atall'
p3281
I4786
sS'eyes'
p3282
I259
sS'buti'
p3283
I5159
sS'atthe'
p3284
I784
sS'scraping'
p3285
I227
sS'were'
p3286
I111
sS'gigantic'
p3287
I3690
sS'occupies'
p3288
I862
sS'voices'
p3289
I1930
sS'dash'
p3290
I5552
sS'winding'
p3291
I2280
sS'him.then'
p3292
I2533
sS'speakers'
p3293
I4790
sS'hooded'
p3294
I4118
sS'answering'
p3295
I4530
sS'squab'
p3296
I3515
sS'green'
p3297
I2120
sS'trace'
p3298
I3425
sS'ancientstate'
p3299
I2346
sS'paid'
p3300
I5495
sS'nuisance.'
p3301
I1740
sS'entreaty'
p3302
I304
sS'sheets'
p3303
I5012
sS'pair'
p3304
I2154
sS'conspicuous'
p3305
I3499
sS'queens'
p3306
I1354
sS'lordmayor'
p3307
I959
sS'especially'
p3308
I2744
sS'surprising'
p3309
I3268
sS'gracefully'
p3310
I2721
sS'again.to'
p3311
I1205
sS'stockings'
p3312
I5405
sS'isall'
p3313
I1751
sS'shop'
p3314
I4932
sS'shot'
p3315
I5468
sS'show'
p3316
I2983
sS'asdragging'
p3317
I1436
sS'cravat'
p3318
I1327
sS'supposition'
p3319
I2950
sS'fervour'
p3320
I2271
sS'andfresh'
p3321
I3601
sS'shoe'
p3322
I3032
sS'threshold'
p3323
I3705
sS'corner'
p3324
I912
sS'despairingly'
p3325
I2502
sS'plume'
p3326
I3201
sS'treasure'
p3327
I4832
sS'enough'
p3328
I526
sS'either'
p3329
I2238
sS'black'
p3330
I1132
sS'raising'
p3331
I1506
sS'incredulous'
p3332
I1499
sS'theyplayed'
p3333
I4455
sS'plums'
p3334
I3577
sS'plump'
p3335
I4376
sS'missbelinda'
p3336
I3859
sS'fast.holly'
p3337
I3386
sS'get'
p3338
I679
sS'slyness'
p3339
I3489
sS'unconsciously'
p3340
I2055
sS'slily'
p3341
I895
sS'beseech'
p3342
I5164
sS'yield'
p3343
I2948
sS'morning'
p3344
I1146
sS'ruddy'
p3345
I425
sS'communicated'
p3346
I1396
sS'silently'
p3347
I4697
sS'satenthroned'
p3348
I4643
sS'seat'
p3349
I3988
sS'doings'
p3350
I3686
sS'seal'
p3351
I4998
sS'unaltered'
p3352
I3993
sS'calendar'
p3353
I618
sS'wonder'
p3354
I664
sS'quarterpast'
p3355
I5580
sS'behind'
p3356
I1225
sS'cautiously'
p3357
I1224
sS'reading'
p3358
I2374
sS'across'
p3359
I1250
sS'whispered'
p3360
I5471
sS'irresistibledrowsiness'
p3361
I3164
sS'tut'
p3362
I3130
sS'jacobmarley'
p3363
I4689
sS'countenance'
p3364
I1827
sS'tug'
p3365
I356
sS'twelfth-night'
p3366
I4605
sS'trades'
p3367
I947
sS'kindnesses'
p3368
I4447
sS'hedid'
p3369
I1713
sS'themlaugh'
p3370
I5616
sS'among'
p3371
I1633
sS'wasclosely'
p3372
I4935
sS'outloudly'
p3373
I4154
sS'stretched'
p3374
I4737
sS'anyplace'
p3375
I3693
sS'considering'
p3376
I2045
sS'sensible'
p3377
I1876
sS'unusual'
p3378
I2264
sS'capable'
p3379
I3837
sS'mark'
p3380
I1698
sS'everyword'
p3381
I4833
sS'woodenplatter'
p3382
I3098
sS'disappointed'
p3383
I3806
sS'lustily'
p3384
I4318
sS'wereeverywhere'
p3385
I3784
sS'those'
p3386
I849
sS'sound'
p3387
I654
sS"n't"
p3388
I55
sS'fastthe'
p3389
I4595
sS'youwere'
p3390
I2930
sS'rubbing'
p3391
I5472
sS'coffee'
p3392
I3553
sS'sleeping'
p3393
I4273
sS'middle'
p3394
I1463
sS'pressing'
p3395
I4493
sS'harsh'
p3396
I2878
sS'thatnothing'
p3397
I5618
sS'pay'
p3398
I1049
sS'same'
p3399
I220
sS'speech'
p3400
I4582
sS'triumphantly'
p3401
I2062
sS'howpatient'
p3402
I5292
sS'struggling'
p3403
I3069
sS'tobob'
p3404
I5476
sS'surprised-looking'
p3405
I4325
sS'oil'
p3406
I5046
sS'knewwhat'
p3407
I4422
sS'assist'
p3408
I1917
sS'merrybells'
p3409
I5442
sS'companion'
p3410
I4268
sS'running'
p3411
I1999
sS'ancestors'
p3412
I82
sS'frisked'
p3413
I5414
sS'bitterer'
p3414
I294
sS'speakingunconsciously'
p3415
I2852
sS"wasn'tfair"
p3416
I4480
sS'hisway'
p3417
I374
sS'bottle'
p3418
I4419
sS'dashed'
p3419
I4227
sS'bumping'
p3420
I4466
sS'figurefrom'
p3421
I4708
sS'amazed'
p3422
I5189
sS'gates'
p3423
I2336
sS'fellow-beings'
p3424
I1793
sS'money'
p3425
I553
sS'nick'
p3426
I3181
sS'now.merciful'
p3427
I5086
sS'pile'
p3428
I1112
sS'astonishment'
p3429
I1967
sS'grating'
p3430
I265
sS'andsheds'
p3431
I2342
sS'extensive'
p3432
I4997
sS'heavier'
p3433
I3433
sS'blankets'
p3434
I5047
sS"'ve"
p3435
I5452
sS'chamber'
p3436
I1398
sS'nose'
p3437
I253
sS'served'
p3438
I3974
sS"what'schristmas-time"
p3439
I549
sS'helpthinking'
p3440
I4401
sS'doll'
p3441
I3091
sS'theytumbled'
p3442
I3589
sS'booming'
p3443
I1439
sS'hadshared'
p3444
I4275
sS'declension'
p3445
I3802
sS'hermind'
p3446
I3953
sS'knife'
p3447
I3893
sS'measuring'
p3448
I3034
sS'inrestless'
p3449
I1898
sS'broken'
p3450
I2335
sS'thiswas'
p3451
I500
sS'conducting'
p3452
I3007
sS'stations'
p3453
I2817
sS'_his_'
p3454
I4995
sS'fringe'
p3455
I3789
sS'pockets'
p3456
I1711
sS'mounting'
p3457
I3868
sS'mixed'
p3458
I4793
sS'road'
p3459
I2236
sS'lands'
p3460
I4588
sS'blessed'
p3461
I1794
sS'makingthem'
p3462
I5401
sS'dreaming'
p3463
I2461
sS'pleasantry'
p3464
I4775
sS'stopand'
p3465
I4787
sS'othertunes'
p3466
I4435
sS'entering.a'
p3467
I5325
sS'spring-time'
p3468
I3121
sS'softeninginfluence'
p3469
I2400
sS'shroud'
p3470
I4734
sS'hisnephew'
p3471
I4583
sS'nosuch'
p3472
I4951
sS'scorning'
p3473
I2746
sS'powerless'
p3474
I3242
sS'affection'
p3475
I3084
sS'celestial'
p3476
I2554
sS'deep'
p3477
I1424
sS'fellow'
p3478
I721
sS'imagination'
p3479
I489
sS'himself.stop'
p3480
I4457
sS'lifetime'
p3481
I4977
sS'fill'
p3482
I5620
sS'again'
p3483
I519
sS'repent'
p3484
I5026
sS'field'
p3485
I3222
sS'_are_'
p3486
I2929
sS'brandy'
p3487
I3942
sS'takecold'
p3488
I5048
sS'lookseasonable'
p3489
I3794
sS'fraught'
p3490
I2935
sS'resolution'
p3491
I2050
sS'forget'
p3492
I5291
sS'acosy'
p3493
I4106
sS'long-expected'
p3494
I3884
sS'sunk'
p3495
I2053
sS'andhooded'
p3496
I4692
sS'forged'
p3497
I1654
sS'sung'
p3498
I4423
sS'slunk'
p3499
I4931
sS'red-hot'
p3500
I3303
sS'whilescrooge'
p3501
I4602
sS'diffuse'
p3502
I3451
sS'willyou'
p3503
I5539
sS'preserved'
p3504
I3991
sS'hooks'
p3505
I3500
sS'hideous'
p3506
I4626
sS'returning'
p3507
I1583
sS'resistance'
p3508
I3148
sS'fall'
p3509
I2230
sS'house-fronts'
p3510
I3406
sS'disused'
p3511
I1394
sS'overflowings'
p3512
I928
sS'manresolved'
p3513
I2753
sS'further'
p3514
I3165
sS'returned'
p3515
I527
sS'creatures'
p3516
I633
sS'heknew'
p3517
I2617
sS'stood'
p3518
I203
sS'lamp-lighter'
p3519
I4156
sS'stool'
p3520
I1029
sS'overthe'
p3521
I2710
sS'standingwell'
p3522
I4802
sS'came.all'
p3523
I3237
sS'oldmarley'
p3524
I49
sS'hadonce'
p3525
I1104
sS'stretching'
p3526
I4674
sS'thansuspected'
p3527
I3094
sS'misery'
p3528
I1921
sS'narrow'
p3529
I1701
sS'clapping'
p3530
I2739
sS'runthere'
p3531
I1117
sS'butit'
p3532
I2873
sS'mourningdress'
p3533
I2892
sS'eye'
p3534
I366
sS'distinct'
p3535
I2164
sS'wiped'
p3536
I1815
sS'two'
p3537
I735
sS'seemedas'
p3538
I1134
sS'handsomely'
p3539
I322
sS'brisk'
p3540
I4532
sS'lemons'
p3541
I3519
sS'particular'
p3542
I1140
sS'workhouses'
p3543
I795
sS'town'
p3544
I1087
sS'none'
p3545
I1685
sS'hour'
p3546
I558
sS'strain'
p3547
I4442
sS'remain'
p3548
I3996
sS'escorted'
p3549
I3833
sS'den'
p3550
I4884
sS'nothing.'
p3551
I1682
sS'almshouse'
p3552
I4590
sS'purchases'
p3553
I3593
sS'witharomatic'
p3554
I4383
sS'atlast'
p3555
I3877
sS'gravely'
p3556
I4696
sS'onslaught'
p3557
I3070
sS'share'
p3558
I1647
sS'sphere'
p3559
I1756
sS'numbers'
p3560
I4127
sS'sharp'
p3561
I232
sS'sawan'
p3562
I5375
sS'tocut'
p3563
I4520
sS'needs'
p3564
I3660
sS'comfort'
p3565
I2897
sS'maps'
p3566
I2553
sS'sacred'
p3567
I608
sS'sleeve-buttons'
p3568
I5000
sS'andmeans'
p3569
I830
sS'stir'
p3570
I2002
sS'questioning'
p3571
I4533
sS'maychange'
p3572
I5359
sS'blood'
p3573
I1207
sS'minutes.after'
p3574
I4050
sS'blacker'
p3575
I3407
sS'bloom'
p3576
I2100
sS'bleak'
p3577
I395
sS'crowded'
p3578
I376
sS'coat'
p3579
I1480
sS'deserted'
p3580
I2316
sS'coal'
p3581
I469
sS'pleasure'
p3582
I749
sS'playing'
p3583
I1118
sS'shuttersdown'
p3584
I3538
sS'through'
p3585
I565
sS'boy.she'
p3586
I2529
sS'suffer'
p3587
I782
sS'curtaining'
p3588
I4920
sS'late'
p3589
I2476
sS'bereft'
p3590
I5099
sS'forinstance'
p3591
I192
sS'good'
p3592
I40
sS'smothering'
p3593
I4468
sS'walls'
p3594
I1956
sS'asprofound'
p3595
I4287
sS'compound'
p3596
I3960
sS'detach'
p3597
I4707
sS'groped'
p3598
I1993
sS'easily'
p3599
I5294
sS'stiff'
p3600
I2774
sS'fluttered'
p3601
I5389
sS'beangry'
p3602
I4351
sS'everyone'
p3603
I3910
sS'hark'
p3604
I4612
sS'delicious'
p3605
I3316
sS'house'
p3606
I963
sS'fish'
p3607
I3527
sS'hard'
p3608
I231
sS'ofdecember'
p3609
I1054
sS'idea'
p3610
I1813
sS'comeas'
p3611
I2898
sS'excrescence'
p3612
I4770
sS'kindword'
p3613
I5147
sS'harp'
p3614
I4434
sS'creditor'
p3615
I5205
sS'oldworld'
p3616
I5615
sS'madeto'
p3617
I4328
sS'roundand'
p3618
I2727
sS'knowhow'
p3619
I5425
sS'pleasant'
p3620
I615
sS'extraordinary'
p3621
I2442
sS'members'
p3622
I3367
sS'beginning'
p3623
I3019
sS'prophet'
p3624
I1371
sS'conducted'
p3625
I5218
sS'ofboys'
p3626
I1080
sS'whichpointed'
p3627
I2631
sS'copper'
p3628
I3926
sS'valentine'
p3629
I2422
sS'_was_'
p3630
I1504
sS'done'
p3631
I93
sS'dong'
p3632
I2060
sS'wages'
p3633
I1051
sS'tostand'
p3634
I5590
sS'twenty'
p3635
I1081
sS'least'
p3636
I1338
sS'brown-faced'
p3637
I3479
sS'uproarious'
p3638
I3012
sS'needle'
p3639
I4517
sS'draped'
p3640
I4691
sS'caroline'
p3641
I5187
sS'part'
p3642
I479
sS'believe'
p3643
I746
sS'liketo'
p3644
I3998
sS'youth'
p3645
I4634
sS'contrary'
p3646
I3015
sS'unbroken'
p3647
I2202
sS'outto'
p3648
I2772
sS'ages'
p3649
I1744
sS'theshouts'
p3650
I3085
sS'trifled'
p3651
I2777
sS'three-quarters'
p3652
I4615
sS'orders'
p3653
I965
sS'paths'
p3654
I377
sS'built'
p3655
I1342
sS'valueof'
p3656
I4986
sS'couch'
p3657
I3318
sS'inearnest.she'
p3658
I4323
sS'dancelike'
p3659
I2799
sS'province'
p3660
I4824
sS'thedull'
p3661
I2391
sS'pondering'
p3662
I1712
sS'depths'
p3663
I4285
sS'most'
p3664
I1981
sS'moss'
p3665
I4171
sS'services'
p3666
I884
sS'extremely'
p3667
I3559
sS'charitable'
p3668
I614
sS'seething'
p3669
I3312
sS'intercedes'
p3670
I5357
sS'weigh'
p3671
I2962
sS'joining'
p3672
I4244
sS'particularly'
p3673
I65
sS'andorigin'
p3674
I609
sS'carefully'
p3675
I3990
sS'fine'
p3676
I4658
sS'find'
p3677
I699
sS'chimes'
p3678
I1961
sS'giant'
p3679
I3320
sS'nervous'
p3680
I5561
sS'ruin'
p3681
I5023
sS'unhappy'
p3682
I2854
sS'axestuck'
p3683
I2409
sS'woman.joe'
p3684
I5031
sS'firewas'
p3685
I465
sS'merged'
p3686
I2913
sS'ajudgment'
p3687
I4981
sS'procession.such'
p3688
I3846
sS'express'
p3689
I3206
sS'courage'
p3690
I5550
sS'stomachaches'
p3691
I2692
sS'irresolution'
p3692
I1222
sS'heartier'
p3693
I5569
sS'contagious'
p3694
I4307
sS'oflife'
p3695
I2941
sS'remove'
p3696
I3139
sS'common'
p3697
I787
sS'witches'
p3698
I4125
sS'archways'
p3699
I4873
sS'devils'
p3700
I4644
sS'immediatelysensible'
p3701
I647
sS'wasobliged'
p3702
I1333
sS'hispretending'
p3703
I4489
sS'tender'
p3704
I5134
sS'hismouth'
p3705
I3737
sS'chose'
p3706
I46
sS'quarters.so'
p3707
I1964
sS'shutthe'
p3708
I4947
sS'goodafternoon'
p3709
I688
sS'halves'
p3710
I4322
sS'flame'
p3711
I1450
sS'earthmust'
p3712
I1747
sS'half-hour'
p3713
I4528
sS'folding'
p3714
I5395
sS'clad'
p3715
I2218
sS'sultan'
p3716
I2429
sS'foreign'
p3717
I2405
sS'kitchens'
p3718
I4101
sS'repeatedas'
p3719
I5386
sS'danced'
p3720
I3754
sS'point'
p3721
I146
sS'wasproved'
p3722
I2715
sS'dances'
p3723
I2755
sS'caked'
p3724
I3564
sS'outin'
p3725
I4853
sS'raise'
p3726
I824
sS'screened'
p3727
I4917
sS'jovialand'
p3728
I3455
sS'secret'
p3729
I242
sS'said.the'
p3730
I5235
sS'thenight'
p3731
I1931
sS'meeting'
p3732
I4810
sS'gay'
p3733
I4576
sS'roved'
p3734
I1700
sS'understand'
p3735
I5158
sS'ofday'
p3736
I3205
sS'resisted'
p3737
I2223
sS'scroogewas'
p3738
I115
sS'pierce'
p3739
I1959
sS'fur'
p3740
I3337
sS'crutch'
p3741
I3797
sS"i'lloffer"
p3742
I4785
sS'factthat'
p3743
I1144
sS'jacobmarley.but'
p3744
I4452
sS'evenscrooge'
p3745
I124
sS'itself'
p3746
I1865
sS'diedbefore'
p3747
I164
sS'scrooge.but'
p3748
I4411
sS'lessheartily'
p3749
I3466
sS'pigtail'
p3750
I1230
sS'sun-light'
p3751
I5439
sS'wherein'
p3752
I2160
sS'copying'
p3753
I462
sS'engrosses'
p3754
I2919
sS'development'
p3755
I3087
sS'keys'
p3756
I1469
sS'yesterday'
p3757
I2959
sS'moment'
p3758
I536
sS'purpose'
p3759
I300
sS"two'prentices"
p3760
I2824
sS'motionless'
p3761
I1576
sS'panelling'
p3762
I2387
sS'spent'
p3763
I2848
sS'withdraw'
p3764
I5113
sS'toil'
p3765
I2857
sS'couldwarm'
p3766
I289
sS'littlesurprise'
p3767
I4849
sS'spend'
p3768
I4152
sS'notbelonging'
p3769
I4617
sS'neverbetter'
p3770
I4456
sS'distracting'
p3771
I1557
sS'shape'
p3772
I1380
sS'were.she'
p3773
I5171
sS'scrooge'
p3774
I37
sS'shrewdly'
p3775
I264
sS'letting'
p3776
I734
sS'feltwith'
p3777
I5284
sS'cup'
p3778
I3970
sS'inthat'
p3779
I3674
sS'passionless'
p3780
I3536
sS'entirelyvanished'
p3781
I2239
sS'source'
p3782
I3256
sS'praisedfor'
p3783
I5388
sS'excited'
p3784
I2447
sS'luxury'
p3785
I4926
sS'silken'
p3786
I4482
sS'helooked'
p3787
I1404
sS'big'
p3788
I5456
sS'matters'
p3789
I1923
sS'succeededyesterday'
p3790
I5527
sS'bit'
p3791
I1538
sS'sordidreproach'
p3792
I2914
sS'knock'
p3793
I5028
sS'isthe'
p3794
I5080
sS'andsmoked'
p3795
I4924
sS'youor'
p3796
I3250
sS'indicting'
p3797
I1739
sS'often'
p3798
I317
sS'obliged'
p3799
I1994
sS'back'
p3800
I145
sS'candle'
p3801
I485
sS'ourselves'
p3802
I5295
sS'pronounced'
p3803
I5140
sS'affects'
p3804
I1532
sS'though'
p3805
I364
sS'pen'
p3806
I775
sS'connecting'
p3807
I3153
sS'laughing'
p3808
I2443
sS'ofsealing-wax'
p3809
I5490
sS'ajolly'
p3810
I3319
sS'patient'
p3811
I2927
sS'remembered'
p3812
I2038
sS'use'
p3813
I2793
sS'piles'
p3814
I3504
sS'mrs.'
p3815
I2773
sS'piled'
p3816
I4895
sS'consequently'
p3817
I3230
sS'boy.'
p3818
I2517
sS'lesson'
p3819
I3381
sS'screwsand'
p3820
I1234
sS'head-dress'
p3821
I4490
sS'forward'
p3822
I5038
sS'hetried'
p3823
I4657
sS'butlers'
p3824
I968
sS'hoped'
p3825
I3822
sS'boys'
p3826
I920
sS'hopes'
p3827
I2259
sS"'re"
p3828
I524
sS'sort'
p3829
I460
sS'geese'
p3830
I3291
sS'deprive'
p3831
I3668
sS'single'
p3832
I4123
sS'twoyoung'
p3833
I3891
sS'dragging'
p3834
I1426
sS'thoughtof'
p3835
I2937
sS'cesspools'
p3836
I4874
sS'cellar'
p3837
I1180
sS'prepared'
p3838
I3228
sS'veriest'
p3839
I2549
sS'closedit'
p3840
I1237
sS'desert'
p3841
I4160
sS'downcast'
p3842
I3043
sS'strolled'
p3843
I4792
sS'appalling'
p3844
I1604
sS'cooked'
p3845
I3896
sS'presenting'
p3846
I763
sS'dogged'
p3847
I3330
sS'sundayclothes'
p3848
I5443
sS'attire.the'
p3849
I4193
sS'intricate'
p3850
I3423
sS'door.the'
p3851
I3263
sS'graves'
p3852
I5337
sS'blaze'
p3853
I924
sS'putting'
p3854
I1364
sS'turnedit'
p3855
I1217
sS'hestopped'
p3856
I713
sS'stature.'
p3857
I2173
sS'skimmed.but'
p3858
I4238
sS'other.'
p3859
I4805
sS'half-drunken'
p3860
I5196
sS'mrs.cratchit'
p3861
I3775
sS'surface'
p3862
I1382
sS'otherhopes'
p3863
I2912
sS'ofsome'
p3864
I4269
sS'giving'
p3865
I4730
sS'assisted'
p3866
I3725
sS'hadforgotten'
p3867
I5566
sS'withtwenty'
p3868
I2153
sS"spirit'storch"
p3869
I4094
sS'exchange'
p3870
I2011
sS'executor'
p3871
I117
sS'bachelor'
p3872
I4370
sS'remark'
p3873
I2851
sS'baskets'
p3874
I1316
sS'notproud'
p3875
I3759
sS'extravagance'
p3876
I5402
sS'herchildren'
p3877
I5170
sS'decrease'
p3878
I3999
sS'names'
p3879
I217
sS'soirresistibly'
p3880
I4306
sS'resolutions'
p3881
I4852
sS'wailings'
p3882
I1882
sS'gateway'
p3883
I1133
sS'neverfinishes'
p3884
I4380
sS'themselves'
p3885
I3008
sS'inthe'
p3886
I77
sS'oily'
p3887
I2637
sS'areendeavouring'
p3888
I823
sS'apprentices'
p3889
I2845
sS'name.'
p3890
I4025
sS'thehead'
p3891
I5105
sS'apprenticed'
p3892
I2618
sS'ashamed'
p3893
I5180
sS'procuring'
p3894
I1825
sS'tearing'
p3895
I3746
sS'account'
p3896
I5010
sS'theirquestions'
p3897
I4531
sS'gruff'
p3898
I892
sS'praise'
p3899
I2791
sS'island'
p3900
I2458
sS'fetch'
p3901
I3595
sS'proportions'
p3902
I2093
sS'someawkwardly'
p3903
I2722
sS'comfortablewith'
p3904
I4344
sS'bones'
p3905
I1012
sS'lame'
p3906
I3826
sS'dinners'
p3907
I3625
sS'regions'
p3908
I1688
sS'lamp'
p3909
I939
sS'watch'
p3910
I4263
sS'waters'
p3911
I4225
sS'bothered'
p3912
I2022
sS'mystery.it'
p3913
I4702
sS'amnow'
p3914
I2080
sS'lines'
p3915
I2368
sS'trembling'
p3916
I1653
sS'linen'
p3917
I3742
sS'chief'
p3918
I35
sS'subsequently'
p3919
I3571
sS'furnish'
p3920
I816
sS'hugged'
p3921
I3817
sS'shreds'
p3922
I4641
sS'cratchittold'
p3923
I4054
sS'horny'
p3924
I4245
sS'resorting'
p3925
I4449
sS'bedpost'
p3926
I5383
sS'tickled'
p3927
I4557
sS'itsbreast'
p3928
I1616
sS'lunatic'
p3929
I733
sS'mention'
p3930
I143
sS'repassed'
p3931
I2605
sS'thusengaged'
p3932
I4288
sS'kindness'
p3933
I5266
sS'day'
p3934
I137
sS'strive'
p3935
I5362
sS'warned'
p3936
I2040
sS'radiant'
p3937
I3468
sS'blazing'
p3938
I3939
sS'most.'
p3939
I3661
sS'marley'
p3940
I100
sS'wholly'
p3941
I4512
sS'messenger'
p3942
I3185
sS'fondly'
p3943
I3114
sS'announced'
p3944
I5092
sS'approached'
p3945
I2322
sS'frank'
p3946
I3600
sS'fluctuated'
p3947
I2150
sS'yard'
p3948
I1114
sS'myown'
p3949
I1659
sS'mewhen'
p3950
I5197
sS'mortal'
p3951
I1757
sS'sorrowful'
p3952
I1884
sS'savour'
p3953
I2356
sS'whoop'
p3954
I5413
sS'penance'
p3955
I1818
sS'reached'
p3956
I1866
sS'forfeits'
p3957
I2756
sS'mydear'
p3958
I328
sS'ancient'
p3959
I888
sS'swept'
p3960
I2677
sS'werenot'
p3961
I800
sS'werenow'
p3962
I2600
sS'apoor'
p3963
I1798
sS'immovable'
p3964
I5347
sS'intermediate'
p3965
I1169
sS'withthe'
p3966
I3411
sS'scant'
p3967
I1007
sS'peoplebelow'
p3968
I626
sS'explanation'
p3969
I1524
sS'nobody'
p3970
I1123
sS'dreary'
p3971
I2348
sS"'change"
p3972
I42
sS'loved'
p3973
I3983
sS'flashed'
p3974
I2065
sS'visited'
p3975
I4585
sS'withflaring'
p3976
I881
sS'comfortable'
p3977
I2636
sS'patting'
p3978
I5485
sS'unlikely'
p3979
I4296
sS'have'
p3980
I68
sS'apparently'
p3981
I4816
sS'venturing'
p3982
I3217
sS'nonotion'
p3983
I2779
sS'parks'
p3984
I3744
sS'uncared'
p3985
I5102
sS'schoolmaster'
p3986
I2542
sS'everyfresh'
p3987
I4554
sS'great-coat'
p3988
I1056
sS'unless'
p3989
I4670
sS'theirproceedings'
p3990
I4043
sS'eight'
p3991
I1969
sS'prisoner'
p3992
I4170
sS'inexorable'
p3993
I5315
sS'disease'
p3994
I4304
sS'theinsect'
p3995
I4015
sS'uppermembers'
p3996
I2109
sS'occasion'
p3997
I2137
sS'whichwas'
p3998
I4048
sS'sotransparent'
p3999
I1517
sS'kith'
p4000
I3683
sS'supported'
p4001
I3799
sS'hamlet'
p4002
I162
sS'rebuke'
p4003
I4021
sS'asgracefully'
p4004
I3695
sS'gasping'
p4005
I3534
sS'lestthey'
p4006
I3873
sS'lolling'
p4007
I3474
sS'knowledge'
p4008
I62
sS'anddress'
p4009
I5120
sS'handsome'
p4010
I4085
sS'regularly'
p4011
I1970
sS'tofriendly'
p4012
I4128
sS'beat'
p4013
I1984
sS'bear'
p4014
I1667
sS'wassuch'
p4015
I3895
sS'areat'
p4016
I5506
sS'infernalatmosphere'
p4017
I1573
sS'andwoman'
p4018
I4190
sS'calling'
p4019
I3220
sS'fixed'
p4020
I1566
sS'andcomposed'
p4021
I5261
sS'untrue'
p4022
I1215
sS'turkeys'
p4023
I3290
sS'boymust'
p4024
I5232
sS'theknocker'
p4025
I1141
sS'thescriptures'
p4026
I1349
sS'pattern'
p4027
I1661
sS'purses'
p4028
I1473
sS'hesaid'
p4029
I5272
sS'suchwas'
p4030
I1766
sS'progress'
p4031
I3651
sS'sorrow'
p4032
I4305
sS'blazeof'
p4033
I3239
sS'wereclear'
p4034
I3331
sS'instant'
p4035
I4179
sS'talkingabout'
p4036
I730
sS'freely'
p4037
I624
sS'taking'
p4038
I774
sS'equal'
p4039
I3204
sS'assure'
p4040
I4425
sS'wringing'
p4041
I1770
sS'passing'
p4042
I4188
sS'andfeel'
p4043
I4861
sS'glorious'
p4044
I950
sS'otherwise'
p4045
I110
sS'throughthe'
p4046
I1447
sS'hisorgan'
p4047
I2635
sS'whichbright'
p4048
I3273
sS'caverns'
p4049
I4217
sS'beguiled'
p4050
I1097
sS'laugh'
p4051
I2515
sS'earth.built'
p4052
I4220
sS'pouring'
p4053
I431
sS'tremendous'
p4054
I3375
sS'cupolaon'
p4055
I2327
sS'copies'
p4056
I3714
sS'gaze'
p4057
I1591
sS'next.they'
p4058
I2992
sS'ah'
p4059
I2782
sS'andunderwent'
p4060
I2834
sS'shadowsremain'
p4061
I3992
sS'itsbridge'
p4062
I2279
sS'sausages'
p4063
I3298
sS'nodegradation'
p4064
I4647
sS'general'
p4065
I3605
sS'volunteer'
p4066
I4779
sS'homes'
p4067
I1800
sS'holiday'
p4068
I4074
sS'cow'
p4069
I4549
sS'plain'
p4070
I2369
sS'value'
p4071
I2944
sS'almost'
p4072
I1828
sS'helped'
p4073
I3876
sS'partner'
p4074
I1107
sS'hecould'
p4075
I1681
sS')'
I1075
sS'ofsmoking'
p4076
I5605
sS'petrifaction'
p4077
I3285
sS'greatastonishment'
p4078
I1400
sS'tumbling'
p4079
I3475
sS'toshow'
p4080
I3741
sS'thefootstool'
p4081
I5567
sS'flew'
p4082
I1438
sS'sisters'
p4083
I4110
sS'judgment'
p4084
I4982
sS'theylaughed'
p4085
I4414
sS'herand'
p4086
I3115
sS'thought'
p4087
I447
sS'exceedingly'
p4088
I1805
sS'sittingbehind'
p4089
I2621
sS'hadbeen'
p4090
I4978
sS'usual'
p4091
I876
sS'thedreadful'
p4092
I4216
sS'domestic'
p4093
I2814
sS'tight'
p4094
I1605
sS'onward'
p4095
I4717
sS'add'
p4096
I2861
sS'heartiness'
p4097
I4044
sS'ought'
p4098
I3253
sS'resolved'
p4099
I2023
sS'displaced'
p4100
I2896
sS'like'
p4101
I424
sS'success'
p4102
I3949
sS'sofa'
p4103
I1299
sS'admitted'
p4104
I1031
sS'himor'
p4105
I2821
sS'heed'
p4106
I2207
sS'storm-birds'
p4107
I4235
sS'works'
p4108
I1976
sS'soft'
p4109
I2167
sS'alive'
p4110
I2629
sS'hair'
p4111
I1188
sS'hearthswept'
p4112
I3959
sS'mybusiness'
p4113
I1772
sS'chains'
p4114
I4898
sS'theseyoung'
p4115
I5560
sS'andchuckled'
p4116
I5500
sS'noise'
p4117
I1423
sS'slight'
p4118
I779
sS'andpresented'
p4119
I2031
sS'although'
p4120
I436
sS'worthy'
p4121
I2787
sS'snapped'
p4122
I5488
sS'noisy'
p4123
I5224
sS'about'
p4124
I23
sS'wasrestored'
p4125
I3180
sS'withdrew'
p4126
I869
sS'blessings'
p4127
I4135
sS'guard'
p4128
I3869
sS'always.here'
p4129
I4354
sS'again.the'
p4130
I1452
sS'wheresoever'
p4131
I4167
sS'custard'
p4132
I3969
sS'demeanour'
p4133
I3359
sS'outline'
p4134
I2158
sS'theirown'
p4135
I4340
sS'inasmuch'
p4136
I4566
sS'buy'
p4137
I826
sS'repeater'
p4138
I1979
sS'daughter.the'
p4139
I2999
sS'preparations'
p4140
I4105
sS'repeated'
p4141
I591
sS'lookingintently'
p4142
I4616
sS'wise'
p4143
I1797
sS'burial-place'
p4144
I4164
sS'glory'
p4145
I3469
sS'wish'
p4146
I799
sS'andyet'
p4147
I3039
sS'twelve.scrooge'
p4148
I4685
sS'minutes'
p4149
I3236
sS'rakedthe'
p4150
I4955
sS'inspite'
p4151
I4481
sS'knewwhere'
p4152
I4471
sS'pig'
p4153
I4552
sS'startingoff'
p4154
I5417
sS'dressed'
p4155
I3717
sS'wantwith'
p4156
I1503
sS'bundle'
p4157
I4930
sS'bonneted'
p4158
I2193
sS'andfrom'
p4159
I1968
sS'stirred'
p4160
I982
sS'starting'
p4161
I2074
sS'baker'
p4162
I2706
sS'ormarley'
p4163
I3287
sS'hats'
p4164
I741
sS'sleet'
p4165
I310
sS'sleep'
p4166
I2046
sS'appetite'
p4167
I4032
sS'evermore'
p4168
I2676
sS'assembled'
p4169
I4189
sS'poorly'
p4170
I2352
sS'founder'
p4171
I4026
sS'towardsthe'
p4172
I2225
sS'under'
p4173
I813
sS'pride'
p4174
I3676
sS'merchant'
p4175
I1243
sS'boots.her'
p4176
I5019
sS'rise'
p4177
I2210
sS'every'
p4178
I432
sS'softened'
p4179
I4444
sS'school'
p4180
I2315
sS'parrot'
p4181
I2450
sS'guiding'
p4182
I2967
sS'glued'
p4183
I3097
sS'yedown'
p4184
I3782
sS'parted'
p4185
I2311
sS'infancy'
p4186
I1213
sS'street'
p4187
I325
sS'parapets'
p4188
I3456
sS'knowwhat'
p4189
I5537
sS'shining'
p4190
I3483
sS'blue'
p4191
I262
sS'hide'
p4192
I2714
sS'solemn'
p4193
I4281
sS'beaten'
p4194
I2005
sS'fatness'
p4195
I3484
sS'conduct'
p4196
I887
sS'hundreds'
p4197
I789
sS'resounded'
p4198
I1239
sS'humility'
p4199
I1719
sS'represented'
p4200
I761
sS'path'
p4201
I5523
sS'leaves'
p4202
I2587
sS'changed'
p4203
I1446
sS'entreating'
p4204
I3523
sS'punishment'
p4205
I3038
sS'residencein'
p4206
I1148
sS'ventured'
p4207
I1854
sS'flour.everybody'
p4208
I3955
sS'visible'
p4209
I2134
sS'isuppose'
p4210
I1057
sS'would'
p4211
I167
sS'thatshone'
p4212
I2894
sS'hospital'
p4213
I4591
sS'grief'
p4214
I1787
sS'excellent'
p4215
I132
sS'must'
p4216
I149
sS'me'
p4217
I97
sS'tremendously'
p4218
I4059
sS'laundress'
p4219
I3933
sS'mr'
p4220
I753
sS'my'
p4221
I60
sS'shook'
p4222
I770
sS'door-nail.scrooge'
p4223
I102
sS'advancedtowards'
p4224
I4187
sS'overheard'
p4225
I723
sS'times'
p4226
I1082
sS'attract'
p4227
I1368
sS'ofthe'
p4228
I1292
sS'end'
p4229
I1078
sS'sitting'
p4230
I2997
sS'rhinoceros'
p4231
I3225
sS'momentaryidea'
p4232
I5596
sS'water-spout'
p4233
I2390
sS'gate'
p4234
I2275
sS'mouths'
p4235
I3501
sS'sparkled'
p4236
I516
sS'eating-house'
p4237
I3930
sS'poked'
p4238
I649
sS'withtheir'
p4239
I740
sS'stronghold'
p4240
I960
sS'splendid'
p4241
I948
sS'him.yes'
p4242
I5458
sS'upside'
p4243
I2431
sS'enter'
p4244
I3265
sS'roused'
p4245
I4855
sS'oysters'
p4246
I3302
sS'friars'
p4247
I3486
sS'over'
p4248
I313
sS'itshould'
p4249
I4983
sS'london'
p4250
I1152
sS'oven'
p4251
I1581
sS'nogreat-coat'
p4252
I1074
sS'clapped'
p4253
I2530
sS'beside'
p4254
I1811
sS'writing'
p4255
I4671
sS'glanced'
p4256
I1671
sS'nightcap'
p4257
I1329
sS'plaster'
p4258
I2492
sS'togive'
p4259
I4130
sS'handle.these'
p4260
I3971
sS'shadows'
p4261
I2298
sS'gloom'
p4262
I1279
sS'heeded'
p4263
I5617
sS'potatoes'
p4264
I3730
sS'shadowy'
p4265
I2602
sS'each'
p4266
I1374
sS'pelt'
p4267
I1088
sS'juggling'
p4268
I3549
sS'ghosts'
p4269
I1432
sS'andwas'
p4270
I4001
sS'driving'
p4271
I1259
sS'frying-pan'
p4272
I3092
sS'god'
p4273
I493
sS'jackrobinson'
p4274
I2652
sS'be.not'
p4275
I2381
sS'laid'
p4276
I2630
sS'maynot'
p4277
I1810
sS'heavenly'
p4278
I5440
sS'got'
p4279
I1265
sS'alittle'
p4280
I2486
sS'thatthe'
p4281
I3255
sS'thetank.his'
p4282
I5582
sS'free'
p4283
I1905
sS'fred'
p4284
I4319
sS'evil'
p4285
I368
sS'wanted'
p4286
I4974
sS'days'
p4287
I389
sS'crusoe'
p4288
I2456
sS'spiritpaused'
p4289
I4729
sS'key'
p4290
I1165
sS'rang'
p4291
I1410
sS'already'
p4292
I416
sS'officious'
p4293
I3779
sS'rank'
p4294
I4174
sS'hearing'
p4295
I1732
sS'lovable'
p4296
I2699
sS'cross-roads'
p4297
I2312
sS'awoke'
p4298
I1952
sS'sharpest'
p4299
I4516
sS'same.so'
p4300
I5570
sS'thelustiest'
p4301
I5430
sS'top'
p4302
I2454
sS'andyour'
p4303
I3767
sS'kinder'
p4304
I2521
sS'too'
p4305
I1254
sS'fixedly'
p4306
I1203
sS'asecond'
p4307
I1587
sS'curtains'
p4308
I2067
sS'ceiling'
p4309
I2493
sS'serve'
p4310
I2433
sS'took'
p4311
I1090
sS'stopped.not'
p4312
I1872
sS'brushed'
p4313
I3793
sS'knowof'
p4314
I616
sS'mirth'
p4315
I4145
sS'countess'
p4316
I4076
sS'ran'
p4317
I880
sS'pass'
p4318
I1748
sS'agility'
p4319
I2665
sS'spade'
p4320
I4451
sS'ray'
p4321
I4242
sS'asmarley'
p4322
I1182
sS'her.a'
p4323
I2540
sS'thoroughly'
p4324
I4412
sS'snow'
p4325
I297
sS'laughed'
p4326
I2297
sS"christmas'on"
p4327
I577
sS'reversed'
p4328
I5374
sS'heregarded'
p4329
I3947
sS'sugar-tongs'
p4330
I5018
sS'milkman'
p4331
I2709
sS'glimpses'
p4332
I3540
sS'plenty'
p4333
I792
sS'coil'
p4334
I1666
sS'the'
p4335
I30
sS'parting'
p4336
I4095
sS'glow'
p4337
I513
sS'likean'
p4338
I2084
sS'carolin'
p4339
I2
sS'whomsoever'
p4340
I4827
sS'withchristmas'
p4341
I3065
sS'sage'
p4342
I3752
sS'endsof'
p4343
I1067
sS'objectsin'
p4344
I1176
sS'earth'
p4345
I1626
sS'beingall'
p4346
I1125
sS'spite'
p4347
I1199
sS'theample'
p4348
I3348
sS'disgust'
p4349
I5070
sS'easterly'
p4350
I174
sS'mixture'
p4351
I3840
sS'lookedout.the'
p4352
I1893
sS'shutting'
p4353
I1025
sS"'poor"
p4354
I2459
sS'bloodto'
p4355
I5438
sS'twice'
p4356
I2781
sS'asimilar'
p4357
I4560
sS'couldscarcely'
p4358
I1953
sS'timefor'
p4359
I554
sS'pummel'
p4360
I3081
sS'habit'
p4361
I1548
sS'laughedheartily'
p4362
I3018
sS'combustion'
p4363
I3247
sS'capacity'
p4364
I3208
sS'face.'
p4365
I1618
sS'postboy'
p4366
I2570
sS'mud'
p4367
I3427
sS'finger'
p4368
I4797
sS'approach'
p4369
I1868
sS'conductwas'
p4370
I4486
sS'weak'
p4371
I196
sS'however'
p4372
I3249
sS'toscrooge'
p4373
I1908
sS'wear'
p4374
I1611
sS'news'
p4375
I5184
sS'improve'
p4376
I2925
sS'games'
p4377
I5573
sS'mildly'
p4378
I2250
sS'faces'
p4379
I941
sS'robincrusoe'
p4380
I2460
sS'towels'
p4381
I5013
sS'trust'
p4382
I5156
sS'comical'
p4383
I4337
sS'conference'
p4384
I3184
sS'beef'
p4385
I1539
sS'thetable'
p4386
I1848
sS'been'
p4387
I69
sS'quickly'
p4388
I499
sS'beer'
p4389
I2761
sS'expected'
p4390
I1227
sS'explanation.the'
p4391
I4795
sS'notstay'
p4392
I5306
sS'toconsider'
p4393
I4820
sS'hemight'
p4394
I4445
sS'glided'
p4395
I4796
sS'uncommon'
p4396
I2105
sS'catch'
p4397
I4424
sS'reddening'
p4398
I4029
sS'strangest'
p4399
I2129
sS'cracked'
p4400
I2491
sS'achild'
p4401
I2092
sS'decanter'
p4402
I2559
sS'wound'
p4403
I1464
sS'forehead'
p4404
I4431
sS'several'
p4405
I1389
sS'lusty'
p4406
I1005
sS'welsh'
p4407
I2619
sS'insisted'
p4408
I2865
sS'darned'
p4409
I3792
sS'hearth'
p4410
I3286
sS'ocean'
p4411
I1782
sS'hearty'
p4412
I3701
sS'greatest'
p4413
I3948
sS'detained'
p4414
I5368
sS'mother'
p4415
I3016
sS'hearts'
p4416
I623
sS'assembling'
p4417
I4117
sS'departed'
p4418
I4527
sS'theirseveral'
p4419
I4264
sS'keepyour'
p4420
I657
sS'tolerably'
p4421
I3214
sS'collars'
p4422
I3760
sS'adreadful'
p4423
I2546
sS'humanity'
p4424
I4649
sS'gave'
p4425
I964
sS'descending'
p4426
I1358
sS'burnt'
p4427
I2839
sS'advanced'
p4428
I4760
sS'apart'
p4429
I605
sS'appearing'
p4430
I3772
sS'deafened'
p4431
I4212
sS'zeal'
p4432
I3780
sS'indoors'
p4433
I1612
sS'offices'
p4434
I423
sS'hung'
p4435
I1131
sS'bedismal'
p4436
I529
sS'proudly'
p4437
I3937
sS'ourservice'
p4438
I2855
sS'sponge'
p4439
I5365
sS'torch.and'
p4440
I3636
sS'escape'
p4441
I4485
sS'doorstep'
p4442
I1920
sS'himalong.they'
p4443
I4746
sS'toknow'
p4444
I353
sS'ear'
p4445
I2058
sS'companions'
p4446
I4391
sS'yourcheek'
p4447
I2263
sS'ice'
p4448
I933
sS'room.after'
p4449
I1388
sS'everything'
p4450
I446
sS'icy'
p4451
I3428
sS'quitea'
p4452
I5426
sS'christmas'
p4453
I1
sS'core'
p4454
I3238
sS'brawn'
p4455
I3294
sS'ownsenses'
p4456
I1530
sS'lamps'
p4457
I2868
sS'man.scrooge'
p4458
I5103
sS'tostop'
p4459
I1041
sS'tomingle'
p4460
I3020
sS'dinner'
p4461
I1092
sS'antique'
p4462
I3361
sS'froze'
p4463
I249
sS'ifcalico'
p4464
I5060
sS'presence'
p4465
I4714
sS'forbalancing'
p4466
I560
sS'accommodate'
p4467
I3692
sS'abed'
p4468
I4072
sS"_that's_something"
p4469
I4409
sS'stuck'
p4470
I3944
sS'fought'
p4471
I1500
sS'clappingher'
p4472
I2512
sS'gin'
p4473
I3842
sS"scrooge'sniece"
p4474
I4315
sS'head'
p4475
I269
sS'wentto'
p4476
I3110
sS'heat'
p4477
I285
sS'uncle'
p4478
I492
sS'admiration'
p4479
I3901
sS'flavour'
p4480
I3658
sS"o'clock."
p4481
I5586
sS'bargain'
p4482
I957
sS'ruined'
p4483
I5186
sS'prematurely'
p4484
I3808
sS'bide'
p4485
I4681
sS'impropriety'
p4486
I648
sS'dozenghosts'
p4487
I3241
sS'weresupposed.hallo'
p4488
I3925
sS'willingly'
p4489
I2580
sS'looked'
p4490
I468
sS'no'
p4491
I20
sS'when'
p4492
I331
sS'whereat'
p4493
I4374
sS'oneconsent'
p4494
I621
sS'tim'
p4495
I3768
sS'luscious'
p4496
I3309
sS'rapidity'
p4497
I2468
sS'papers'
p4498
I743
sS'vanished'
p4499
I2242
sS'reeked'
p4500
I4880
sS'eternity'
p4501
I1749
sS'picture'
p4502
I1381
sS'miscellaneous'
p4503
I4921
sS'flushed'
p4504
I3059
sS'purpose.but'
p4505
I2745
sS'younger'
p4506
I2404
sS'to-day'
p4507
I2958
sS'butsubstituted'
p4508
I1510
sS"seven-years'-dead"
p4509
I1162
sS'longed'
p4510
I5111
sS'serious'
p4511
I5531
sS'undoubted'
p4512
I141
sS'fieryred'
p4513
I4177
sS'coach'
p4514
I1260
sS'remarkable'
p4515
I169
sS'rod'
p4516
I1372
sS'passage'
p4517
I2402
sS'charge'
p4518
I1584
sS'furrows'
p4519
I3415
sS'wonderfullyreal'
p4520
I2407
sS'waggish'
p4521
I1554
sS'thawed'
p4522
I3432
sS'havebeen'
p4523
I1737
sS'cook'
p4524
I2707
sS'clouds'
p4525
I903
sS'free-will'
p4526
I1658
sS'posts'
p4527
I3870
sS'brother'
p4528
I2424
sS'spiritsthe'
p4529
I4695
sS'quick'
p4530
I2872
sS'red-faced'
p4531
I4768
sS'slower'
p4532
I5238
sS'boldyoung'
p4533
I3036
sS'beseeching'
p4534
I3524
sS'spectral'
p4535
I4739
sS'stately'
p4536
I4711
sS'contracted'
p4537
I4720
sS'goes'
p4538
I575
sS'reply'
p4539
I4565
sS'bearers'
p4540
I3633
sS'water'
p4541
I1780
sS'['
I539
sS'bygone'
p4542
I4270
sS'boast'
p4543
I311
sS'guilty'
p4544
I1902
sS'descended'
p4545
I3435
sS'cinnamon'
p4546
I3561
sS'('
I1072
sS'undergonea'
p4547
I3267
sS'humour'
p4548
I706
sS'besought'
p4549
I5308
sS'theraisins'
p4550
I3555
sS'asthat'
p4551
I3284
sS'swallowed'
p4552
I1373
sS'twoubiquitous'
p4553
I3844
sS'andi'
p4554
I4031
sS'verygreat'
p4555
I4508
sS'stated'
p4556
I5020
sS'anda'
p4557
I3931
sS'thebandage'
p4558
I1853
sS'upheld'
p4559
I2233
sS'memory'
p4560
I2974
sS'dismay'
p4561
I1016
sS'altar'
p4562
I5119
sS'dismal'
p4563
I457
sS'buttoning'
p4564
I1055
sS'_am_'
p4565
I5588
sS'everythingwas'
p4566
I3583
sS'laughter'
p4567
I4308
sS'slightest'
p4568
I5108
sS'streak'
p4569
I4176
sS'theparrot'
p4570
I2462
sS'corrupted'
p4571
I4907
sS'figure'
p4572
I2082
sS'whatthen'
p4573
I2922
sS'expectant'
p4574
I1033
sS'stroke'
p4575
I1841
sS'dropped'
p4576
I1615
sS'counting'
p4577
I2061
sS'whocried'
p4578
I1914
sS'secured'
p4579
I1325
sS'innumerable'
p4580
I3623
sS'everpresent'
p4581
I5217
sS'thewiser'
p4582
I4967
sS'keepsake'
p4583
I3047
sS'ugly.alleys'
p4584
I4872
sS'itsundergoing'
p4585
I1168
sS'informs'
p4586
I5298
sS'dip.up'
p4587
I1284
sS'rightto'
p4588
I4372
sS'succeeded'
p4589
I3880
sS'hisarms'
p4590
I3809
sS'chimney-corner'
p4591
I3989
sS'branched'
p4592
I3422
sS'glancing'
p4593
I2349
sS'beggarsimplored'
p4594
I334
sS'themysteries'
p4595
I4651
sS'exclusive'
p4596
I3788
sS'ipromised'
p4597
I5251
sS'furnished'
p4598
I2353
sS'howthe'
p4599
I4136
sS'ofcheerfulness'
p4600
I3447
sS'spur'
p4601
I535
sS'abouther'
p4602
I4331
sS'glowing'
p4603
I3322
sS'loophole'
p4604
I4241
sS'happened'
p4605
I691
sS'cains'
p4606
I1350
sS'lonely'
p4607
I2373
sS'appraised'
p4608
I5004
sS'conversations'
p4609
I4815
sS'delighted'
p4610
I4279
sS'underneath'
p4611
I5328
sS'warranted'
p4612
I4519
sS'obscene'
p4613
I5072
sS'feathered'
p4614
I3852
sS'uponhis'
p4615
I2232
sS'term'
p4616
I2789
sS'name'
p4617
I202
sS'corners'
p4618
I3731
sS'withwonderful'
p4619
I2664
sS'individually'
p4620
I2819
sS'hishead'
p4621
I1305
sS'menagerie'
p4622
I4545
sS'pillaged'
p4623
I3022
sS'torch'
p4624
I3323
sS'catching'
p4625
I2265
sS'begun'
p4626
I1419
sS'tumultuous'
p4627
I3000
sS'answerhe'
p4628
I4722
sS'intercourse'
p4629
I5629
sS'profit'
p4630
I3385
sS'spiritsawaking'
p4631
I3174
sS'cameafter'
p4632
I2763
sS'agonised'
p4633
I5163
sS'gush'
p4634
I3885
sS'simile'
p4635
I84
sS'attended'
p4636
I3064
sS'bolts'
p4637
I1936
sS'state'
p4638
I2035
sS'dispatched'
p4639
I3186
sS'passedand'
p4640
I2604
sS'theway'
p4641
I4462
sS'thatfavour'
p4642
I5536
sS'blood-thirsty'
p4643
I980
sS'motion'
p4644
I2887
sS'turn'
p4645
I3875
sS'theirhands'
p4646
I744
sS'swing'
p4647
I1405
sS'forbearthat'
p4648
I4004
sS'coming'
p4649
I355
sS'credentials.it'
p4650
I764
sS'array'
p4651
I5559
sS'millions'
p4652
I4014
sS'disinterested'
p4653
I4782
sS'clanking'
p4654
I1422
sS'given'
p4655
I2480
sS'ofbroken'
p4656
I2329
sS'weresteeped'
p4657
I3912
sS'speckledcannon-ball'
p4658
I3938
sS'much.now'
p4659
I3227
sS'white'
p4660
I1068
sS'suchweather'
p4661
I998
sS'hug'
p4662
I3079
sS'season'
p4663
I716
sS'hut'
p4664
I4185
sS'released'
p4665
I2029
sS'inexpressibly'
p4666
I1883
sS'alas'
p4667
I3796
sS'girded'
p4668
I1657
sS'copy'
p4669
I1385
sS'population'
p4670
I855
sS'wide'
p4671
I1191
sS'turningout'
p4672
I183
sS'and'
p4673
I34
sS'veryglad'
p4674
I812
sS'hisarrival'
p4675
I5484
sS'medium'
p4676
I2087
sS'exchanging'
p4677
I3458
sS'any'
p4678
I178
sS'dining'
p4679
I3669
sS'unavailing'
p4680
I1786
sS'thermometer'
p4681
I2216
sS'theyshould'
p4682
I5624
sS'blunt'
p4683
I4522
sS'expectingcompany'
p4684
I4132
sS'sure'
p4685
I521
sS'cleared'
p4686
I2670
sS'bewarded'
p4687
I3344
sS'later'
p4688
I2880
sS'hungry'
p4689
I1011
sS"'heartilysorry"
p4690
I5276
sS'hear'
p4691
I399
sS'quantity'
p4692
I1729
sS'hustled'
p4693
I3810
sS'heavyroll'
p4694
I5036
sS'inshort'
p4695
I3049
sS'cheap'
p4696
I1287
sS'isnothing'
p4697
I2905
sS'dirge'
p4698
I1888
sS'toraise'
p4699
I5594
sS'whichthe'
p4700
I3922
sS'whenceit'
p4701
I3399
sS'genius'
p4702
I1135
sS'anddreary'
p4703
I1122
sS'crime'
p4704
I4881
sS'wood'
p4705
I2414
sS'werein'
p4706
I2291
sS'dreaded'
p4707
I3985
sS'oflight'
p4708
I4151
sS'lighted'
p4709
I916
sS'butsatisfactory'
p4710
I4335
sS'uncles'
p4711
I4112
sS'expectation'
p4712
I1673
sS'tailor'
p4713
I972
sS'andall'
p4714
I2608
sS'itsbright'
p4715
I4143
sS'basketswildly'
p4716
I3592
sS'naked'
p4717
I2494
sS'jokes'
p4718
I1550
sS'predicted'
p4719
I476
sS'good-humouredfellows'
p4720
I5514
sS'lookedabout'
p4721
I2246
sS'afaltering'
p4722
I1829
sS'encouraged'
p4723
I4416
sS'yourone'
p4724
I2966
sS'farmers'
p4725
I2290
sS'ways'
p4726
I4868
sS'inbutter-boats'
p4727
I1366
sS'spoons'
p4728
I3872
sS'outside'
p4729
I2408
sS'shivered'
p4730
I1814
sS'andround'
p4731
I2728
sS'withsome'
p4732
I5287
sS'butthe'
p4733
I2128
sS'itsshadowy'
p4734
I1651
sS'come'
p4735
I154
sS'givesis'
p4736
I2863
sS"there's_such_"
p4737
I3774
sS'adjoiningroom'
p4738
I3257
sS'contract'
p4739
I2923
sS'up-stairs'
p4740
I5256
sS'havepain'
p4741
I2975
sS'utterance'
p4742
I2869
sS'afterwards'
p4743
I906
sS'bricks'
p4744
I4913
sS'pot'
p4745
I2742
sS'period'
p4746
I2194
sS'satisfaction'
p4747
I4345
sS'ifsuch'
p4748
I5190
sS'misthad'
p4749
I2241
sS'turkey'
p4750
I3096
sS'theirplaces'
p4751
I2656
sS'hardly'
p4752
I4727
sS'vastquantity'
p4753
I4763
sS'direction'
p4754
I4479
sS'thanhe'
p4755
I295
sS'blessing'
p4756
I4596
sS'tiger'
p4757
I4551
sS'thepavement'
p4758
I3655
sS'thefinger'
p4759
I5351
sS'spirit'
p4760
I996
sS'paying'
p4761
I550
sS'myself'
p4762
I71
sS'broad-girthed'
p4763
I3480
sS'thetotal-abstinence'
p4764
I5630
sS'jostled'
p4765
I3639
sS'cask'
p4766
I1241
sS'cast'
p4767
I4022
sS'shops'
p4768
I935
sS'slippers'
p4769
I1328
sS'pleasantest-spoken'
p4770
I5269
sS'threethe'
p4771
I3173
sS'couples'
p4772
I2735
sS'candied'
p4773
I3563
sS'scrooge.his'
p4774
I709
sS'reminded'
p4775
I4440
sS'dining-room'
p4776
I5554
sS'andstagnant-blooded'
p4777
I3532
sS'agitated'
p4778
I1579
sS'theoranges'
p4779
I3518
sS'parlours'
p4780
I4102
sS'week'
p4781
I727
sS'even-handed'
p4782
I2903
sS'nothingbetween'
p4783
I3224
sS'driven'
p4784
I2289
sS'lamentation'
p4785
I1880
sS'delicate'
p4786
I2590
sS'anyeffort'
p4787
I3149
sS'suchanother'
p4788
I3117
sS'foggy'
p4789
I397
sS'hiseye'
p4790
I455
sS'handson'
p4791
I4985
sS'rememberhim.it'
p4792
I4280
sS'without'
p4793
I552
sS'relief'
p4794
I2009
sS'ofignited'
p4795
I3941
sS'vapourfrom'
p4796
I1580
sS'before.he'
p4797
I5321
sS'bareness'
p4798
I2358
sS'violent'
p4799
I3232
sS'announcement'
p4800
I3090
sS'blot'
p4801
I1540
sS'hint'
p4802
I3957
sS'rose'
p4803
I2224
sS'except'
p4804
I1142
sS'setting'
p4805
I3517
sS'furniture'
p4806
I5320
sS'snore'
p4807
I3177
sS'sternly'
p4808
I588
sS'soshe'
p4809
I3807
sS'tower'
p4810
I889
sS'shillings'
p4811
I726
sS'loosely'
p4812
I3339
sS'onsaturdays'
p4813
I3713
sS"scrooge'snephew"
p4814
I4310
sS'respect'
p4815
I315
sS'thedining-room'
p4816
I5557
sS'provided'
p4817
I1572
sS'mood'
p4818
I4524
sS'freer'
p4819
I2401
sS'highest'
p4820
I1399
sS'defenceless'
p4821
I3071
sS'theoutset'
p4822
I1408
sS'moor'
p4823
I4161
sS'compulsion'
p4824
I3379
sS'porter'
p4825
I2743
sS'groups.scrooge'
p4826
I4794
sS'nails'
p4827
I4897
sS'boisterous'
p4828
I3060
sS'ofbusiness'
p4829
I5305
sS'terrified'
p4830
I1228
sS'_'
I541
sS'on'
p4831
I135
sS'oh'
p4832
I806
sS'of'
p4833
I6
sS'whence'
p4834
I3258
sS'stand'
p4835
I4728
sS'doze'
p4836
I2054
sS'washing-day'
p4837
I3928
sS'or'
p4838
I91
sS'ladies'
p4839
I4349
sS'kinderword'
p4840
I4274
sS'change.scrooge'
p4841
I5317
sS'furrowsthat'
p4842
I3418
sS'iwish'
p4843
I4030
sS'theroses'
p4844
I4379
sS'rising'
p4845
I5097
sS'strictly'
p4846
I4804
sS'there'
p4847
I18
sS'disposed'
p4848
I5007
sS'twotumblers'
p4849
I3968
sS'energy'
p4850
I1019
sS'jug'
p4851
I3841
sS'ghostlyforehead'
p4852
I1187
sS'heviewed'
p4853
I5068
sS'regard'
p4854
I72
sS'amongst'
p4855
I4749
sS"fellow-'prentice"
p4856
I2645
sS'longer'
p4857
I3147
sS'onmaster'
p4858
I2544
sS'tiptoe'
p4859
I2531
sS'yondersolitary'
p4860
I2420
sS'dressing-gown'
p4861
I1309
sS'grass'
p4862
I2344
sS'hislife'
p4863
I3123
sS'britain'
p4864
I3440
sS'encompass'
p4865
I4748
sS'bishop'
p4866
I5606
sS'anaffront'
p4867
I4476
sS'abyss'
p4868
I4284
sS'fiddler'
p4869
I2686
sS'rubbed'
p4870
I2632
sS'idiot'
p4871
I574
sS'dismayed'
p4872
I1802
sS'briefly'
p4873
I2599
sS'winking'
p4874
I923
sS'separate'
p4875
I4709
sS'theselatter'
p4876
I5302
sS'despoil'
p4877
I3076
sS'recognise'
p4878
I4289
sS'included'
p4879
I5535
sS'thoughsome'
p4880
I4563
sS'backward'
p4881
I1862
sS'thankedthem'
p4882
I4580
sS'wife'
p4883
I728
sS'odds'
p4884
I4964
sS'apparel'
p4885
I5015
sS'transports'
p4886
I5428
sS'childish'
p4887
I2536
sS'theybroke'
p4888
I2701
sS'all'
p4889
I219
sS'lace'
p4890
I4377
sS'ali'
p4891
I2415
sS'tarry'
p4892
I4206
sS'seals'
p4893
I4757
sS'ladders'
p4894
I3074
sS'attitudeagainst'
p4895
I1312
sS'unmoved'
p4896
I5157
sS'dish'
p4897
I3908
sS'follow'
p4898
I2972
sS'meditation'
p4899
I1137
sS'weshall'
p4900
I5293
sS'glimpse'
p4901
I1942
sS'wanton'
p4902
I3488
sS'snow-storms.the'
p4903
I3405
sS'homage'
p4904
I705
sS'sparkling'
p4905
I3356
sS'half-a-quartern'
p4906
I3940
sS'init'
p4907
I2098
sS'squeeze'
p4908
I3167
sS'walk-er'
p4909
I5461
sS'oldfezziwig'
p4910
I2650
sS'belonging'
p4911
I610
sS'woman'
p4912
I340
sS'worse'
p4913
I4680
sS'song'
p4914
I4081
sS'far'
p4915
I1636
sS'facetious'
p4916
I874
sS'fat'
p4917
I2638
sS'sistershollow'
p4918
I4509
sS'fan'
p4919
I2516
sS'awful'
p4920
I1571
sS'gainsay'
p4921
I2594
sS'list'
p4922
I748
sS'singularly'
p4923
I2169
sS'manslaughter'
p4924
I3212
sS'rats'
p4925
I5149
sS'ten'
p4926
I3235
sS'tea'
p4927
I3552
sS'rate'
p4928
I4415
sS'what'
p4929
I63
sS'backto'
p4930
I3594
sS'sun'
p4931
I1989
sS'rascal'
p4932
I4915
sS'brief'
p4933
I2976
sS'faltered'
p4934
I1767
sS'fathoms'
p4935
I1678
sS'beengreater'
p4936
I5071
sS'multitude'
p4937
I821
sS'powerfulspeaker'
p4938
I660
sS'condensed'
p4939
I4601
sS'christian'
p4940
I817
sS'peoplehurrying'
p4941
I5542
sS'ifnight'
p4942
I2004
sS'therest'
p4943
I1594
sS'observing'
p4944
I1477
sS'ofgratitude.'
p4945
I2842
sS'extremes'
p4946
I3213
sS'sticking'
p4947
I1231
sS'suddenly'
p4948
I929
sS'solitude'
p4949
I927
sS'cork-screw'
p4950
I2806
sS'snug'
p4951
I4503
sS'myfate'
p4952
I1824
sS'faint'
p4953
I3570
sS"that'sthe"
p4954
I5022
sS'deadest'
p4955
I74
sS'hurrah'
p4956
I3773
sS'horses'
p4957
I885
sS'wretched'
p4958
I1918
sS'knows'
p4959
I3252
sS'terror'
p4960
I1022
sS'keyhole'
p4961
I434
sS'thenoise'
p4962
I1440
sS'known'
p4963
I1907
sS'glad'
p4964
I2435
sS'wrestled'
p4965
I3145
sS'aheavy'
p4966
I1427
sS'forbearance'
p4967
I1775
sS'embarrassing'
p4968
I1523
sS'joints'
p4969
I3295
sS'sticking-plaster'
p4970
I5508
sS'beencarried'
p4971
I2749
sS'cultivate'
p4972
I4299
sS'swung'
p4973
I1406
sS'hiscapacious'
p4974
I2634
sS'extinguisher'
p4975
I2141
sS'grey-haired'
p4976
I4914
sS'court'
p4977
I437
sS'rather'
p4978
I851
sS'exalted'
p4979
I3756
sS'rememberit'
p4980
I2273
sS'extinguished'
p4981
I650
sS'sleeveof'
p4982
I1996
sS'isever'
p4983
I4346
sS'cold.they'
p4984
I4862
sS'adventure'
p4985
I3209
sS'proclaimed'
p4986
I3240
sS'paidfor'
p4987
I5494
sS'profited'
p4988
I599
sS'dissolving'
p4989
I2156
sS'misanthropic'
p4990
I932
sS'toeverybody'
p4991
I5411
sS'tosuch'
p4992
I345
sS'artful'
p4993
I2765
sS'shore'
p4994
I4224
sS'shade'
p4995
I1508
sS'herface'
p4996
I5233
sS'essence'
p4997
I5297
sS'letout'
p4998
I3764
sS'trouble'
p4999
I1622
sS'last.so'
p5000
I707
sS'susceptible'
p5001
I1750
sS'walking.but'
p5002
I2780
sS'resort'
p5003
I4886
sS'strange'
p5004
I1401
sS'nephew.'
p5005
I587
sS'dwarfish'
p5006
I2172
sS'wouldunquestionably'
p5007
I3254
sS'filberts'
p5008
I3505
sS'might'
p5009
I67
sS'ityes'
p5010
I5382
sS'return'
p5011
I4579
sS'reappearance'
p5012
I2747
sS'inch'
p5013
I3046
sS'burninghigh'
p5014
I3151
sS'pleasanter'
p5015
I4390
sS'weight'
p5016
I1664
sS'colder'
p5017
I991
sS'likelydid'
p5018
I4088
sS'enteredfirst'
p5019
I4940
sS'expect'
p5020
I1834
sS'braided'
p5021
I3029
sS'juicypersons'
p5022
I3521
sS'anothergeneration'
p5023
I4191
sS'came.so'
p5024
I5572
sS'health'
p5025
I4034
sS'prodigiously'
p5026
I3175
sS'_has_'
p5027
I641
sS'roofs'
p5028
I3410
sS'friday'
p5029
I2463
sS'forgive'
p5030
I3673
sS'thisspirit'
p5031
I4699
sS'tenderest'
p5032
I2099
sS'tassels'
p5033
I1456
sS'teach'
p5034
I3384
sS'mostruthlessly'
p5035
I3024
sS'yourplace'
p5036
I2808
sS'consequence'
p5037
I4358
sS'counterin'
p5038
I2826
sS'ding'
p5039
I2059
sS'dine'
p5040
I668
sS'cornhill'
p5041
I1077
sS'feel'
p5042
I1551
sS'thefirst'
p5043
I4114
sS'feet'
p5044
I406
sS'sympathy'
p5045
I380
sS'school-boy'
p5046
I5409
sS'story'
p5047
I5
sS'breathless'
p5048
I5499
sS'temperature'
p5049
I276
sS'thecurtains'
p5050
I2071
sS'leading'
p5051
I2410
sS'shilling'
p5052
I5466
sS'passed'
p5053
I943
sS'appearedto'
p5054
I2795
sS'scarcely'
p5055
I815
sS'rustlings'
p5056
I4483
sS'convinced'
p5057
I161
sS'kind'
p5058
I612
sS'double'
p5059
I1935
sS'scabbard'
p5060
I3362
sS'ofold'
p5061
I1386
sS'cuff'
p5062
I2475
sS'dainties'
p5063
I2564
sS'suspicious'
p5064
I1311
sS'play.at'
p5065
I5175
sS'gale'
p5066
I4255
sS'alike'
p5067
I3104
sS'feltthat'
p5068
I1520
sS'world.this'
p5069
I2008
sS'hadrallied'
p5070
I3815
sS'moist'
p5071
I3574
sS'finding'
p5072
I555
sS'growthlike'
p5073
I3485
sS'buff'
p5074
I4459
sS'theneighbouring'
p5075
I422
sS'added'
p5076
I662
sS'aman'
p5077
I5135
sS'reach'
p5078
I4146
sS'possessedthe'
p5079
I5632
sS'dartingin'
p5080
I2508
sS'nothing'
p5081
I151
sS'neverdie'
p5082
I4766
sS'windows'
p5083
I421
sS'ornot'
p5084
I1624
sS'inluxurious'
p5085
I3751
sS'andthe'
p5086
I986
sS'stones'
p5087
I408
sS'journeys'
p5088
I635
sS'owncreation'
p5089
I1598
sS'fond'
p5090
I5051
sS'wepart'
p5091
I5290
sS'street-door'
p5092
I5481
sS'aworthy'
p5093
I5336
sS'his'
p5094
I26
sS'gains'
p5095
I5079
sS'darkness.there'
p5096
I4108
sS'revered'
p5097
I5127
sS'hid'
p5098
I3785
sS'ithink'
p5099
I4388
sS'coat-skirts'
p5100
I1460
sS'him'
p5101
I248
sS'foranything'
p5102
I5061
sS'allits'
p5103
I1785
sS'shufflings'
p5104
I3512
sS'relentless'
p5105
I2987
sS'repulsed'
p5106
I5370
sS'achieved'
p5107
I3950
sS'toassure'
p5108
I4491
sS'bare'
p5109
I2110
sS'are'
p5110
I329
sS'them.but'
p5111
I4825
sS'youhad'
p5112
I3372
sS'heaped'
p5113
I2680
sS'arm'
p5114
I1783
sS'learnt'
p5115
I3380
sS'surmounted'
p5116
I2326
sS'drooping'
p5117
I444
sS'various'
p5118
I2729
sS'supposed'
p5119
I4821
sS'roundbefore'
p5120
I5324
sS'attention'
p5121
I1558
sS'conductingitself'
p5122
I3009
sS'andtwisting'
p5123
I4312
sS'competent'
p5124
I4363
sS'everyrefuge'
p5125
I4593
sS'riddles'
p5126
I4839
sS'finda'
p5127
I5055
sS'became'
p5128
I899
sS'finds'
p5129
I4403
sS'andrigid'
p5130
I2879
sS'distress'
p5131
I5268
sS'sweet'
p5132
I5441
sS'sweep'
p5133
I2583
sS'showof'
p5134
I4544
sS'there.'
p5135
I5353
sS'steeples'
p5136
I3610
sS'due'
p5137
I607
sS'coldupon'
p5138
I2220
sS'whom'
p5139
I973
sS'brick'
p5140
I2324
sS'affectionate'
p5141
I2731
sS'sending'
p5142
I2565
sS'merriment'
p5143
I4418
sS'vaguely'
p5144
I1258
sS'ifhe'
p5145
I5577
sS'hardily'
p5146
I3219
sS'pleasantto'
p5147
I5528
sS'frozen'
p5148
I909
sS'compactness'
p5149
I3520
sS'blotch'
p5150
I3653
sS'ecstasy'
p5151
I2417
sS'chestnuts'
p5152
I3304
sS'shirt'
p5153
I3732
sS'by-streets'
p5154
I3619
sS'daughters'
p5155
I1353
sS'higher'
p5156
I2792
sS'andyou'
p5157
I2525
sS'holidays'
p5158
I4600
sS'arrived'
p5159
I1026
sS'nearlyseventy'
p5160
I4916
sS'andhaving'
p5161
I1094
sS'lower'
p5162
I1613
sS'personsmeeting'
p5163
I4798
sS'cratchits'
p5164
I3745
sS'cheek'
p5165
I255
sS'anybody'
p5166
I2175
sS'itshall'
p5167
I5589
sS'cheer'
p5168
I818
sS'edge'
p5169
I373
sS'forhe'
p5170
I3803
sS'endeavour'
p5171
I5602
sS'ofits'
p5172
I1201
sS'itsteeth'
p5173
I907
sS'particularinvestments'
p5174
I4063
sS'observant'
p5175
I2171
sS'speedily'
p5176
I4024
sS'trialin'
p5177
I704
sS'customers'
p5178
I3585
sS'shereturned'
p5179
I2933
sS'thethick'
p5180
I3426
sS'shaped'
p5181
I3471
sS'scrooge.once'
p5182
I387
sS'hinted'
p5183
I4341
sS'stair-rod'
p5184
I4956
sS'selfishness'
p5185
I3681
sS'andcontent'
p5186
I2924
sS'blithest'
p5187
I5517
sS'tolearn'
p5188
I5327
sS'market'
p5189
I4548
sS'tends'
p5190
I5085
sS'fragments'
p5191
I1384
sS'thenecessity'
p5192
I1522
sS'thelast'
p5193
I651
sS'meanthat'
p5194
I520
sS'contrasting'
p5195
I3408
sS'casks'
p5196
I1429
sS'thewater'
p5197
I4236
sS'frostthat'
p5198
I4169
sS'bristling'
p5199
I1458
sS'frightful'
p5200
I1601
sS'range'
p5201
I3207
sS'strength.its'
p5202
I2106
sS'hatred'
p5203
I3678
sS'theroad'
p5204
I3402
sS'artifice'
p5205
I3346
sS'sports'
p5206
I3021
sS'curtsy'
p5207
I2805
sS'andthere'
p5208
I2757
sS'question'
p5209
I1515
sS'fast'
p5210
I1727
sS'youdelight'
p5211
I2984
sS'files'
p5212
I4900
sS'mountains'
p5213
I4905
sS'plunge'
p5214
I3883
sS'cloth'
p5215
I3724
sS'oneinstant'
p5216
I2149
sS'shutters'
p5217
I2649
sS'gallantry'
p5218
I4991
sS'half-thawed'
p5219
I2389
sS'deference.'
p5220
I1720
sS"'merry"
p5221
I576
sS'called'
p5222
I1149
sS'thefamily'
p5223
I4047
sS'thepredicament'
p5224
I3251
sS'associated'
p5225
I2360
sS'roared'
p5226
I1004
sS'hewould'
p5227
I1003
sS'warning'
p5228
I378
sS"niece'ssister"
p5229
I4375
sS'peace'
p5230
I1723
sS'backs'
p5231
I2285
sS'grouped'
p5232
I5064
sS'income'
p5233
I4067
sS'christmaseve'
p5234
I391
sS'nice'
p5235
I5553
sS'forthem'
p5236
I4987
sS'blessedin'
p5237
I4297
sS'mustard'
p5238
I1541
sS'breasts'
p5239
I404
sS'helping'
p5240
I4988
sS'meaning'
p5241
I3368
sS'housekeepers'
p5242
I4368
sS'wrinkle'
p5243
I2097
sS'suffers'
p5244
I4352
sS'happier'
p5245
I4093
sS'strutted'
p5246
I2339
sS'weights'
p5247
I4901
sS'once'
p5248
I341
sS'toldthat'
p5249
I3179
sS'issued'
p5250
I3887
sS'furze'
p5251
I4172
sS'cratchit'
p5252
I3708
sS'adjustment'
p5253
I4302
sS'half-recumbent'
p5254
I2075
sS'breach'
p5255
I4994
sS'abode'
p5256
I1799
sS'wished'
p5257
I2820
sS'anddesks'
p5258
I2372
sS'spoon'
p5259
I1301
sS'door.it'
p5260
I2506
sS'abody'
p5261
I2155
sS'byhalf'
p5262
I3771
sS'disclaimed'
p5263
I2188
sS'tenderness'
p5264
I3897
sS'dealt'
p5265
I4910
sS'smaller'
p5266
I467
sS'folds'
p5267
I3349
sS'sensation'
p5268
I1211
sS'plead'
p5269
I2212
sS'greatheap'
p5270
I4740
sS'whathad'
p5271
I5263
sS'bredand'
p5272
I4904
sS'waiting'
p5273
I5483
sS'capital'
p5274
I4326
sS'youup-stairs'
p5275
I5555
sS'sprinklings'
p5276
I3710
sS'gaily'
p5277
I528
sS'degree'
p5278
I283
sS'sleep.stave'
p5279
I3172
sS'pushing'
p5280
I2723
sS'youngest'
p5281
I3911
sS'desired'
p5282
I5307
sS'compoundedsome'
p5283
I3839
sS'allthis'
p5284
I4079
sS'larger'
p5285
I2485
sS'knowledgeof'
p5286
I2191
sS'leaving'
p5287
I1023
sS'spices'
p5288
I3562
sS'bloomingpyramids'
p5289
I3494
sS'shovel'
p5290
I475
sS'apple'
p5291
I3861
sS'scales'
p5292
I3542
sS'forbid'
p5293
I2595
sS'itnevertheless'
p5294
I4574
sS'messengers'
p5295
I1357
sS'doubtfully'
p5296
I1514
sS'apply'
p5297
I1768
sS'fed'
p5298
I4781
sS'from'
p5299
I234
sS'iced'
p5300
I278
sS'few'
p5301
I822
sS'calledscrooge'
p5302
I214
sS'possession'
p5303
I2007
sS'parliament'
p5304
I666
sS'porch'
p5305
I4848
sS'inclined'
p5306
I70
sS'rarest'
p5307
I3849
sS'heir'
p5308
I3736
sS'infection'
p5309
I4303
sS'fire-guard'
p5310
I1313
sS'women'
p5311
I619
sS'laoco\xc3\xb6n'
p5312
I5404
sS'linger'
p5313
I1696
sS'dusted'
p5314
I3863
sS'him.oh'
p5315
I221
sS'chin'
p5316
I272
sS'tap'
p5317
I2572
sS'earnestness'
p5318
I2440
sS'flaring'
p5319
I420
sS'waspast'
p5320
I4823
sS'heaving'
p5321
I4257
sS'something'
p5322
I808
sS'onions'
p5323
I3482
sS'sir'
p5324
I661
sS'united'
p5325
I2014
sS'sit'
p5326
I1334
sS'six'
p5327
I1261
sS'parlour'
p5328
I3108
sS'unquestionably'
p5329
I2003
sS'instead'
p5330
I999
sS'struggled'
p5331
I5181
sS'sin'
p5332
I4990
sS'wasclearly'
p5333
I1574
sS'administrator'
p5334
I118
sS'anddecrease'
p5335
I853
sS'ofbrown-paper'
p5336
I3077
sS'therewere'
p5337
I3637
sS'worldlyhands'
p5338
I2181
sS'yes.there'
p5339
I2647
sS'light'
p5340
I418
sS'interrupted'
p5341
I4361
sS'supplication'
p5342
I2227
sS'scrooge.dear'
p5343
I5565
sS'breast'
p5344
I3342
sS'coolly'
p5345
I5045
sS'outset'
p5346
I5621
sS'keepits'
p5347
I381
sS'theundertaker'
p5348
I33
sS'looks'
p5349
I327
sS'quake'
p5350
I1804
sS'indignantly'
p5351
I573
sS'asthese'
p5352
I5622
sS'covered.'
p5353
I2179
sS'hecomes'
p5354
I5236
sS'namewas'
p5355
I39
sS'stayuntil'
p5356
I4525
sS'allplayed'
p5357
I4511
sS'glee'
p5358
I2519
sS'choose'
p5359
I831
sS'covered'
p5360
I3158
sS'bye'
p5361
I4789
sS'crowds'
p5362
I1792
sS'christmas-time'
p5363
I603
sS'havecalled'
p5364
I3120
sS'practice'
p5365
I5419
sS'oranges'
p5366
I3308
sS'successor'
p5367
I5206
sS'worlds'
p5368
I3663
sS'footstool'
p5369
I4502
sS'torelate'
p5370
I157
sS'feast'
p5371
I4028
sS'trimmed'
p5372
I2125
sS'bills'
p5373
I551
sS'outgenerous'
p5374
I240
sS'aninteresting'
p5375
I3245
sS'littlecreek'
p5376
I2464
sS'abrahams'
p5377
I1361
sS'our'
p5378
I81
sS'out'
p5379
I200
sS'tohim'
p5380
I3187
sS'sentiment'
p5381
I4562
sS'thesnow'
p5382
I2244
sS'attentively'
p5383
I3112
sS'dive'
p5384
I3075
sS'fortychildren'
p5385
I3006
sS'agoodly'
p5386
I3722
sS'turnedto'
p5387
I931
sS'repairing'
p5388
I914
sS'drewround'
p5389
I3963
sS'indoing'
p5390
I5296
sS'conversation'
p5391
I4811
sS'perish.there'
p5392
I2754
sS'biting'
p5393
I396
sS'hissinghot'
p5394
I3856
sS'hissenses'
p5395
I1501
sS'echo'
p5396
I2383
sS'glisten'
p5397
I2306
sS'unknown'
p5398
I4283
sS'their'
p5399
I357
sS'blessthose'
p5400
I4321
sS'doomed'
p5401
I1642
sS'misery.far'
p5402
I4883
sS'tacitly'
p5403
I1030
sS'dispelled.they'
p5404
I5398
sS'richer'
p5405
I559
sS'withher'
p5406
I2708
sS'lateness'
p5407
I1944
sS'verylittle'
p5408
I1997
sS'afraid'
p5409
I807
sS'theopposite'
p5410
I1525
sS'which'
p5411
I235
sS'divert'
p5412
I1588
sS'martha'
p5413
I3769
sS'vegetation'
p5414
I5333
sS'_i_'
p5415
I2955
sS'clash'
p5416
I5432
sS'centre'
p5417
I3058
sS'who'
p5418
I456
sS'cracking'
p5419
I1549
sS'hethen'
p5420
I2195
sS'why'
p5421
I678
sS'guessedright'
p5422
I4515
sS'inany'
p5423
I5279
sS'deny'
p5424
I4673
sS'pipe'
p5425
I4925
sS'ensued'
p5426
I3848
sS'ho'
p5427
I2641
sS'towhich'
p5428
I4534
sS'please'
p5429
I5532
sS'stove'
p5430
I4912
sS'one.'
p5431
I1387
sS'seaweed'
p5432
I4232
sS'lightlyin'
p5433
I2219
sS'fear'
p5434
I1875
sS'pleased'
p5435
I4090
sS'nearer'
p5436
I1871
sS'unanimously'
p5437
I4386
sS're-echoed'
p5438
I3980
sS'clutching'
p5439
I228
sS'itssituation'
p5440
I4866
sS'piano'
p5441
I4467
sS'aseparate'
p5442
I1245
sS'thousands'
p5443
I786
sS'hisfifty'
p5444
I966
sS'thealphabet'
p5445
I4506
sS'midnight'
p5446
I4611
sS'ones'
p5447
I384
sS'words'
p5448
I1847
sS'please.'
p5449
I5556
sS'wordy'
p5450
I3463
sS'married'
p5451
I680
sS'whether'
p5452
I1516
sS'thread-the-needle'
p5453
I2807
sS'ogre'
p5454
I4046
sS'side.oh'
p5455
I5116
sS'him.stave'
p5456
I4693
sS'recoiled'
p5457
I5087
sS'thefact'
p5458
I1032
sS'remarkablequality'
p5459
I3689
sS'closet'
p5460
I1307
sS'monstrous'
p5461
I1910
sS'theface'
p5462
I5110
sS'wherethe'
p5463
I4504
sS'chains.the'
p5464
I1437
sS'closed'
p5465
I1065
sS'andlived'
p5466
I4543
sS'boughs'
p5467
I2394
sS'bought'
p5468
I4894
sS'himto'
p5469
I2990
sS'layclaim'
p5470
I3675
sS'opening'
p5471
I2526
sS'christmas.and'
p5472
I4158
sS'joy'
p5473
I3101
sS'house.this'
p5474
I1413
sS'joe'
p5475
I4941
sS'spoil'
p5476
I5066
sS'thatface'
p5477
I1370
sS'wanderingspirits'
p5478
I5418
sS'piece'
p5479
I75
sS'ofbrightness'
p5480
I4243
sS"nephew'shouse.he"
p5481
I5549
sS'wall'
p5482
I898
sS'thewindows'
p5483
I5546
sS'walk'
p5484
I1625
sS'andfro'
p5485
I2000
sS'worldly'
p5486
I1623
sS'table'
p5487
I1298
sS'theysaid'
p5488
I365
sS'grindstone'
p5489
I223
sS'heldhis'
p5490
I3982
sS'incarriages'
p5491
I886
sS'howshe'
p5492
I4075
sS'heremembered'
p5493
I2837
sS'allothers'
p5494
I832
sS'painted'
p5495
I199
sS'sufficient'
p5496
I3904
sS'last'
p5497
I1840
sS'present'
p5498
I785
sS'kerchief'
p5499
I1496
sS'unlike'
p5500
I3002
sS'fearful'
p5501
I5154
sS'will'
p5502
I332
sS'persevered'
p5503
I5345
sS'wild'
p5504
I4228
sS'ringing'
p5505
I4614
sS'thingsthat'
p5506
I4443
sS'uponhim'
p5507
I2838
sS'thus'
p5508
I1324
sS'piteously'
p5509
I1915
sS'theperspiration'
p5510
I1816
sS'let'
p5511
I589
sS'perhaps'
p5512
I1277
sS'tocome'
p5513
I2527
sS'cross'
p5514
I538
sS'expression.as'
p5515
I1202
sS'gotquite'
p5516
I4202
sS'gets'
p5517
I3819
sS'difficult'
p5518
I4706
sS'outcast'
p5519
I4371
sS'coaches'
p5520
I2606
sS'whims'
p5521
I4353
sS'collar'
p5522
I3733
sS'warming'
p5523
I922
sS'dinner-carriers'
p5524
I3638
sS'otherboys'
p5525
I2286
sS'toremember'
p5526
I3825
sS'aparty'
p5527
I4778
sS'tails'
p5528
I363
sS'obeyed.it'
p5529
I3266
sS'bending'
p5530
I2514
sS'cried'
p5531
I495
sS'heavily'
p5532
I1789
sS'theevent'
p5533
I5215
sS'obtain'
p5534
I5198
sS'recollection'
p5535
I1291
sS'roomhere'
p5536
I2668
sS'happiness'
p5537
I1649
sS'rapid'
p5538
I508
sS'thesort'
p5539
I2767
sS'bell'
p5540
I893
sS'sky'
p5541
I3429
sS'simple'
p5542
I3334
sS'book'
p5543
I1100
sS'brightfaces'
p5544
I2836
sS'andso'
p5545
I1412
sS'vain.for'
p5546
I3452
sS'know'
p5547
I59
sS'knot'
p5548
I4759
sS'thefatigues'
p5549
I1941
sS'hecorroborated'
p5550
I2832
sS'loses'
p5551
I4360
sS'andstolen'
p5552
I3921
sS'wassurrounded.he'
p5553
I4710
sS'because'
p5554
I681
sS'shabby'
p5555
I3838
sS'reclamation'
p5556
I2206
sS'searching'
p5557
I993
sS'abranch'
p5558
I2118
sS'bagwith'
p5559
I5078
sS'growth'
p5560
I5332
sS'itbroke'
p5561
I2057
sS'leaf'
p5562
I4016
sS'night.in'
p5563
I2685
sS'lead'
p5564
I2268
sS'hour.to'
p5565
I1966
sS'instantaneous'
p5566
I2252
sS'leap'
p5567
I2307
sS'dangling'
p5568
I1069
sS'conveyed'
p5569
I1690
sS'throne'
p5570
I3289
sS'rare'
p5571
I3557
sS'carried'
p5572
I273
sS'getting'
p5573
I1715
sS'ashe'
p5574
I2380
sS'himself.'
p5575
I1769
sS'canisterswere'
p5576
I3547
sS'firstspeaker'
p5577
I4783
sS'gladsome'
p5578
I326
sS'own'
p5579
I61
sS'polished'
p5580
I3602
sS'andbasin'
p5581
I1302
sS'bed-curtains'
p5582
I5037
sS'tospring'
p5583
I4747
sS'weather'
p5584
I291
sS'promise'
p5585
I3119
sS'*'
I5609
sS'thefeast'
p5586
I4027
sS'andsaid'
p5587
I5520
sS'intention'
p5588
I2189
sS'good-bye'
p5589
I2579
sS'deuce'
p5590
I1569
sS'goose'
p5591
I3749
sS'made'
p5592
I258
sS'relents'
p5593
I5188
sS'below'
p5594
I1070
sS'gaps'
p5595
I3539
sS'cake'
p5596
I2561
sS'stirring'
p5597
I5436
sS'block'
p5598
I2560
sS'eagerness'
p5599
I2537
sS'somethingvery'
p5600
I1570
sS'gnawing'
p5601
I5148
sS'goodness'
p5602
I5530
sS'wereghostly'
p5603
I4735
sS'hadneed'
p5604
I5241
sS'roarof'
p5605
I4556
sS"'ll"
p5606
I656
sS'incredible'
p5607
I3858
sS'smears'
p5608
I426
sS'other'
p5609
I179
sS'repute'
p5610
I4867
sS'waseaten'
p5611
I3365
sS'tohave'
p5612
I3037
sS'kinds'
p5613
I1692
sS'andwith'
p5614
I3615
sS'fivethe'
p5615
I5381
sS'earthly'
p5616
I2355
sS'squeak'
p5617
I2384
sS'weather-cock'
p5618
I2325
sS'opened'
p5619
I2365
sS'helmsman'
p5620
I4259
s.