(dp0
S'pardon'
p1
I1955
sS'smelllik'
p2
I1329
sS'knelt'
p3
I1529
sS'foul'
p4
I167
sS'four'
p5
I1037
sS'sleep'
p6
I1750
sS'upsid'
p7
I898
sS'yonder'
p8
I1818
sS'whose'
p9
I804
sS'namedthem'
p10
I862
sS'sorri'
p11
I297
sS'otherhop'
p12
I1101
sS'lord'
p13
I1281
sS'worth'
p14
I1132
sS'everi'
p15
I442
sS'appal'
p16
I1547
sS'blanket'
p17
I1688
sS'rise'
p18
I829
sS'lurk'
p19
I1543
sS'voic'
p20
I191
sS'uncl'
p21
I186
sS'yellow'
p22
I1533
sS'jacob'
p23
I540
sS'affect'
p24
I550
sS'month'
p25
I1896
sS'vast'
p26
I1001
sS'school'
p27
I867
sS'prize'
p28
I1917
sS'parrot'
p29
I909
sS'wasold'
p30
I1093
sS'charwoman'
p31
I1632
sS'enjoy'
p32
I1067
sS'miller'
p33
I1934
sS'anythingha'
p34
I757
sS'consequ'
p35
I1454
sS'second'
p36
I693
sS'street'
p37
I1612
sS'mytrad'
p38
I635
sS'even'
p39
I527
sS'employ'
p40
I1010
sS'dialogu'
p41
I1705
sS'hide'
p42
I1284
sS'solemn'
p43
I1833
sS'thunder'
p44
I470
sS'asid'
p45
I783
sS'knowwheth'
p46
I1914
sS'toll'
p47
I689
sS'underneath'
p48
I1829
sS'new'
p49
I128
sS'ever'
p50
I237
sS'told'
p51
I1184
sS'never'
p52
I113
sS'here'
p53
I449
sS'met'
p54
I1637
sS'pleasur'
p55
I336
sS'daughter'
p56
I1298
sS'permit'
p57
I68
sS'roomher'
p58
I997
sS'tremend'
p59
I1216
sS'golden'
p60
I1098
sS'imposs'
p61
I1946
sS'volunt'
p62
I1598
sS'theghost'
p63
I1185
sS'brought'
p64
I703
sS'releas'
p65
I1129
sS'stern'
p66
I224
sS'ipromis'
p67
I1778
sS'describ'
p68
I512
sS'would'
p69
I262
sS'itha'
p70
I1941
sS'willyou'
p71
I1964
sS'calv'
p72
I1050
sS'blindman'
p73
I1475
sS'call'
p74
I912
sS'calm'
p75
I1331
sS'strike'
p76
I1713
sS'hiswild'
p77
I893
sS'until'
p78
I525
sS'distinctlyunderstood'
p79
I96
sS'churchyard'
p80
I1827
sS'remark'
p81
I1913
sS'muse'
p82
I610
sS'hurt'
p83
I1765
sS'warn'
p84
I670
sS'glass'
p85
I1503
sS'warm'
p86
I1280
sS'hole'
p87
I1657
sS'hold'
p88
I790
sS'blindfold'
p89
I856
sS'overrun'
p90
I879
sS'must'
p91
I95
sS'me'
p92
I69
sS'word'
p93
I319
sS'room'
p94
I316
sS'work'
p95
I748
sS'pierc'
p96
I416
sS'laundress'
p97
I1634
sS'ofth'
p98
I480
sS'introduc'
p99
I1411
sS'mr'
p100
I338
sS'my'
p101
I298
sS'shook'
p102
I351
sS'give'
p103
I597
sS'frighten'
p104
I1707
sS'woman'
p105
I830
sS'want'
p106
I292
sS'_me_'
p107
I646
sS'thearm'
p108
I828
sS'fiftytim'
p109
I1968
sS'shuffl'
p110
I1193
sS'christmasstav'
p111
I8
sS'thing'
p112
I183
sS'heregard'
p113
I1332
sS'travel'
p114
I611
sS'how'
p115
I77
sS'hot'
p116
I1022
sS'littlechild'
p117
I1779
sS'scrambl'
p118
I761
sS'answer'
p119
I132
sS'agoni'
p120
I1854
sS'collaps'
p121
I1863
sS'poker'
p122
I493
sS'lad'
p123
I995
sS'earlier'
p124
I450
sS'less'
p125
I1928
sS'befor'
p126
I286
sS'wrong'
p127
I745
sS'lay'
p128
I364
sS'law'
p129
I375
sS'_they_'
p130
I1985
sS'scarc'
p131
I1940
sS'third'
p132
I695
sS'retort'
p133
I1111
sS'think'
p134
I431
sS'receiv'
p135
I1169
sS'green'
p136
I1208
sS'half-a-crown'
p137
I429
sS'wing'
p138
I618
sS'wind'
p139
I619
sS'fetter'
p140
I583
sS'over'
p141
I621
sS'becaus'
p142
I274
sS'eyesin'
p143
I1479
sS'scro-o-o-o-og'
p144
I1497
sS'thesiz'
p145
I1933
sS'gentl'
p146
I808
sS'fix'
p147
I461
sS'coffin-nail'
p148
I60
sS','
p149
I14
sS'gainsay'
p150
I963
sS'better'
p151
I209
sS'offic'
p152
I1822
sS'fade'
p153
I725
sS'comprehens'
p154
I638
sS'observingthat'
p155
I1586
sS'then'
p156
I203
sS'them'
p157
I551
sS'isev'
p158
I1443
sS'abreathless'
p159
I1309
sS'break'
p160
I1320
sS'bang'
p161
I465
sS'promis'
p162
I452
sS'they'
p163
I169
sS'interrupt'
p164
I1456
sS'one'
p165
I332
sS'tendenc'
p166
I1502
sS'youever'
p167
I1793
sS'forinst'
p168
I107
sS'theirproceed'
p169
I1386
sS'sidl'
p170
I1981
sS'hecorrobor'
p171
I1065
sS'each'
p172
I1658
sS'went'
p173
I265
sS'oblig'
p174
I1966
sS'side'
p175
I543
sS'mean'
p176
I1638
sS'burial'
p177
I28
sS'whim'
p178
I1451
sS'resum'
p179
I680
sS'caustic'
p180
I528
sS'fraught'
p181
I1123
sS'goe'
p182
I918
sS'god'
p183
I187
sS'content'
p184
I1300
sS're'
p185
I200
sS'laid'
p186
I974
sS'maynot'
p187
I659
sS'got'
p188
I620
sS'forth'
p189
I1661
sS'situat'
p190
I1805
sS'_her_'
p191
I1040
sS'sailinground'
p192
I913
sS'dinewith'
p193
I1453
sS'infiv'
p194
I1982
sS'mistress'
p195
I1977
sS'itshal'
p196
I1999
sS'silent'
p197
I1568
sS'welfar'
p198
I821
sS'thetank'
p199
I1994
sS'ath'
p200
I1341
sS'ism'
p201
I578
sS'onth'
p202
I1483
sS'caught'
p203
I1855
sS'yedown'
p204
I1279
sS'shuttersdown'
p205
I1237
sS'hoop'
p206
I923
sS'wast'
p207
I1695
sS'andit'
p208
I1253
sS'alreadi'
p209
I1979
sS'wasa'
p210
I1726
sS'thelustiest'
p211
I1903
sS'acquaint'
p212
I1413
sS'attach'
p213
I983
sS'andyour'
p214
I1262
sS'kinder'
p215
I951
sS'master'
p216
I955
sS'too'
p217
I560
sS'bitter'
p218
I496
sS'listen'
p219
I741
sS'weresuppos'
p220
I1324
sS'took'
p221
I1683
sS'peculiar'
p222
I1243
sS"home'slik"
p223
I952
sS'silli'
p224
I1071
sS'grindston'
p225
I141
sS'provid'
p226
I562
sS'merci'
p227
I568
sS'anoffic'
p228
I1823
sS'flame'
p229
I517
sS'iron'
p230
I1290
sS'loiter'
p231
I1910
sS'minut'
p232
I502
sS'rag'
p233
I1535
sS'pass'
p234
I1401
sS'mind'
p235
I52
sS'mine'
p236
I231
sS'anhour'
p237
I504
sS'rat'
p238
I1728
sS'manner'
p239
I1674
sS'seen'
p240
I844
sS'seem'
p241
I503
sS'seek'
p242
I1251
sS'dozen'
p243
I1274
sS'strength'
p244
I792
sS'especi'
p245
I1025
sS'himin'
p246
I1927
sS'buti'
p247
I1735
sS'plenti'
p248
I362
sS'shall'
p249
I380
sS'ironmongeri'
p250
I63
sS'object'
p251
I1500
sS'hisheart'
p252
I1299
sS'milkman'
p253
I1019
sS'gravi'
p254
I556
sS'mouth'
p255
I1640
sS'letter'
p256
I1492
sS'gotpet'
p257
I1804
sS'the'
p258
I25
sS'grave'
p259
I557
sS'glow'
p260
I1408
sS'foranyth'
p261
I1701
sS'butprostr'
p262
I1538
sS'excus'
p263
I391
sS'alarm'
p264
I760
sS'saidth'
p265
I960
sS'carolin'
p266
I3
sS'notion'
p267
I1469
sS'came'
p268
I172
sS'misanthrop'
p269
I411
sS'stool'
p270
I1348
sS'penanc'
p271
I668
sS'wrung'
p272
I581
sS'earth'
p273
I573
sS'indign'
p274
I1422
sS'toast'
p275
I1385
sS'spite'
p276
I1137
sS'wolfish'
p277
I1537
sS'heartili'
p278
I1795
sS'factious'
p279
I1558
sS'theme'
p280
I1314
sS'busi'
p281
I129
sS'rich'
p282
I208
sS'wereeverywher'
p283
I1283
sS'afalt'
p284
I683
sS"'i"
p285
I1794
sS'de'
p286
I1031
sS'stop'
p287
I707
sS'tight-fist'
p288
I139
sS'foremost'
p289
I1720
sS'pocket'
p290
I441
sS'andunderw'
p291
I1068
sS'happiest'
p292
I1869
sS'behindhand'
p293
I1416
sS'twice'
p294
I1035
sS'bad'
p295
I1740
sS'asimilar'
p296
I1495
sS'hasten'
p297
I1821
sS'steam'
p298
I1326
sS'bah'
p299
I192
sS'ofani'
p300
I1131
sS'habit'
p301
I603
sS'stoppingin'
p302
I1692
sS'resist'
p303
I832
sS'andth'
p304
I1162
sS'shill'
p305
I1926
sS'hammer'
p306
I1906
sS'best'
p307
I1693
sS'lovabl'
p308
I1005
sS'snuff'
p309
I1590
sS'said'
p310
I193
sS'away'
p311
I994
sS'gentleman'
p312
I363
sS'thatwa'
p313
I1990
sS'mud'
p314
I1403
sS'finger'
p315
I1613
sS'drawn'
p316
I782
sS'approach'
p317
I706
sS'we'
p318
I295
sS'men'
p319
I1008
sS'wo'
p320
I515
sS'lookedout'
p321
I711
sS'weak'
p322
I112
sS'extens'
p323
I1672
sS'wear'
p324
I585
sS'cousin'
p325
I1014
sS'clungupon'
p326
I1530
sS'debt'
p327
I1748
sS'extinguish'
p328
I247
sS'laughinga'
p329
I1178
sS'shadowsremain'
p330
I1349
sS'ill'
p331
I433
sS'against'
p332
I1437
sS'piti'
p333
I1468
sS'assur'
p334
I1842
sS'supplic'
p335
I836
sS'trust'
p336
I1732
sS'askedscroog'
p337
I806
sS'speak'
p338
I1145
sS'accustom'
p339
I1996
sS'angel'
p340
I1540
sS'_to_'
p341
I536
sS'union'
p342
I366
sS'tortureof'
p343
I615
sS'three'
p344
I491
sS'been'
p345
I56
sS'useto'
p346
I1440
sS'much'
p347
I234
sS'frisk'
p348
I1886
sS'warmth'
p349
I162
sS'hadral'
p350
I1295
sS'asdrag'
p351
I513
sS'life'
p352
I539
sS'shereturn'
p353
I1121
sS'uncommon'
p354
I791
sS'anywher'
p355
I602
sS'child'
p356
I870
sS'catch'
p357
I1487
sS'chill'
p358
I166
sS'has'
p359
I236
sS'tank'
p360
I239
sS'air'
p361
I712
sS'strangest'
p362
I800
sS'near'
p363
I652
sS'marriag'
p364
I1337
sS'speedili'
p365
I1373
sS'seven'
p366
I340
sS'is'
p367
I19
sS'it'
p368
I38
sS'shame'
p369
I1240
sS'to-morrow'
p370
I261
sS'in'
p371
I226
sS'sever'
p372
I499
sS'if'
p373
I278
sS'grown'
p374
I977
sS'growl'
p375
I277
sS'indescrib'
p376
I1174
sS'make'
p377
I384
sS'wanderingspirit'
p378
I1893
sS'big'
p379
I1921
sS'jocund'
p380
I861
sS'evid'
p381
I545
sS'hang'
p382
I1919
sS'hand'
p383
I48
sS'delight'
p384
I1166
sS'rais'
p385
I533
sS'theirtalk'
p386
I1588
sS'fire-plac'
p387
I544
sS'hearti'
p388
I1122
sS'ocean'
p389
I639
sS'greatest'
p390
I1333
sS'thi'
p391
I1809
sS'mother'
p392
I1268
sS'everyth'
p393
I1066
sS'left'
p394
I315
sS'thanke'
p395
I679
sS'halloo'
p396
I924
sS'just'
p397
I478
sS'halloa'
p398
I922
sS'farther'
p399
I1781
sS'human'
p400
I1484
sS'yes'
p401
I263
sS'yet'
p402
I414
sS'interfer'
p403
I395
sS'had'
p404
I159
sS'shout'
p405
I1161
sS'prison'
p406
I361
sS'els'
p407
I778
sS'save'
p408
I188
sS'hat'
p409
I1995
sS'himalong'
p410
I1584
sS'gave'
p411
I1578
sS'shadow'
p412
I859
sS'apart'
p413
I1782
sS'zeal'
p414
I1278
sS'night'
p415
I344
sS'hung'
p416
I1202
sS'right'
p417
I198
sS'old'
p418
I116
sS'deal'
p419
I634
sS'somehow'
p420
I1302
sS'dead'
p421
I13
sS'rever'
p422
I1204
sS'born'
p423
I1685
sS'dear'
p424
I890
sS'bore'
p425
I1286
sS'for'
p426
I43
sS'undisturb'
p427
I737
sS'yourcheek'
p428
I853
sS'ice'
p429
I412
sS'overcom'
p430
I1359
sS'condit'
p431
I1576
sS'creatur'
p432
I724
sS'knew'
p433
I74
sS'bold'
p434
I820
sS'neverfinish'
p435
I1465
sS'dilber'
p436
I1652
sS'bolt'
p437
I736
sS'spiritsth'
p438
I1566
sS'spoke'
p439
I827
sS'rebuk'
p440
I1370
sS'hispartn'
p441
I1179
sS'tostop'
p442
I428
sS'astini'
p443
I2012
sS'three-quart'
p444
I1517
sS'enshroud'
p445
I728
sS'festiv'
p446
I353
sS'dinner'
p447
I1249
sS'despair'
p448
I936
sS'afternoon'
p449
I291
sS'coach-hous'
p450
I877
sS'sob'
p451
I872
sS'ifcalico'
p452
I1700
sS'herfac'
p453
I1763
sS'bound'
p454
I435
sS'curios'
p455
I710
sS'down'
p456
I173
sS'sow'
p457
I1716
sS'opportun'
p458
I628
sS'hallo'
p459
I1325
sS'yawn'
p460
I1593
sS"niece'ssist"
p461
I1459
sS'support'
p462
I1289
sS'transform'
p463
I1199
sS'happi'
p464
I314
sS'way'
p465
I229
sS'music'
p466
I1472
sS'ihav'
p467
I1126
sS'itbrok'
p468
I770
sS'was'
p469
I12
sS'war'
p470
I1265
sS'head'
p471
I152
sS'form'
p472
I794
sS'forc'
p473
I1156
sS'forg'
p474
I586
sS'heat'
p475
I157
sS'hear'
p476
I379
sS'true'
p477
I966
sS'andwa'
p478
I1358
sS'toscroog'
p479
I722
sS'flavour'
p480
I1244
sS'friday'
p481
I919
sS'inquir'
p482
I813
sS'tell'
p483
I566
sS'bide'
p484
I1560
sS'retir'
p485
I321
sS'atth'
p486
I739
sS'wintri'
p487
I164
sS"''"
p488
I174
sS'throughhi'
p489
I477
sS'improprieti'
p490
I244
sS'glanc'
p491
I1084
sS'desir'
p492
I481
sS'quantiti'
p493
I623
sS'counting-hous'
p494
I422
sS'assembl'
p495
I1407
sS'inde'
p496
I264
sS'no'
p497
I20
sS'when'
p498
I176
sS'whereat'
p499
I1458
sS'tim'
p500
I1263
sS'congeal'
p501
I409
sS'topper'
p502
I1457
sS'brisk'
p503
I979
sS'realiti'
p504
I546
sS'hisarriv'
p505
I1938
sS"'s"
p506
I10
sS'devot'
p507
I1473
sS'felt'
p508
I1083
sS'notwithstand'
p509
I320
sS"'d"
p510
I430
sS'intent'
p511
I885
sS"'m"
p512
I902
sS'everknew'
p513
I1798
sS'hispip'
p514
I1639
sS'hungrybroth'
p515
I1367
sS'grief'
p516
I1361
sS'younger'
p517
I883
sS'to-day'
p518
I1776
sS'longer'
p519
I1188
sS'spectr'
p520
I561
sS'ignor'
p521
I1550
sS'teeth'
p522
I701
sS'fair'
p523
I427
sS'serious'
p524
I1958
sS'befriend'
p525
I296
sS'chain'
p526
I514
sS'skip'
p527
I989
sS'mild'
p528
I851
sS'nephew'
p529
I195
sS'remonstr'
p530
I838
sS'chair'
p531
I1783
sS'toothpick'
p532
I564
sS'midst'
p533
I1759
sS'decid'
p534
I1362
sS'middl'
p535
I522
sS'flash'
p536
I779
sS'father'
p537
I950
sS'_that_'
p538
I1799
sS'workingstil'
p539
I1790
sS'hereto-night'
p540
I669
sS'tolearn'
p541
I1828
sS'closebesid'
p542
I1784
sS'makeamend'
p543
I1870
sS'iput'
p544
I381
sS'onlyon'
p545
I279
sS'chirrup'
p546
I998
sS'mourn'
p547
I938
sS'quitea'
p548
I1898
sS'cook'
p549
I1016
sS'join'
p550
I1490
sS'exact'
p551
I1831
sS'did'
p552
I76
sS'die'
p553
I389
sS'reconcil'
p554
I1786
sS'brother'
p555
I894
sS'quick'
p556
I1090
sS'aponder'
p557
I593
sS"spirit'ssorrow"
p558
I1522
sS'round'
p559
I1293
sS'theycl'
p560
I1548
sS'slower'
p561
I1769
sS'roundbefor'
p562
I1826
sS'ofgratitud'
p563
I1073
sS'theopposit'
p564
I542
sS'sign'
p565
I29
sS'cost'
p566
I1081
sS'spectral'
p567
I1856
sS'appear'
p568
I657
sS'repli'
p569
I341
sS'wors'
p570
I1559
sS'appeal'
p571
I1549
sS"that'sth"
p572
I1675
sS'allpermit'
p573
I598
sS'buri'
p574
I1696
sS'clerk'
p575
I32
sS'water'
p576
I637
sS'gnaw'
p577
I1727
sS'oldsinn'
p578
I148
sS'address'
p579
I337
sS'['
p580
I218
sS'involuntarili'
p581
I240
sS'wait'
p582
I1937
sS'invis'
p583
I660
sS'boy'
p584
I849
sS'poulter'
p585
I1229
sS'repeateda'
p586
I1871
sS'brilliant'
p587
I1895
sS'bow'
p588
I330
sS'thesmart'
p589
I700
sS'behav'
p590
I1294
sS'itwould'
p591
I802
sS'bob'
p592
I1292
sS'quarrel'
p593
I305
sS'hither'
p594
I715
sS'love'
p595
I276
sS'humour'
p596
I312
sS'becameintens'
p597
I404
sS'giveit'
p598
I288
sS'leav'
p599
I232
sS'toquarrel'
p600
I1241
sS'wealth'
p601
I1439
sS'memori'
p602
I1146
sS'sake'
p603
I1383
sS'univers'
p604
I1315
sS'visit'
p605
I684
sS'apprent'
p606
I970
sS'everybodi'
p607
I1800
sS'vigour'
p608
I377
sS'angri'
p609
I258
sS'dismay'
p610
I647
sS'``'
p611
I171
sS'afford'
p612
I386
sS'peopl'
p613
I127
sS'examin'
p614
I732
sS'ideatak'
p615
I1191
sS'soul'
p616
I1063
sS'cat'
p617
I1724
sS'somebodi'
p618
I1698
sS'whatev'
p619
I22
sS'cab'
p620
I1950
sS'purpos'
p621
I1026
sS'fruiter'
p622
I1233
sS'heart'
p623
I299
sS'theparrot'
p624
I917
sS'whatthen'
p625
I1113
sS'predict'
p626
I1054
sS'heard'
p627
I510
sS'stroke'
p628
I697
sS'chin'
p629
I155
sS'recollect'
p630
I479
sS'andther'
p631
I1770
sS'thewis'
p632
I1656
sS'thealphabet'
p633
I1493
sS'write'
p634
I1853
sS'alway'
p635
I677
sS'sunday'
p636
I1775
sS'fourth'
p637
I1565
sS'toldit'
p638
I1028
sS'may'
p639
I235
sS'speedof'
p640
I1774
sS'mankind'
p641
I632
sS'such'
p642
I495
sS'couldfeign'
p643
I1997
sS'grow'
p644
I1088
sS'moros'
p645
I207
sS'conscious'
p646
I860
sS'quot'
p647
I1357
sS'inform'
p648
I1812
sS'so'
p649
I301
sS'basket'
p650
I489
sS'talk'
p651
I1789
sS'offenc'
p652
I1433
sS'drunken'
p653
I1883
sS'globe'
p654
I1509
sS'midnight'
p655
I1512
sS'shake'
p656
I939
sS'cold'
p657
I158
sS'still'
p658
I369
sS'himto'
p659
I1157
sS'sprinkl'
p660
I1245
sS'group'
p661
I1609
sS'thank'
p662
I1967
sS'thanh'
p663
I1704
sS'spur'
p664
I211
sS'solitari'
p665
I869
sS'window'
p666
I708
sS'notleav'
p667
I1731
sS'stroll'
p668
I1607
sS'goodst'
p669
I419
sS'upnow'
p670
I1719
sS'truest'
p671
I1663
sS'eyesupon'
p672
I1372
sS'halv'
p673
I1424
sS'beseech'
p674
I1737
sS'to-night'
p675
I986
sS'tinytim'
p676
I1808
sS'tucker'
p677
I1462
sS'lunch'
p678
I1599
sS'half'
p679
I501
sS'not'
p680
I289
sS'now'
p681
I290
sS'strivewithin'
p682
I1872
sS'hall'
p683
I881
sS'nor'
p684
I526
sS'possess'
p685
I1192
sS'term'
p686
I1043
sS'name'
p687
I117
sS'clutch'
p688
I146
sS'drop'
p689
I636
sS'_you_'
p690
I589
sS'quarter'
p691
I774
sS'courag'
p692
I1972
sS'_was_'
p693
I531
sS'em'
p694
I691
sS'eh'
p695
I1691
sS'agil'
p696
I993
sS'torch'
p697
I1246
sS'begun'
p698
I507
sS'year'
p699
I87
sS'happen'
p700
I287
sS'shewa'
p701
I1041
sS'agit'
p702
I1069
sS'shown'
p703
I1844
sS'hisown'
p704
I1868
sS'space'
p705
I625
sS'profit'
p706
I1227
sS'icicl'
p707
I746
sS'giddi'
p708
I1882
sS'housemaid'
p709
I1012
sS'correct'
p710
I751
sS'hopenot'
p711
I1660
sS'after'
p712
I498
sS'apparit'
p713
I570
sS'glimps'
p714
I1239
sS'domest'
p715
I1057
sS'seventh'
p716
I1252
sS'care'
p717
I181
sS'theway'
p718
I1481
sS'thatfavour'
p719
I1963
sS'heavenknow'
p720
I1140
sS'couldnot'
p721
I2004
sS'honest'
p722
I907
sS'turn'
p723
I255
sS'place'
p724
I848
sS'refug'
p725
I1561
sS'neglect'
p726
I871
sS'first'
p727
I270
sS'blind'
p728
I1478
sS'carri'
p729
I1434
sS'onc'
p730
I439
sS'yourself'
p731
I432
sS'long'
p732
I590
sS'ring'
p733
I1516
sS'open'
p734
I1232
sS'size'
p735
I1313
sS'given'
p736
I928
sS'christma'
p737
I2
sS'bite'
p738
I418
sS'citi'
p739
I841
sS'shiver'
p740
I663
sS'disorderof'
p741
I553
sS'white'
p742
I1211
sS'conveni'
p743
I426
sS'friend'
p744
I678
sS'rimewa'
p745
I150
sS'floweri'
p746
I655
sS'hug'
p747
I1297
sS'that'
p748
I24
sS'season'
p749
I354
sS'shawl'
p750
I1275
sS'buth'
p751
I1857
sS'humbug'
p752
I194
sS'hut'
p753
I1398
sS'quak'
p754
I650
sS'skreek'
p755
I1647
sS'than'
p756
I283
sS'serv'
p757
I901
sS'wide'
p758
I1993
sS'turningout'
p759
I1321
sS'theend'
p760
I1836
sS'remors'
p761
I616
sS'beingchang'
p762
I1318
sS'were'
p763
I81
sS'posit'
p764
I1047
sS'thewhol'
p765
I266
sS'immov'
p766
I1838
sS'and'
p767
I34
sS'delic'
p768
I793
sS'wasknown'
p769
I125
sS'veryglad'
p770
I378
sS'ani'
p771
I304
sS'dash'
p772
I1974
sS'say'
p773
I372
sS'thepath'
p774
I686
sS'saw'
p775
I1091
sS'triggerwho'
p776
I1930
sS'sat'
p777
I500
sS'altogeth'
p778
I1427
sS'vastquant'
p779
I1589
sS'wretch'
p780
I1524
sS'take'
p781
I690
sS'implor'
p782
I594
sS'noth'
p783
I98
sS'wrench'
p784
I143
sS'begin'
p785
I16
sS'sure'
p786
I197
sS'entreati'
p787
I1858
sS'enter'
p788
I1200
sS'thefigur'
p789
I1825
sS'knee'
p790
I567
sS']'
p791
I908
sS'fiveminut'
p792
I1189
sS'mrs'
p793
I1000
sS'scowl'
p794
I1536
sS'steadi'
p795
I798
sS'thatextrem'
p796
I269
sS'shop'
p797
I1231
sS'shot'
p798
I1929
sS'surplus'
p799
I1355
sS'show'
p800
I1149
sS'cheat'
p801
I555
sS'cheap'
p802
I474
sS'fervour'
p803
I855
sS'shoe'
p804
I487
sS'threshold'
p805
I1761
sS'corner'
p806
I1891
sS'plungedhi'
p807
I1021
sS'ground'
p808
I624
sS'onli'
p809
I438
sS'slow'
p810
I609
sS'dick'
p811
I976
sS'behind'
p812
I1649
sS'lean'
p813
I1680
sS'wasnot'
p814
I831
sS'robe'
p815
I835
sS'offici'
p816
I1277
sS'plump'
p817
I1460
sS'get'
p818
I272
sS'coal-scuttlebefor'
p819
I2007
sS'clang'
p820
I1907
sS'*scroog'
p821
I2010
sS'butsatisfactori'
p822
I1429
sS'lighter'
p823
I1753
sS'startedfrom'
p824
I93
sS'orhandsom'
p825
I1158
sS'truli'
p826
I1723
sS'prime'
p827
I1094
sS'speakcomfort'
p828
I595
sS'amher'
p829
I1878
sS'yield'
p830
I1134
sS'twelv'
p831
I698
sS'roger'
p832
I1030
sS'where'
p833
I168
sS'husband'
p834
I1745
sS'sincetheir'
p835
I1336
sS'menac'
p836
I1545
sS'wonder'
p837
I99
sS'quarterpast'
p838
I1992
sS'enough'
p839
I202
sS'import'
p840
I1618
sS'across'
p841
I497
sS'itsshadowi'
p842
I582
sS'screen'
p843
I1650
sS'tut'
p844
I1177
sS'blame'
p845
I1186
sS'farth'
p846
I1960
sS'spare'
p847
I1352
sS'spark'
p848
I250
sS'come'
p849
I101
sS"there's_such_"
p850
I1271
sS'quiet'
p851
I1628
sS'contract'
p852
I1115
sS'musthav'
p853
I747
sS'havepain'
p854
I1147
sS'mani'
p855
I86
sS'among'
p856
I1366
sS'pot'
p857
I1023
sS'unmov'
p858
I1733
sS'insist'
p859
I1085
sS'ifsuch'
p860
I1743
sS'_have_'
p861
I1127
sS'turkey'
p862
I1918
sS'stretch'
p863
I1553
sS'mark'
p864
I1394
sS'breath'
p865
I958
sS'alittl'
p866
I933
sS'ofhimself'
p867
I1138
sS'bemarri'
p868
I905
sS'thousand'
p869
I355
sS'resolut'
p870
I302
sS'clergyman'
p871
I31
sS'emphat'
p872
I71
sS'nobler'
p873
I1104
sS'lustili'
p874
I1418
sS'abject'
p875
I1525
sS'impati'
p876
I1119
sS'former'
p877
I930
sS'those'
p878
I786
sS'sound'
p879
I466
sS'myself'
p880
I58
sS'amend'
p881
I627
sS"n't"
p882
I84
sS'cast'
p883
I1371
sS'bedism'
p884
I206
sS'pleasantest-spoken'
p885
I1792
sS'brow'
p886
I666
sS'twoto'
p887
I1087
sS'sudden'
p888
I408
sS'warehous'
p889
I121
sS'outrag'
p890
I1482
sS'pursu'
p891
I400
sS'youwil'
p892
I66
sS'lightheart'
p893
I1751
sS'develop'
p894
I1167
sS'pay'
p895
I768
sS'same'
p896
I136
sS'check'
p897
I1900
sS'gentlemen'
p898
I333
sS'dining-room'
p899
I1976
sS'theforfeit'
p900
I1491
sS'tobob'
p901
I1936
sS'statur'
p902
I815
sS'oil'
p903
I1687
sS'blessthos'
p904
I1423
sS'meagr'
p905
I1534
sS'applaud'
p906
I241
sS'knowhow'
p907
I1897
sS'treadmil'
p908
I374
sS'extern'
p909
I156
sS'tostand'
p910
I2001
sS'handsom'
p911
I175
sS'appropri'
p912
I538
sS'wane'
p913
I1581
sS"wasn'tfair"
p914
I1489
sS'satenthron'
p915
I1541
sS'without'
p916
I317
sS'christmas-tim'
p917
I1621
sS'genii'
p918
I899
sS'beingso'
p919
I811
sS'money'
p920
I1077
sS'rest'
p921
I599
sS'touch'
p922
I749
sS'andwhi'
p923
I574
sS'death'
p924
I1181
sS'hint'
p925
I1340
sS'rose'
p926
I833
sS'littl'
p927
I160
sS'wilkin'
p928
I982
sS'struck'
p929
I1029
sS'earli'
p930
I1988
sS'supposit'
p931
I1136
sS'rejoic'
p932
I863
sS'frown'
p933
I350
sS'read'
p934
I886
sS'rejoin'
p935
I1097
sS'ladi'
p936
I1448
sS'dark'
p937
I473
sS'earnest'
p938
I1925
sS'_she_'
p939
I1984
sS'world'
p940
I280
sS'inthat'
p941
I1256
sS'fineon'
p942
I1694
sS'dare'
p943
I1690
sS'stranger'
p944
I1644
sS'tend'
p945
I1711
sS'roll'
p946
I640
sS'engross'
p947
I1110
sS'chamber'
p948
I455
sS'benefit'
p949
I1444
sS'nose'
p950
I1602
sS'claw'
p951
I1520
sS'downward'
p952
I1834
sS'clap'
p953
I1464
sS"i'lloff"
p954
I1604
sS'draw'
p955
I1514
sS"scrooge'snephew"
p956
I1419
sS'satisfactori'
p957
I1431
sS'andgratitud'
p958
I1173
sS'thoughsom'
p959
I1499
sS'thedining-room'
p960
I1980
sS'yearsafterward'
p961
I119
sS'crossedarm'
p962
I1682
sS'noon'
p963
I759
sS'defenceless'
p964
I1164
sS'moon'
p965
I1053
sS'hintedscroog'
p966
I692
sS'lunat'
p967
I323
sS'porter'
p968
I1024
sS'uneasi'
p969
I967
sS'inrestless'
p970
I717
sS'withtear'
p971
I1877
sS'fezziwig'
p972
I972
sS'broken'
p973
I1182
sS'snuff-box'
p974
I1591
sS'_'
p975
I220
sS'on'
p976
I151
sS'stone'
p977
I1404
sS'oh'
p978
I138
sS'roar'
p979
I1417
sS'island'
p980
I914
sS'thisgirl'
p981
I1551
sS'fell'
p982
I275
sS'stand'
p983
I1654
sS'act'
p984
I1061
sS'washing-day'
p985
I1330
sS'industri'
p986
I1773
sS'or'
p987
I97
sS'torel'
p988
I104
sS'wouldbecom'
p989
I1055
sS'pleasantri'
p990
I1595
sS'iwish'
p991
I1378
sS'your'
p992
I227
sS'stare'
p993
I1655
sS'her'
p994
I1013
sS'personsmeet'
p995
I1614
sS'there'
p996
I18
sS'hey'
p997
I1620
sS'start'
p998
I1546
sS'drank'
p999
I1384
sS'low'
p1000
I494
sS'lot'
p1001
I996
sS'garment'
p1002
I1532
sS'submiss'
p1003
I1219
sS'sundaycloth'
p1004
I1909
sS'scroogelook'
p1005
I937
sS'cultiv'
p1006
I1412
sS'bundl'
p1007
I1665
sS'regard'
p1008
I59
sS'with'
p1009
I17
sS'dirti'
p1010
I935
sS'possibl'
p1011
I756
sS'flatheresi'
p1012
I1338
sS'tini'
p1013
I943
sS'grasp'
p1014
I144
sS'grass'
p1015
I880
sS'puls'
p1016
I754
sS'darker'
p1017
I934
sS'gone'
p1018
I653
sS'ad'
p1019
I254
sS'fright'
p1020
I1526
sS'ah'
p1021
I1036
sS'am'
p1022
I102
sS'deep'
p1023
I1207
sS'fellow'
p1024
I987
sS'as'
p1025
I50
sS'decreas'
p1026
I1354
sS'at'
p1027
I140
sS'aw'
p1028
I559
sS'deed'
p1029
I1714
sS'fill'
p1030
I713
sS'again'
p1031
I213
sS'fiddler'
p1032
I1020
sS'washing-stand'
p1033
I490
sS'thither'
p1034
I716
sS'tight'
p1035
I1839
sS'longlin'
p1036
I1894
sS'immens'
p1037
I1170
sS'you'
p1038
I178
sS'_are_'
p1039
I1116
sS'poor'
p1040
I201
sS'time'
p1041
I612
sS'briefli'
p1042
I968
sS'peac'
p1043
I613
sS'takecold'
p1044
I1689
sS'wife'
p1045
I1766
sS'uglier'
p1046
I1703
sS'groom'
p1047
I897
sS'mourner'
p1048
I36
sS'escap'
p1049
I673
sS'fori'
p1050
I1467
sS'childish'
p1051
I1810
sS'all'
p1052
I135
sS'lace'
p1053
I1461
sS'founder'
p1054
I1374
sS'ali'
p1055
I887
sS'illustr'
p1056
I219
sS'ala'
p1057
I1285
sS'theperspir'
p1058
I665
sS'avaric'
p1059
I1721
sS'dish'
p1060
I1305
sS'follow'
p1061
I215
sS'children'
p1062
I965
sS'theirpart'
p1063
I1626
sS'myfat'
p1064
I674
sS'spirit'
p1065
I347
sS'to'
p1066
I15
sS'bonnetfor'
p1067
I1276
sS'walk-er'
p1068
I1924
sS'incam'
p1069
I1011
sS'smile'
p1070
I436
sS'hideous'
p1071
I1527
sS'thecredenti'
p1072
I352
sS'liter'
p1073
I109
sS'fals'
p1074
I1171
sS'horror'
p1075
I1323
sS'theyteach'
p1076
I1851
sS'fan'
p1077
I946
sS'fall'
p1078
I840
sS'veri'
p1079
I182
sS'lieher'
p1080
I1615
sS'soften'
p1081
I1752
sS'strang'
p1082
I588
sS'unalt'
p1083
I1350
sS'heaven'
p1084
I845
sS'meanto'
p1085
I1466
sS'itscom'
p1086
I516
sS'--'
p1087
I108
sS'list'
p1088
I335
sS'these'
p1089
I339
sS'torecov'
p1090
I1577
sS'small'
p1091
I1070
sS'ten'
p1092
I1190
sS'tea'
p1093
I1470
sS'past'
p1094
I742
sS'heartilysorri'
p1095
I1801
sS'begriev'
p1096
I1771
sS'resound'
p1097
I467
sS'howev'
p1098
I1432
sS'heknew'
p1099
I969
sS'what'
p1100
I180
sS'stood'
p1101
I118
sS'clock'
p1102
I744
sS'sun'
p1103
I758
sS'itwa'
p1104
I134
sS'abl'
p1105
I1086
sS'brief'
p1106
I1510
sS'allthre'
p1107
I1848
sS'inearnest'
p1108
I1425
sS'cruso'
p1109
I911
sS'essenc'
p1110
I1811
sS'full'
p1111
I376
sS'themselv'
p1112
I1259
sS'iwil'
p1113
I1847
sS'oldmarley'
p1114
I49
sS'answerh'
p1115
I1574
sS'hast'
p1116
I718
sS'strong'
p1117
I826
sS'valu'
p1118
I1133
sS'search'
p1119
I417
sS'miseri'
p1120
I1124
sS'succeededyesterday'
p1121
I1952
sS"fellow-'prentic"
p1122
I981
sS'pick'
p1123
I440
sS'preposterousclock'
p1124
I752
sS'depart'
p1125
I1835
sS'thewound'
p1126
I1715
sS'put'
p1127
I47
sS'thought'
p1128
I606
sS'famili'
p1129
I1217
sS've'
p1130
I1915
sS'eye'
p1131
I865
sS'distinct'
p1132
I803
sS'liber'
p1133
I349
sS'faint'
p1134
I437
sS'regist'
p1135
I26
sS'two'
p1136
I324
sS'morn'
p1137
I1623
sS'deadest'
p1138
I61
sS'taken'
p1139
I1957
sS'thenrememb'
p1140
I509
sS'hurrah'
p1141
I1270
sS'more'
p1142
I281
sS'triumphant'
p1143
I777
sS'door'
p1144
I122
sS'hundr'
p1145
I359
sS'glancedanxi'
p1146
I940
sS'stick'
p1147
I1944
sS'broke'
p1148
I1059
sS'particular'
p1149
I1018
sS'known'
p1150
I721
sS'compani'
p1151
I1406
sS'doom'
p1152
I575
sS'glad'
p1153
I903
sS'town'
p1154
I1948
sS'none'
p1155
I596
sS'hour'
p1156
I420
sS'hous'
p1157
I469
sS'knocker'
p1158
I463
sS'nine'
p1159
I1991
sS'learn'
p1160
I1142
sS'grope'
p1161
I762
sS'atlast'
p1162
I1304
sS'onslaught'
p1163
I1163
sS'share'
p1164
I580
sS'_am_'
p1165
I1998
sS'haveconduct'
p1166
I645
sS'dress'
p1167
I1583
sS'cours'
p1168
I75
sS'rather'
p1169
I388
sS'anoth'
p1170
I1118
sS'comfort'
p1171
I360
sS'andknock'
p1172
I1973
sS'rememberit'
p1173
I858
sS'simpl'
p1174
I1206
sS'resourc'
p1175
I1562
sS'rude'
p1176
I1160
sS'ofal'
p1177
I1387
sS'_not_'
p1178
I799
sS'pat'
p1179
I1939
sS'a'
p1180
I1
sS'acheer'
p1181
I221
sS'short'
p1182
I1089
sS'coat'
p1183
I1659
sS'caus'
p1184
I1754
sS'dread'
p1185
I569
sS'shade'
p1186
I535
sS'toeverybodi'
p1187
I1884
sS'dream'
p1188
I916
sS'help'
p1189
I1669
sS'soon'
p1190
I817
sS'trade'
p1191
I65
sS'held'
p1192
I1228
sS'paper'
p1193
I328
sS'through'
p1194
I468
sS'lasttim'
p1195
I1563
sS'brim'
p1196
I947
sS'ity'
p1197
I1867
sS'suffer'
p1198
I641
sS'glide'
p1199
I1611
sS'pray'
p1200
I656
sS'packagewa'
p1201
I1168
sS'alli'
p1202
I1594
sS'late'
p1203
I1266
sS'astonish'
p1204
I110
sS'dwarfish'
p1205
I814
sS'might'
p1206
I54
sS'alter'
p1207
I1845
sS'fool'
p1208
I1699
sS'good'
p1209
I40
sS'return'
p1210
I204
sS'yo'
p1211
I984
sS'ye'
p1212
I1282
sS'goos'
p1213
I1272
sS'foot'
p1214
I1518
sS'aclaw'
p1215
I1519
sS'itlong'
p1216
I1643
sS'feet'
p1217
I785
sS'bless'
p1218
I971
sS'tear'
p1219
I1725
sS'achiev'
p1220
I1335
sS'valentin'
p1221
I892
sS'ceas'
p1222
I506
sS'found'
p1223
I1405
sS'ifh'
p1224
I1989
sS'hark'
p1225
I1513
sS'theywer'
p1226
I1758
sS'diedseven'
p1227
I342
sS'colder'
p1228
I415
sS"scrooge'sniec"
p1229
I1446
sS'hard'
p1230
I654
sS'idea'
p1231
I662
sS'realli'
p1232
I1477
sS'heavi'
p1233
I476
sS'expect'
p1234
I688
sS'beyond'
p1235
I547
sS'underw'
p1236
I1820
sS'ourselvesbefor'
p1237
I1670
sS'youwer'
p1238
I1117
sS'robert'
p1239
I1379
sS'health'
p1240
I1382
sS'extraordinari'
p1241
I1791
sS'drink'
p1242
I1381
sS'moan'
p1243
I719
sS'pud'
p1244
I1327
sS'bedlam'
p1245
I322
sS'pleasant'
p1246
I1772
sS'reason'
p1247
I199
sS'thespirit'
p1248
I822
sS'believ'
p1249
I331
sS'ask'
p1250
I294
sS'teach'
p1251
I1226
sS'inhi'
p1252
I1194
sS'advanc'
p1253
I1587
sS'struggl'
p1254
I1139
sS'perhap'
p1255
I1078
sS'wither'
p1256
I959
sS'christmas-day'
p1257
I1242
sS'blush'
p1258
I1339
sS'calledscroog'
p1259
I130
sS'ding'
p1260
I772
sS'copper'
p1261
I1328
sS'dine'
p1262
I259
sS'feel'
p1263
I1120
sS'exchang'
p1264
I767
sS'sometim'
p1265
I126
sS'slipper'
p1266
I1195
sS'done'
p1267
I238
sS'dong'
p1268
I773
sS'stabl'
p1269
I876
sS'mist'
p1270
I727
sS'miss'
p1271
I1003
sS'bobpropos'
p1272
I1346
sS'guess'
p1273
I1176
sS'everheard'
p1274
I1303
sS'chime'
p1275
I1515
sS'least'
p1276
I1255
sS'paint'
p1277
I114
sS'stori'
p1278
I6
sS'appearedto'
p1279
I1048
sS'free'
p1280
I1642
sS'assembledfriend'
p1281
I1414
sS'thehous'
p1282
I1815
sS'bowel'
p1283
I523
sS'part'
p1284
I667
sS'anddwindl'
p1285
I1864
sS'grace'
p1286
I1307
sS'fred'
p1287
I1420
sS'kind'
p1288
I1248
sS'grew'
p1289
I931
sS'whenev'
p1290
I604
sS'advancedtoward'
p1291
I1400
sS'remov'
p1292
I1183
sS'liketo'
p1293
I1353
sS'twofish'
p1294
I488
sS'toward'
p1295
I941
sS'danc'
p1296
I1034
sS'isuppos'
p1297
I447
sS'suchwa'
p1298
I630
sS'twopenc'
p1299
I1388
sS'outto'
p1300
I1033
sS'pleasantto'
p1301
I1953
sS'neverhad'
p1302
I303
sS'lie'
p1303
I1180
sS'self'
p1304
I884
sS'valueof'
p1305
I1666
sS'also'
p1306
I1616
sS'labour'
p1307
I592
sS'lip'
p1308
I852
sS'useless'
p1309
I399
sS'frail'
p1310
I249
sS'relief'
p1311
I764
sS'most'
p1312
I642
sS'foryour'
p1313
I1557
sS'charg'
p1314
I1258
sS'amaz'
p1315
I1742
sS'clear'
p1316
I398
sS'ornot'
p1317
I572
sS'manyback-pay'
p1318
I1961
sS'nextmorn'
p1319
I451
sS'hadonc'
p1320
I456
sS'ridicul'
p1321
I282
sS'gold'
p1322
I1301
sS'humil'
p1323
I1539
sS'thesam'
p1324
I1879
sS'withth'
p1325
I1600
sS'gripingcar'
p1326
I1722
sS'hedrew'
p1327
I520
sS'withwond'
p1328
I992
sS'pretti'
p1329
I1426
sS'outstretchedhand'
p1330
I1629
sS'ruin'
p1331
I1676
sS'aworthi'
p1332
I1830
sS'unhappi'
p1333
I1710
sS'his'
p1334
I27
sS'neverdi'
p1335
I1592
sS'express'
p1336
I268
sS'strut'
p1337
I875
sS'powerfulspeak'
p1338
I252
sS'liabl'
p1339
I839
sS'him'
p1340
I137
sS'heartier'
p1341
I1983
sS'homag'
p1342
I310
sS'witha'
p1343
I1697
sS'common'
p1344
I357
sS'cri'
p1345
I189
sS'relentless'
p1346
I1154
sS'sew'
p1347
I1757
sS'set'
p1348
I1306
sS'see'
p1349
I179
sS'bare'
p1350
I796
sS'are'
p1351
I356
sS'sea'
p1352
I1409
sS'tender'
p1353
I1312
sS'close'
p1354
I731
sS'youhad'
p1355
I1214
sS'arm'
p1356
I788
sS'oldhonest'
p1357
I891
sS'learnt'
p1358
I1222
sS'matter'
p1359
I925
sS'someth'
p1360
I929
sS'goodafternoon'
p1361
I284
sS'grocer'
p1362
I1236
sS'honour'
p1363
I1846
sS'woe'
p1364
I577
sS'do'
p1365
I83
sS'sold'
p1366
I1916
sS'aspir'
p1367
I1105
sS'succeed'
p1368
I1308
sS'popul'
p1369
I1356
sS'both'
p1370
I133
sS'fiveth'
p1371
I1866
sS'last'
p1372
I313
sS'thegentlemen'
p1373
I402
sS'sultan'
p1374
I896
sS'uponth'
p1375
I696
sS'alon'
p1376
I233
sS'twenty-fifth'
p1377
I443
sS'untilth'
p1378
I1107
sS'whole'
p1379
I448
sS'onward'
p1380
I1573
sS'frosti'
p1381
I149
sS'outit'
p1382
I1554
sS'point'
p1383
I92
sS'provok'
p1384
I1428
sS'church'
p1385
I1902
sS'along'
p1386
I1806
sS'forgiv'
p1387
I1254
sS'theybrok'
p1388
I1007
sS'miser'
p1389
I1528
sS'whom'
p1390
I957
sS'thenight'
p1391
I730
sS'compuls'
p1392
I1221
sS'firm'
p1393
I124
sS'box'
p1394
I956
sS'buck'
p1395
I1922
sS'fire'
p1396
I246
sS'nothigh'
p1397
I1044
sS'havechosen'
p1398
I1148
sS'gap'
p1399
I1238
sS'understand'
p1400
I1734
sS'demand'
p1401
I368
sS'therel'
p1402
I1785
sS'fur'
p1403
I1212
sS'look'
p1404
I460
sS'straight'
p1405
I1579
sS'asqueez'
p1406
I142
sS'crutch'
p1407
I1287
sS'abov'
p1408
I120
sS'anonym'
p1409
I382
sS'robin'
p1410
I910
sS'ecstasi'
p1411
I889
sS'pound'
p1412
I1076
sS'readi'
p1413
I210
sS'endsto-night'
p1414
I1511
sS'itself'
p1415
I776
sS'spong'
p1416
I1852
sS'merrier'
p1417
I2006
sS'exult'
p1418
I1396
sS'belong'
p1419
I457
sS'ruler'
p1420
I2003
sS'ownsens'
p1421
I548
sS'conflict'
p1422
I1875
sS'higher'
p1423
I1046
sS'nomor'
p1424
I1153
sS'yesterday'
p1425
I2000
sS'andyou'
p1426
I953
sS'moment'
p1427
I212
sS'lumber-room'
p1428
I484
sS'timid'
p1429
I1201
sS'youmust'
p1430
I1949
sS'unanim'
p1431
I1986
sS'spent'
p1432
I1074
sS'person'
p1433
I720
sS'cheer'
p1434
I190
sS'couldwarm'
p1435
I163
sS'anybodi'
p1436
I1488
sS'explan'
p1437
I1610
sS'knot'
p1438
I1585
sS'ofchristma'
p1439
I1892
sS'shape'
p1440
I658
sS'theundertak'
p1441
I33
sS'feltwith'
p1442
I1803
sS'cup'
p1443
I1344
sS'whichth'
p1444
I1890
sS'verywealthi'
p1445
I1617
sS'grin'
p1446
I1807
sS'trialin'
p1447
I309
sS'snap'
p1448
I1943
sS'praisedfor'
p1449
I1873
sS'thestreet'
p1450
I1951
sS'christmascarol'
p1451
I927
sS'notth'
p1452
I1920
sS'hishand'
p1453
I607
sS'hadani'
p1454
I1501
sS'game'
p1455
I1474
sS'wiser'
p1456
I1112
sS'bit'
p1457
I1415
sS'asdead'
p1458
I73
sS'sordidreproach'
p1459
I1103
sS'knock'
p1460
I1739
sS'maychang'
p1461
I1843
sS'buff'
p1462
I1476
sS'hilli-ho'
p1463
I988
sS'often'
p1464
I170
sS'spring'
p1465
I750
sS'some'
p1466
I1471
sS'back'
p1467
I91
sS'tounderstand'
p1468
I394
sS'sight'
p1469
I765
sS'surpris'
p1470
I1198
sS'gruel'
p1471
I1888
sS'long-expect'
p1472
I1738
sS'though'
p1473
I519
sS'pen'
p1474
I365
sS'larg'
p1475
I962
sS'thelast'
p1476
I248
sS'knewwher'
p1477
I1486
sS'meanthat'
p1478
I196
sS'be'
p1479
I79
sS'ofsealing-wax'
p1480
I1945
sS'run'
p1481
I920
sS"nephew'shous"
p1482
I1971
sS'immediatelysens'
p1483
I243
sS'fed'
p1484
I1603
sS'personha'
p1485
I1653
sS'step'
p1486
I1970
sS'patienc'
p1487
I1445
sS'christmas-ev'
p1488
I591
sS'by'
p1489
I30
sS'doit'
p1490
I1686
sS'havedon'
p1491
I1777
sS'workhous'
p1492
I367
sS'deceas'
p1493
I458
sS'idl'
p1494
I387
sS'miracl'
p1495
I1744
sS'into'
p1496
I726
sS'within'
p1497
I1850
sS'inth'
p1498
I64
sS'lesson'
p1499
I1223
sS'occupi'
p1500
I396
sS'bed-curtain'
p1501
I1679
sS'eleven'
p1502
I1056
sS'live'
p1503
I454
sS'fast'
p1504
I617
sS'includ'
p1505
I1962
sS'forward'
p1506
I1681
sS':'
p1507
I123
sS'youdelight'
p1508
I1151
sS'himself'
p1509
I1092
sS'lyingther'
p1510
I1684
sS'cloth'
p1511
I1205
sS'worldlyhand'
p1512
I818
sS'solitud'
p1513
I406
sS'eighteen'
p1514
I1215
sS'up'
p1515
I216
sS'us'
p1516
I260
sS'slander'
p1517
I1555
sS'covet'
p1518
I147
sS'sort'
p1519
I1322
sS'constant'
p1520
I397
sS'saidscroog'
p1521
I1572
sS'haunt'
p1522
I511
sS'thefamili'
p1523
I1390
sS'robincruso'
p1524
I915
sS'pronounc'
p1525
I1365
sS'scrape'
p1526
I145
sS'thoughtof'
p1527
I1128
sS'referringto'
p1528
I334
sS'cluck'
p1529
I874
sS'nay'
p1530
I285
sS'nice'
p1531
I1975
sS'forthem'
p1532
I1668
sS'twotumbl'
p1533
I1342
sS'gointo'
p1534
I256
sS'door-nail'
p1535
I51
sS'closedit'
p1536
I464
sS'desert'
p1537
I868
sS'deserv'
p1538
I1079
sS'ago'
p1539
I343
sS'theinstant'
p1540
I780
sS'clappingh'
p1541
I942
sS'mulledwin'
p1542
I1504
sS'dot'
p1543
I2008
sS'far'
p1544
I1506
sS'pinion'
p1545
I1155
sS'scratch'
p1546
I1619
sS'waswhom'
p1547
I1814
sS'cratchit'
p1548
I1261
sS'enteredfirst'
p1549
I1633
sS'dispel'
p1550
I1392
sS'youup-stair'
p1551
I1978
sS'go'
p1552
I103
sS'phenomenon'
p1553
I462
sS'procur'
p1554
I675
sS'elsewher'
p1555
I1817
sS'stave'
p1556
I1564
sS'young'
p1557
I978
sS'send'
p1558
I1932
sS'becam'
p1559
I605
sS'sens'
p1560
I549
sS'penit'
p1561
I1360
sS'end'
p1562
I1508
sS'vestig'
p1563
I843
sS'onemarley'
p1564
I9
sS'namewa'
p1565
I39
sS'wipe'
p1566
I664
sS'tri'
p1567
I738
sS'byhalf'
p1568
I1267
sS'meant'
p1569
I1965
sS'button'
p1570
I445
sS'inclin'
p1571
I57
sS'beangri'
p1572
I1450
sS'marri'
p1573
I273
sS'_were_'
p1574
I532
sS'pleas'
p1575
I1959
sS'fortun'
p1576
I1082
sS'even-hand'
p1577
I1099
sS'natur'
p1578
I1485
sS'agreeabl'
p1579
I661
sS'fold'
p1580
I1523
sS'thisintercours'
p1581
I1841
sS'plead'
p1582
I223
sS'odd'
p1583
I1651
sS'folk'
p1584
I1072
sS'forhim'
p1585
I2011
sS'poke'
p1586
I245
sS'power'
p1587
I1736
sS'fine'
p1588
I1911
sS'slight'
p1589
I552
sS'whathad'
p1590
I1787
sS'find'
p1591
I300
sS'relent'
p1592
I1741
sS';'
p1593
I214
sS'bird'
p1594
I1942
sS'can'
p1595
I100
sS'vibrat'
p1596
I699
sS'chose'
p1597
I46
sS'leg'
p1598
I492
sS'bodi'
p1599
I1702
sS'coverley'
p1600
I1032
sS'let'
p1601
I230
sS'gaili'
p1602
I205
sS'wouldhav'
p1603
I1038
sS'sing'
p1604
I926
sS'becom'
p1605
I242
sS'sinc'
p1606
I383
sS'great'
p1607
I622
sS'convers'
p1608
I1625
sS'larger'
p1609
I932
sS'whichwa'
p1610
I1391
sS'opinion'
p1611
I1449
sS'chang'
p1612
I42
sS'dancelik'
p1613
I1052
sS'chanc'
p1614
I671
sS'hedread'
p1615
I1832
sS'forbid'
p1616
I964
sS'appli'
p1617
I1247
sS'emot'
p1618
I1747
sS'itnevertheless'
p1619
I1505
sS'wit'
p1620
I579
sS'beckon'
p1621
I705
sS'use'
p1622
I434
sS'butalway'
p1623
I1507
sS'from'
p1624
I293
sS'doubl'
p1625
I734
sS'next'
p1626
I694
sS'few'
p1627
I1075
sS'doubt'
p1628
I21
sS'inev'
p1629
I1159
sS'baba'
p1630
I888
sS'parliament'
p1631
I257
sS'babi'
p1632
I1899
sS'achanc'
p1633
I1636
sS'thehead'
p1634
I1712
sS'sister'
p1635
I1447
sS'fire-guard'
p1636
I486
sS'women'
p1637
I1009
sS'account'
p1638
I1673
sS'alik'
p1639
I1175
sS'this'
p1640
I94
sS'laoco\xc3\xb6n'
p1641
I1880
sS'of'
p1642
I7
sS'meet'
p1643
I1624
sS'aliv'
p1644
I973
sS'phantom'
p1645
I714
sS'bent'
p1646
I1369
sS'givesi'
p1647
I1080
sS'lock'
p1648
I735
sS'high'
p1649
I990
sS'comfortablewith'
p1650
I1441
sS'bend'
p1651
I944
sS'wentforth'
p1652
I1220
sS'sought'
p1653
I1130
sS'sitting-room'
p1654
I482
sS'andirresist'
p1655
I1144
sS'sir'
p1656
I253
sS'orson'
p1657
I895
sS'sit'
p1658
I541
sS'six'
p1659
I1006
sS'parlour'
p1660
I1641
sS'foggier'
p1661
I413
sS'water-plugb'
p1662
I405
sS'instead'
p1663
I810
sS'scroog'
p1664
I37
sS'sin'
p1665
I1671
sS'half-hour'
p1666
I1494
sS'singular'
p1667
I809
sS'uponhi'
p1668
I900
sS'light'
p1669
I644
sS'issu'
p1670
I1049
sS'chief'
p1671
I35
sS'allow'
p1672
I1954
sS'counten'
p1673
I681
sS'move'
p1674
I1570
sS'own'
p1675
I228
sS'thecas'
p1676
I1709
sS'perfect'
p1677
I1430
sS'till'
p1678
I1645
sS'll'
p1679
I311
sS'glee'
p1680
I948
sS'shudder'
p1681
I1630
sS'bedpost'
p1682
I1865
sS'themwhen'
p1683
I1718
sS'therefor'
p1684
I67
sS'skater'
p1685
I1622
sS'handl'
p1686
I1345
sS'mention'
p1687
I88
sS'kiss'
p1688
I1273
sS'day'
p1689
I424
sS'strive'
p1690
I1849
sS'anyth'
p1691
I44
sS'radiant'
p1692
I1234
sS'feast'
p1693
I1376
sS'excresc'
p1694
I1601
sS'proseb'
p1695
I4
sS'truth'
p1696
I1143
sS'muchhappi'
p1697
I1969
sS'beneath'
p1698
I1729
sS'stock'
p1699
I1881
sS'littlecreek'
p1700
I921
sS'intellig'
p1701
I1912
sS'andmuscular'
p1702
I789
sS'theback'
p1703
I882
sS'our'
p1704
I1114
sS'marley'
p1705
I72
sS'wander'
p1706
I576
sS'out'
p1707
I115
sS"'"
p1708
I1230
sS'strongeryet'
p1709
I1860
sS'influenc'
p1710
I161
sS'suitabl'
p1711
I1648
sS'merg'
p1712
I1102
sS'shut'
p1713
I421
sS'towardsth'
p1714
I834
sS'undo'
p1715
I1677
sS'by-the-by'
p1716
I1797
sS'shun'
p1717
I685
sS'turnedto'
p1718
I410
sS'princess'
p1719
I906
sS'theirhand'
p1720
I329
sS'could'
p1721
I78
sS'keep'
p1722
I225
sS'keen'
p1723
I1125
sS'length'
p1724
I267
sS'outsid'
p1725
I1531
sS'mortal'
p1726
I837
sS'ofdecemb'
p1727
I444
sS'qualiti'
p1728
I801
sS'scene'
p1729
I1064
sS'echo'
p1730
I472
sS'whoop'
p1731
I1885
sS'heha'
p1732
I1768
sS'firstof'
p1733
I766
sS'glisten'
p1734
I866
sS'trembl'
p1735
I584
sS'werenot'
p1736
I373
sS'their'
p1737
I401
sS'man'
p1738
I393
sS'stomach'
p1739
I554
sS'punish'
p1740
I1436
sS'ogr'
p1741
I1389
sS'accompani'
p1742
I980
sS'nobodi'
p1743
I1380
sS'aught'
p1744
I1225
sS'bother'
p1745
I769
sS'repuls'
p1746
I1861
sS'bed'
p1747
I743
sS'helpedit'
p1748
I1780
sS'hadnev'
p1749
I524
sS'withher'
p1750
I1017
sS'terribl'
p1751
I954
sS'fowl'
p1752
I873
sS'whichpoint'
p1753
I975
sS'have'
p1754
I55
sS'tabl'
p1755
I1762
sS'need'
p1756
I1250
sS'border'
p1757
I1210
sS'afraid'
p1758
I1213
sS'isth'
p1759
I1706
sS'hadent'
p1760
I733
sS'mix'
p1761
I1608
sS'which'
p1762
I306
sS'martha'
p1763
I1264
sS'great-coat'
p1764
I446
sS'_i_'
p1765
I1141
sS'_my_'
p1766
I1678
sS'clash'
p1767
I1905
sS'who'
p1768
I530
sS'whi'
p1769
I271
sS'won-der-'
p1770
I1987
sS'hethen'
p1771
I819
sS'inoper'
p1772
I370
sS'clasp'
p1773
I521
sS'bred'
p1774
I847
sS'face'
p1775
I459
sS'theinsect'
p1776
I1363
sS'deni'
p1777
I1552
sS'andscroog'
p1778
I475
sS'_he_'
p1779
I904
sS'gain'
p1780
I1109
sS'son'
p1781
I111
sS'niec'
p1782
I1421
sS'connect'
p1783
I1627
sS'bring'
p1784
I90
sS'bedroom'
p1785
I483
sS'fear'
p1786
I1100
sS'nearer'
p1787
I2002
sS'ha'
p1788
I1410
sS'jaw'
p1789
I702
sS'undergonea'
p1790
I1197
sS'forev'
p1791
I949
sS'should'
p1792
I222
sS'suppos'
p1793
I425
sS're-echo'
p1794
I1347
sS'hope'
p1795
I672
sS'immort'
p1796
I1717
sS'satisfact'
p1797
I1442
sS'beat'
p1798
I755
sS'bear'
p1799
I1187
sS'beam'
p1800
I1004
sS'wassuch'
p1801
I1311
sS'increas'
p1802
I797
sS'wring'
p1803
I631
sS'eyebrow'
p1804
I153
sS'sha'
p1805
I1931
sS'she'
p1806
I961
sS'shrunk'
p1807
I1862
sS'conduct'
p1808
I1150
sS'frame'
p1809
I1291
sS'funer'
p1810
I89
sS'troubl'
p1811
I571
sS'boymust'
p1812
I1760
sS'pattern'
p1813
I587
sS'misus'
p1814
I629
sS'wiri'
p1815
I154
sS'hesaid'
p1816
I1796
sS'state'
p1817
I1496
sS'neither'
p1818
I1569
sS'spiritpaus'
p1819
I1575
sS'lookedabout'
p1820
I846
sS'merri'
p1821
I185
sS'joy'
p1822
I1172
sS'dislik'
p1823
I1452
sS'joe'
p1824
I1635
sS'belinda'
p1825
I1319
sS'precious'
p1826
I1260
sS'swift'
p1827
I1399
sS'exclaim'
p1828
I816
sS'joke'
p1829
I1935
sS'butsubstitut'
p1830
I537
sS'admit'
p1831
I1556
sS'admir'
p1832
I1316
sS'thisrat'
p1833
I648
sS'andfeel'
p1834
I1631
sS'glorious'
p1835
I1908
sS'wall'
p1836
I1402
sS'ca'
p1837
I385
sS'arriv'
p1838
I423
sS'walk'
p1839
I453
sS'incess'
p1840
I614
sS'laugh'
p1841
I945
sS'quit'
p1842
I251
sS'slowli'
p1843
I1567
sS'tread'
p1844
I687
sS'ebenez'
p1845
I676
sS'gaze'
p1846
I850
sS'besid'
p1847
I390
sS'wasth'
p1848
I1746
sS'certain'
p1849
I345
sS'curtain'
p1850
I781
sS'immedi'
p1851
I823
sS'general'
p1852
I1596
sS'presenc'
p1853
I1571
sS'befrighten'
p1854
I471
sS'inexor'
p1855
I1819
sS'togeth'
p1856
I508
sS'furnitur'
p1857
I1824
sS'an'
p1858
I318
sS'present'
p1859
I1203
sS'bye'
p1860
I1605
sS'plain'
p1861
I1667
sS'will'
p1862
I177
sS'observ'
p1863
I392
sS'engag'
p1864
I1756
sS'almost'
p1865
I682
sS'thus'
p1866
I1837
sS'substanti'
p1867
I1002
sS'partner'
p1868
I82
sS'hecould'
p1869
I729
sS'cometo'
p1870
I1802
sS'parti'
p1871
I307
sS'began'
p1872
I649
sS'cross'
p1873
I217
sS'ina'
p1874
I999
sS'speaker'
p1875
I1606
sS'prais'
p1876
I1045
sS'ball'
p1877
I1058
sS'thebandag'
p1878
I704
sS'forgotten'
p1879
I857
sS'upon'
p1880
I41
sS'breech'
p1881
I608
sS'dust'
p1882
I1368
sS'reclam'
p1883
I824
sS'aparti'
p1884
I1597
sS'off'
p1885
I1106
sS'i'
p1886
I53
sS'colour'
p1887
I1764
sS'well'
p1888
I565
sS'ajudg'
p1889
I1664
sS'ofregret'
p1890
I626
sS'usual'
p1891
I485
sS'distanc'
p1892
I812
sS'paus'
p1893
I1310
sS'flesh'
p1894
I1521
sS'theevent'
p1895
I1755
sS'mistaken'
p1896
I2005
sS'ispreci'
p1897
I1582
sS'momenti'
p1898
I1813
sS'theros'
p1899
I1463
sS'paul'
p1900
I105
sS'shutth'
p1901
I1646
sS'hewa'
p1902
I1708
sS'rapid'
p1903
I753
sS'workingnow'
p1904
I1224
sS'thesort'
p1905
I1027
sS'bell'
p1906
I505
sS'drew'
p1907
I1788
sS'book'
p1908
I327
sS'wet'
p1909
I1876
sS'match'
p1910
I1039
sS'andsh'
p1911
I878
sS'howth'
p1912
I1395
sS'piec'
p1913
I62
sS'five'
p1914
I1393
sS'know'
p1915
I85
sS'uppermemb'
p1916
I795
sS'desk'
p1917
I991
sS'ghostmarley'
p1918
I11
sS'loss'
p1919
I1662
sS'mybusi'
p1920
I633
sS'like'
p1921
I184
sS'success'
p1922
I1334
sS'necessari'
p1923
I358
sS'infernalatmospher'
p1924
I563
sS'heed'
p1925
I825
sS'lose'
p1926
I1455
sS'soft'
p1927
I807
sS'exceed'
p1928
I651
sS'glare'
p1929
I1544
sS'home'
p1930
I643
sS'peter'
p1931
I1767
sS'transport'
p1932
I1901
sS'leaf'
p1933
I1364
sS'lead'
p1934
I1580
sS'miner'
p1935
I1397
sS'shone'
p1936
I1051
sS'leap'
p1937
I518
sS'passion'
p1938
I1108
sS'saucepan'
p1939
I1887
sS'thecurtain'
p1940
I784
sS'obey'
p1941
I1196
sS'worthi'
p1942
I1042
sS'mantl'
p1943
I1209
sS'devil'
p1944
I1542
sS'ominousword'
p1945
I348
sS'about'
p1946
I23
sS'linger'
p1947
I601
sS'justic'
p1948
I1135
sS'withdrew'
p1949
I403
sS'hearth-ston'
p1950
I1730
sS'peal'
p1951
I1904
sS'foretold'
p1952
I805
sS'theshout'
p1953
I1165
sS'hisway'
p1954
I763
sS'desper'
p1955
I709
sS'tortur'
p1956
I1152
sS'weather'
p1957
I165
sS'camden'
p1958
I1947
sS'rememberthat'
p1959
I1257
sS'peoplein'
p1960
I326
sS'whydid'
p1961
I864
sS'custard'
p1962
I1343
sS'transfer'
p1963
I1749
sS'*'
p1964
I2009
sS'theirown'
p1965
I1435
sS'thefeast'
p1966
I1375
sS'theman'
p1967
I1840
sS'whichhi'
p1968
I787
sS'buy'
p1969
I1923
sS'mutter'
p1970
I1218
sS'but'
p1971
I131
sS'ho'
p1972
I985
sS'overflow'
p1973
I407
sS'ear'
p1974
I771
sS'he'
p1975
I45
sS'count'
p1976
I775
sS'made'
p1977
I308
sS'displac'
p1978
I1096
sS'whether'
p1979
I723
sS'wish'
p1980
I371
sS"you'reparticular"
p1981
I534
sS'idol'
p1982
I1095
sS'glori'
p1983
I1235
sS'otherwis'
p1984
I80
sS'youalway'
p1985
I1438
sS'whisper'
p1986
I1956
sS'dure'
p1987
I1060
sS'startingoff'
p1988
I1889
sS'somethingveri'
p1989
I558
sS'girl'
p1990
I1269
sS'limb'
p1991
I1288
sS'boot'
p1992
I1480
sS'detain'
p1993
I1859
sS'other'
p1994
I325
sS'futur'
p1995
I1351
sS'rememb'
p1996
I854
sS'behold'
p1997
I1816
sS'redden'
p1998
I1377
sS'credul'
p1999
I1296
sS'wantwith'
p2000
I529
sS'repeat'
p2001
I70
sS'kindr'
p2002
I346
sS'plate'
p2003
I1317
sS'entirelyvanish'
p2004
I842
sS'stay'
p2005
I600
sS'church-yard'
p2006
I106
sS'hiswit'
p2007
I1062
sS'sobbingviol'
p2008
I1874
sS'ghost'
p2009
I5
sS'sentiment'
p2010
I1498
sS'baker'
p2011
I1015
sS'syllabl'
p2012
I740
s.