(dp0
S'pardon'
p1
I2200
sS'personally'
p2
I768
sS'ofall'
p3
I1523
sS'foul'
p4
I168
sS'wouldbecome'
p5
I1147
sS'four'
p6
I1126
sS'sleep'
p7
I1952
sS'hanging'
p8
I2159
sS'assembled'
p9
I1546
sS'whose'
p10
I861
sS'unanimity'
p11
I2235
sS'namedthem'
p12
I930
sS'counting-house'
p13
I436
sS'towardsthe'
p14
I898
sS'lord'
p15
I1403
sS'sorry'
p16
I303
sS'reddening'
p17
I1509
sS'worth'
p18
I1231
sS'_me_'
p19
I689
sS'rise'
p20
I891
sS'knelt'
p21
I1686
sS'every'
p22
I456
sS'whichhis'
p23
I842
sS'jacob'
p24
I568
sS'vast'
p25
I1086
sS'school'
p26
I937
sS'prize'
p27
I2157
sS'parrot'
p28
I982
sS'clothed'
p29
I1315
sS'charwoman'
p30
I1801
sS'yedown'
p31
I1401
sS'parted'
p32
I1249
sS'winded'
p33
I2120
sS'miller'
p34
I2176
sS'pulse'
p35
I807
sS'second'
p36
I740
sS'street'
p37
I1780
sS'even'
p38
I555
sS'acheerful'
p39
I224
sS'prisons'
p40
I370
sS'solemn'
p41
I2057
sS'thunder'
p42
I487
sS'near'
p43
I1671
sS'yonder'
p44
I2037
sS'above'
p45
I120
sS'conduct'
p46
I1251
sS'new'
p47
I128
sS'increasing'
p48
I853
sS'ever'
p49
I241
sS'sidled'
p50
I2229
sS'told'
p51
I1291
sS'festive'
p52
I362
sS'gripingcares'
p53
I1916
sS'never'
p54
I113
sS'kindred'
p55
I354
sS'here'
p56
I463
sS'hundreds'
p57
I368
sS'met'
p58
I1806
sS'resounded'
p59
I483
sS'humility'
p60
I1696
sS'daughter'
p61
I1420
sS'crossedarms'
p62
I1861
sS'changed'
p63
I1211
sS'piercing'
p64
I430
sS'permit'
p65
I68
sS'suitable'
p66
I1819
sS'punishment'
p67
I1575
sS'eyebrows'
p68
I154
sS'golden'
p69
I1194
sS'theghost'
p70
I1292
sS'brought'
p71
I750
sS'patience'
p72
I1585
sS'cheats'
p73
I586
sS'christmas-eve'
p74
I1071
sS'glance'
p75
I1178
sS'isuppose'
p76
I461
sS'spoke'
p77
I888
sS'would'
p78
I267
sS'nine'
p79
I2240
sS'ideataking'
p80
I1300
sS'arms'
p81
I844
sS'scroogelooked'
p82
I1014
sS'blindman'
p83
I1624
sS'music'
p84
I1619
sS'therefore'
p85
I67
sS'strike'
p86
I1903
sS'hiswild'
p87
I966
sS'until'
p88
I553
sS'theway'
p89
I1630
sS'distinctlyunderstood'
p90
I96
sS'churchyard'
p91
I2049
sS'brings'
p92
I90
sS'warn'
p93
I715
sS'glass'
p94
I1657
sS'warm'
p95
I1402
sS'ihave'
p96
I1225
sS'hold'
p97
I846
sS'blindfold'
p98
I922
sS'overrun'
p99
I950
sS'must'
p100
I95
sS'me'
p101
I69
sS'locked'
p102
I787
sS'room'
p103
I323
sS'shame'
p104
I1355
sS'pursue'
p105
I413
sS'work'
p106
I1069
sS'laundress'
p107
I1803
sS'to-morrow'
p108
I266
sS'incame'
p109
I1100
sS'leaped'
p110
I544
sS'my'
p111
I304
sS'shook'
p112
I359
sS'give'
p113
I638
sS'advancedtowards'
p114
I1539
sS'allpermitted'
p115
I639
sS'laughs'
p116
I2130
sS'want'
p117
I298
sS'times'
p118
I1127
sS'ofthe'
p119
I501
sS'end'
p120
I1664
sS'turn'
p121
I1615
sS'provide'
p122
I1331
sS'agony'
p123
I2083
sS'travel'
p124
I659
sS'how'
p125
I77
sS'hot'
p126
I1111
sS'longline'
p127
I2128
sS'littlechild'
p128
I1991
sS'answer'
p129
I212
sS'place'
p130
I913
sS'poker'
p131
I514
sS'lad'
p132
I2151
sS'reconciled'
p133
I1999
sS'earlier'
p134
I464
sS'wrong'
p135
I797
sS'poked'
p136
I249
sS'lay'
p137
I2051
sS'curiosity'
p138
I757
sS'law'
p139
I385
sS'_they_'
p140
I2233
sS'calves'
p141
I1142
sS'third'
p142
I742
sS'haste'
p143
I766
sS'half-a-crown'
p144
I443
sS'wind'
p145
I662
sS'emotion'
p146
I1949
sS'office'
p147
I2042
sS'devote'
p148
I1620
sS'dreamed'
p149
I1964
sS'over'
p150
I664
sS'eyesin'
p151
I1628
sS'ebenezer'
p152
I721
sS'clapped'
p153
I2259
sS'before'
p154
I291
sS'coffin-nail'
p155
I60
sS','
p156
I14
sS'writing'
p157
I2082
sS'better'
p158
I211
sS'glanced'
p159
I1900
sS'nobler'
p160
I1201
sS'overcome'
p161
I1489
sS'youwere'
p162
I1215
sS'them'
p163
I581
sS'weakness'
p164
I1852
sS'abreathless'
p165
I1434
sS'scene'
p166
I1156
sS'break'
p167
I1447
sS'bang'
p168
I481
sS'beingso'
p169
I868
sS'they'
p170
I170
sS'one'
p171
I340
sS'shadows'
p172
I925
sS"'uncle"
p173
I1659
sS'conflict'
p174
I2104
sS'each'
p175
I1833
sS'went'
p176
I270
sS'side'
p177
I573
sS'blushed'
p178
I1468
sS'mean'
p179
I1862
sS'lighthearts'
p180
I1953
sS'burial'
p181
I28
sS'calmly'
p182
I1460
sS'laying'
p183
I374
sS'thisintercourse'
p184
I2066
sS'caustic'
p185
I556
sS'ghosts'
p186
I534
sS'prosebeing'
p187
I4
sS'large'
p188
I1042
sS'andwas'
p189
I1488
sS'fraught'
p190
I1222
sS'god'
p191
I188
sS'ha'
p192
I1549
sS'fellows'
p193
I1072
sS'content'
p194
I1422
sS'laid'
p195
I1056
sS'maynot'
p196
I702
sS'tight-fisted'
p197
I140
sS'got'
p198
I663
sS'turning'
p199
I259
sS'little'
p200
I161
sS'_her_'
p201
I1130
sS'sailinground'
p202
I986
sS'dinewith'
p203
I1596
sS'struggle'
p204
I1238
sS'mistress'
p205
I2224
sS'thetank'
p206
I2243
sS'days'
p207
I818
sS'crusoe'
p208
I984
sS'notthe'
p209
I2160
sS'arrived'
p210
I437
sS'shuttersdown'
p211
I1352
sS'already'
p212
I2226
sS'officious'
p213
I1399
sS'hoop'
p214
I998
sS'theirtalk'
p215
I1754
sS'hearing'
p216
I1505
sS'lovable'
p217
I1092
sS'andit'
p218
I1370
sS'another'
p219
I1216
sS'wasa'
p220
I1920
sS'thelustiest'
p221
I2138
sS'immovable'
p222
I2063
sS'girls'
p223
I1986
sS'andyour'
p224
I1381
sS'vibrate'
p225
I746
sS'shewas'
p226
I1131
sS'kinder'
p227
I1029
sS'master'
p228
I1033
sS'too'
p229
I591
sS'legs'
p230
I513
sS'fixedly'
p231
I477
sS'listen'
p232
I1753
sS'curtains'
p233
I836
sS'frowned'
p234
I358
sS'took'
p235
I1863
sS'knowwhether'
p236
I2154
sS'wasted'
p237
I1878
sS'peculiar'
p238
I1358
sS'begins'
p239
I1610
sS'mercy'
p240
I601
sS'icicle'
p241
I798
sS'likely'
p242
I1870
sS'matter'
p243
I1000
sS'idle'
p244
I398
sS'exclaimed'
p245
I875
sS'silly'
p246
I1164
sS'iron'
p247
I1412
sS'thespirits'
p248
I2149
sS'feeling'
p249
I1218
sS'mind'
p250
I52
sS'mine'
p251
I234
sS'anhour'
p252
I527
sS'manner'
p253
I1851
sS'stomach'
p254
I584
sS'seek'
p255
I1367
sS'tells'
p256
I1219
sS'dozen'
p257
I1395
sS'forced'
p258
I1258
sS'strength'
p259
I848
sS'convenient'
p260
I440
sS'niece'
p261
I1560
sS'laughed'
p262
I1285
sS'explanation'
p263
I1778
sS'itscoming'
p264
I541
sS'fiveminutes'
p265
I1297
sS'gravy'
p266
I587
sS'exactly'
p267
I2055
sS'shall'
p268
I391
sS'hisheart'
p269
I1421
sS'milkman'
p270
I1108
sS'glimpses'
p271
I1354
sS'plenty'
p272
I372
sS'echoes'
p273
I489
sS'ironmongery'
p274
I63
sS'hide'
p275
I1406
sS'the'
p276
I25
sS'grave'
p277
I588
sS'atthe'
p278
I791
sS'alarm'
p279
I1277
sS'alas'
p280
I1407
sS'carolin'
p281
I3
sS'briskly'
p282
I1061
sS'came'
p283
I173
sS'retire'
p284
I328
sS'loitered'
p285
I2146
sS'wrung'
p286
I621
sS'earth'
p287
I608
sS'hearth-stone'
p288
I1924
sS'enjoyed'
p289
I1160
sS'departed'
p290
I2060
sS'toast'
p291
I1520
sS'busy'
p292
I388
sS'just'
p293
I499
sS'spite'
p294
I1236
sS'wolfish'
p295
I1694
sS'factious'
p296
I1717
sS'hispipe'
p297
I1809
sS'touched'
p298
I801
sS'rich'
p299
I209
sS'folks'
p300
I1165
sS'emphatically'
p301
I71
sS'do'
p302
I83
sS'reverently'
p303
I1314
sS"'i"
p304
I2008
sS'de'
p305
I1120
sS'stop'
p306
I1622
sS'foremost'
p307
I1913
sS'pocket'
p308
I455
sS'shutting'
p309
I435
sS'haunted'
p310
I535
sS'altogether'
p311
I1566
sS'congealed'
p312
I423
sS"'poor"
p313
I988
sS'behindhand'
p314
I1555
sS'twice'
p315
I1124
sS'bad'
p316
I1936
sS'softly'
p317
I1190
sS'release'
p318
I1228
sS'steam'
p319
I1454
sS'bah'
p320
I193
sS'ears'
p321
I1910
sS'penance'
p322
I712
sS'fair'
p323
I441
sS'habit'
p324
I644
sS'stoppingin'
p325
I1875
sS'observed'
p326
I404
sS'flashed'
p327
I834
sS'ofany'
p328
I1230
sS'miserable'
p329
I1685
sS'hammer'
p330
I2141
sS'best'
p331
I1876
sS'_my_'
p332
I1856
sS'snuff'
p333
I1756
sS'said'
p334
I194
sS'lots'
p335
I1081
sS'away'
p336
I1079
sS'gentleman'
p337
I373
sS'consequence'
p338
I1597
sS'mud'
p339
I1542
sS'finger'
p340
I1781
sS'drawn'
p341
I837
sS'sorts'
p342
I1449
sS'approach'
p343
I753
sS'we'
p344
I301
sS'men'
p345
I1097
sS'nature'
p346
I1635
sS'wo'
p347
I540
sS'lookedout'
p348
I758
sS'weak'
p349
I112
sS'however'
p350
I1571
sS'toscrooge'
p351
I770
sS'wear'
p352
I625
sS'travellers'
p353
I929
sS'cousin'
p354
I1103
sS'picking'
p355
I454
sS'debt'
p356
I1950
sS'pity'
p357
I1614
sS'received'
p358
I1274
sS'shadowsremain'
p359
I1479
sS'ithas'
p360
I2185
sS'ill'
p361
I447
sS'cup'
p362
I1473
sS'demanded'
p363
I378
sS'games'
p364
I2234
sS'mildly'
p365
I916
sS'asked'
p366
I371
sS'appeared'
p367
I2067
sS'incessant'
p368
I656
sS'robincrusoe'
p369
I989
sS'trust'
p370
I1928
sS'speak'
p371
I1245
sS'_to_'
p372
I564
sS'union'
p373
I376
sS'tortureof'
p374
I657
sS'three'
p375
I512
sS'been'
p376
I56
sS'useto'
p377
I1580
sS'much'
p378
I238
sS'withtears'
p379
I2106
sS'entered'
p380
I1309
sS'warmth'
p381
I163
sS'idol'
p382
I1191
sS'hisown'
p383
I2097
sS'life'
p384
I567
sS'crying'
p385
I2108
sS'glided'
p386
I1779
sS'uncommon'
p387
I847
sS'hisarrival'
p388
I2181
sS'child'
p389
I940
sS'catch'
p390
I1637
sS'chill'
p391
I167
sS'patting'
p392
I2182
sS'has'
p393
I240
sS'tank'
p394
I243
sS'air'
p395
I759
sS'strangest'
p396
I856
sS'evening'
p397
I1621
sS'suppose'
p398
I439
sS'voice'
p399
I192
sS'seven'
p400
I348
sS'is'
p401
I19
sS'it'
p402
I38
sS'skipping'
p403
I1074
sS'eighteen'
p404
I1327
sS'in'
p405
I229
sS'if'
p406
I283
sS'grown'
p407
I1059
sS'growl'
p408
I468
sS'things'
p409
I926
sS'make'
p410
I395
sS'beside'
p411
I704
sS'smelllike'
p412
I1457
sS'plates'
p413
I1444
sS'several'
p414
I520
sS'outits'
p415
I1713
sS'grows'
p416
I1182
sS'bells'
p417
I528
sS'jocund'
p418
I928
sS'springing'
p419
I1905
sS'alittle'
p420
I1009
sS'pick'
p421
I1831
sS'hand'
p422
I48
sS'delight'
p423
I1271
sS'aponderous'
p424
I634
sS'supposing'
p425
I1654
sS'insisted'
p426
I1179
sS'thoughts'
p427
I1914
sS'thy'
p428
I2026
sS'echoed'
p429
I1167
sS'ocean'
p430
I682
sS'ragged'
p431
I1692
sS'greatest'
p432
I1462
sS'detained'
p433
I2088
sS'mother'
p434
I1387
sS'nomore'
p435
I1255
sS'hearts'
p436
I1095
sS'youwill'
p437
I66
sS'yours'
p438
I1705
sS'left'
p439
I322
sS'andscrooge'
p440
I494
sS'halloo'
p441
I999
sS'consciousness'
p442
I927
sS'halloa'
p443
I997
sS'farther'
p444
I1993
sS'human'
p445
I1634
sS'hedreaded'
p446
I2056
sS'yes'
p447
I268
sS'yet'
p448
I428
sS'had'
p449
I160
sS'wings'
p450
I661
sS'save'
p451
I189
sS'hat'
p452
I2244
sS'himalong'
p453
I1749
sS'gave'
p454
I1742
sS'possible'
p455
I809
sS'shadow'
p456
I1254
sS'advanced'
p457
I1752
sS'apart'
p458
I1994
sS'desire'
p459
I502
sS'martha'
p460
I1383
sS'appearing'
p461
I1389
sS'zeal'
p462
I1400
sS'steps'
p463
I2216
sS'night'
p464
I352
sS'hung'
p465
I1311
sS'devils'
p466
I1699
sS'bedismal'
p467
I207
sS'bemarried'
p468
I978
sS'right'
p469
I199
sS'old'
p470
I116
sS'deal'
p471
I1453
sS'people'
p472
I127
sS'sends'
p473
I2174
sS'somehow'
p474
I1424
sS'dead'
p475
I13
sS'sponge'
p476
I2081
sS'born'
p477
I1866
sS'dear'
p478
I963
sS'bore'
p479
I1408
sS'undisturbed'
p480
I789
sS'yourcheek'
p481
I918
sS'ice'
p482
I426
sS'everything'
p483
I1158
sS'treadmill'
p484
I384
sS'quitea'
p485
I2133
sS'christmas'
p486
I2
sS'liehere'
p487
I1783
sS'sewing'
p488
I1960
sS'bold'
p489
I879
sS'water-plugbeing'
p490
I418
sS'ownsenses'
p491
I578
sS'illustration'
p492
I222
sS'dilber'
p493
I1826
sS'onthe'
p494
I1633
sS'coal-scuttlebefore'
p495
I2262
sS'tostop'
p496
I442
sS'recollect'
p497
I919
sS'dinner'
p498
I1364
sS'afternoon'
p499
I297
sS'astiny'
p500
I2267
sS'ofchristmas'
p501
I2126
sS'raised'
p502
I619
sS"spirit'ssorrowful"
p503
I1679
sS'ifcalico'
p504
I1885
sS'mantle'
p505
I1319
sS'wasting'
p506
I1879
sS'bound'
p507
I449
sS'anythinghas'
p508
I810
sS'down'
p509
I174
sS'lies'
p510
I1287
sS'packagewas'
p511
I1273
sS'sow'
p512
I1907
sS'frightened'
p513
I1893
sS'hethen'
p514
I878
sS'hallo'
p515
I1452
sS'achance'
p516
I1805
sS'constantly'
p517
I409
sS'grasping'
p518
I145
sS'clappingher'
p519
I1020
sS'way'
p520
I232
sS'obliged'
p521
I2212
sS'call'
p522
I1857
sS'was'
p523
I12
sS'war'
p524
I1384
sS"scrooge'sniece"
p525
I1586
sS'happy'
p526
I320
sS'head'
p527
I153
sS'becoming'
p528
I246
sS'forever'
p529
I1027
sS'heat'
p530
I158
sS'hear'
p531
I390
sS'true'
p532
I1047
sS'admiration'
p533
I1443
sS'flavour'
p534
I1359
sS'friday'
p535
I994
sS'morning'
p536
I1792
sS'attached'
p537
I1065
sS'bounds'
p538
I932
sS'poulterers'
p539
I1344
sS'bide'
p540
I1720
sS'prayed'
p541
I1946
sS'havedone'
p542
I1989
sS'impropriety'
p543
I248
sS'evidence'
p544
I575
sS"''"
p545
I175
sS'promised'
p546
I466
sS'wintry'
p547
I165
sS'theinsect'
p548
I1494
sS'dying'
p549
I542
sS'no'
p550
I20
sS'colder'
p551
I429
sS'when'
p552
I177
sS'whereat'
p553
I1602
sS'handed'
p554
I360
sS'reality'
p555
I576
sS'power'
p556
I1932
sS'tim'
p557
I1382
sS'papers'
p558
I336
sS'warehouse'
p559
I121
sS'theycling'
p560
I1706
sS"'s"
p561
I10
sS'brothers'
p562
I1326
sS'felt'
p563
I1177
sS'stockings'
p564
I2113
sS"'d"
p565
I444
sS'intent'
p566
I958
sS'rolling'
p567
I683
sS"'m"
p568
I975
sS'fire-place'
p569
I574
sS'died'
p570
I1045
sS'grief'
p571
I1491
sS'younger'
p572
I956
sS'to-day'
p573
I1988
sS'longer'
p574
I1296
sS'together'
p575
I531
sS'jaws'
p576
I749
sS'teeth'
p577
I748
sS'serious'
p578
I2204
sS'chain'
p579
I546
sS'dance'
p580
I1123
sS'themes'
p581
I1441
sS'mild'
p582
I1515
sS'chair'
p583
I1995
sS'toothpick'
p584
I596
sS'midst'
p585
I1963
sS'scowling'
p586
I1693
sS'certainly'
p587
I353
sS'father'
p588
I1028
sS'bordered'
p589
I1320
sS'answered'
p590
I132
sS'charge'
p591
I1376
sS'praised'
p592
I1983
sS'hereto-night'
p593
I714
sS'dispelled'
p594
I1529
sS'iput'
p595
I392
sS'chirrup'
p596
I1083
sS'anonymous'
p597
I393
sS'cook'
p598
I1105
sS'word'
p599
I326
sS'trouble'
p600
I604
sS'minute'
p601
I525
sS'did'
p602
I76
sS'die'
p603
I401
sS'brother'
p604
I967
sS'leave'
p605
I236
sS'spiritsthe'
p606
I1726
sS'quick'
p607
I1184
sS'round'
p608
I1415
sS'talked'
p609
I2002
sS'slower'
p610
I1978
sS'dealing'
p611
I1196
sS'coach-houses'
p612
I948
sS'athing'
p613
I1470
sS'cost'
p614
I1175
sS'spectral'
p615
I2085
sS'appear'
p616
I700
sS'*scrooge'
p617
I2265
sS'orhandsome'
p618
I1261
sS'goes'
p619
I993
sS'shared'
p620
I616
sS'falling'
p621
I1646
sS'filled'
p622
I760
sS'nearer'
p623
I2254
sS'honour'
p624
I2073
sS'clerk'
p625
I32
sS'involuntarily'
p626
I244
sS'water'
p627
I680
sS'groups'
p628
I1777
sS'alone'
p629
I237
sS'['
p630
I221
sS'change'
p631
I2040
sS'box'
p632
I1034
sS'boy'
p633
I914
sS'havechosen'
p634
I1248
sS'impatiently'
p635
I1217
sS'brilliant'
p636
I2129
sS'thesmart'
p637
I747
sS'bob'
p638
I1414
sS'quarrel'
p639
I311
sS'hither'
p640
I763
sS'love'
p641
I281
sS'humour'
p642
I318
sS'hishand'
p643
I2183
sS'giveit'
p644
I293
sS'butprostrate'
p645
I1695
sS'toquarrel'
p646
I1356
sS'everybody'
p647
I2015
sS'wealth'
p648
I1579
sS'sake'
p649
I1518
sS'positive'
p650
I1139
sS'angry'
p651
I263
sS'thebandage'
p652
I751
sS'vigour'
p653
I387
sS'memory'
p654
I1246
sS'angels'
p655
I1697
sS'roared'
p656
I1556
sS'``'
p657
I172
sS'extensive'
p658
I1848
sS'credulity'
p659
I1418
sS'afford'
p660
I397
sS'neglected'
p661
I941
sS'buttoning'
p662
I459
sS'caroline'
p663
I1939
sS'indescribable'
p664
I1280
sS'won-der-ful'
p665
I2236
sS'soul'
p666
I1155
sS'cat'
p667
I1918
sS'fourthe'
p668
I1725
sS'can'
p669
I100
sS'stature'
p670
I874
sS'believed'
p671
I552
sS'making'
p672
I2110
sS'deceased'
p673
I473
sS'heart'
p674
I305
sS'theparrot'
p675
I992
sS'whatthen'
p676
I1210
sS'paused'
p677
I2046
sS'heard'
p678
I533
sS'stroke'
p679
I744
sS'rememberthat'
p680
I1375
sS'chin'
p681
I156
sS'counting'
p682
I830
sS'till'
p683
I1815
sS'sunday'
p684
I1987
sS'skater'
p685
I1791
sS'toldit'
p686
I1117
sS'rimewas'
p687
I151
sS'retorted'
p688
I1208
sS'thewiser'
p689
I1830
sS'may'
p690
I239
sS'speedof'
p691
I1985
sS'informs'
p692
I2029
sS'mankind'
p693
I675
sS'such'
p694
I516
sS'couldfeign'
p695
I2247
sS'man'
p696
I405
sS'remember'
p697
I920
sS'succeeded'
p698
I1433
sS'whenever'
p699
I645
sS'personhas'
p700
I1827
sS'so'
p701
I307
sS'talk'
p702
I2163
sS'drunken'
p703
I2115
sS'yearsafterwards'
p704
I119
sS'shoes'
p705
I508
sS'indeed'
p706
I269
sS'pointed'
p707
I955
sS'midnight'
p708
I1668
sS'years'
p709
I87
sS'course'
p710
I75
sS'shake'
p711
I2068
sS'cold'
p712
I159
sS'still'
p713
I379
sS'tendency'
p714
I1656
sS'himto'
p715
I1259
sS'solitary'
p716
I939
sS'limbs'
p717
I1410
sS'yawning'
p718
I1760
sS'thank'
p719
I2213
sS'presence'
p720
I1733
sS'amhere'
p721
I2107
sS'window'
p722
I755
sS'remorse'
p723
I658
sS'wasthe'
p724
I1948
sS'happened'
p725
I292
sS'goodst'
p726
I433
sS'upnow'
p727
I1912
sS'truest'
p728
I1839
sS'eyesupon'
p729
I1503
sS'beseech'
p730
I1933
sS'to-night'
p731
I1070
sS'liberality'
p732
I357
sS'tucker'
p733
I1606
sS'remonstrated'
p734
I902
sS'half'
p735
I524
sS'not'
p736
I294
sS'now'
p737
I296
sS'strivewithin'
p738
I2101
sS'hall'
p739
I952
sS'nor'
p740
I554
sS'uponhis'
p741
I973
sS'term'
p742
I1134
sS"home'slike"
p743
I1030
sS'name'
p744
I117
sS'drop'
p745
I679
sS'_you_'
p746
I629
sS'quarter'
p747
I829
sS'thecredentials'
p748
I361
sS'mulledwine'
p749
I1658
sS'eh'
p750
I1874
sS'torch'
p751
I1361
sS'goose'
p752
I1393
sS'fires'
p753
I2261
sS'gaps'
p754
I1353
sS'begun'
p755
I530
sS'year'
p756
I321
sS'girl'
p757
I1388
sS'breeches'
p758
I649
sS'giddy'
p759
I2114
sS'shown'
p760
I2071
sS'isever'
p761
I1583
sS'space'
p762
I668
sS'profit'
p763
I1341
sS'workingstill'
p764
I2003
sS'hungrybrothers'
p765
I1498
sS'looking'
p766
I570
sS'housemaid'
p767
I1101
sS'churches'
p768
I2137
sS'correct'
p769
I804
sS'hopenot'
p770
I1835
sS'after'
p771
I519
sS'bolts'
p772
I788
sS'anddwindled'
p773
I2093
sS'seventh'
p774
I1369
sS'quite'
p775
I255
sS'inever'
p776
I1263
sS'besides'
p777
I402
sS'care'
p778
I182
sS'vestige'
p779
I907
sS'thatfavour'
p780
I2209
sS'couldnot'
p781
I2257
sS'honest'
p782
I980
sS'thing'
p783
I184
sS'nextmorning'
p784
I465
sS'theirhands'
p785
I337
sS'husband'
p786
I1945
sS'misused'
p787
I672
sS'think'
p788
I445
sS'first'
p789
I275
sS'blind'
p790
I1627
sS'yourself'
p791
I446
sS'isprecious'
p792
I1746
sS'long'
p793
I631
sS'carry'
p794
I1573
sS'impossible'
p795
I2190
sS'open'
p796
I1347
sS"'em"
p797
I738
sS'size'
p798
I1439
sS'city'
p799
I905
sS'given'
p800
I1003
sS'checked'
p801
I2135
sS'penitence'
p802
I1490
sS'caught'
p803
I2084
sS'ourselvesbefore'
p804
I1846
sS'disorderof'
p805
I583
sS'white'
p806
I1321
sS'friend'
p807
I723
sS'eyes'
p808
I1973
sS'that'
p809
I24
sS'season'
p810
I363
sS'shawl'
p811
I1397
sS'hut'
p812
I1537
sS'flowery'
p813
I698
sS'ridiculous'
p814
I287
sS'than'
p815
I288
sS'population'
p816
I1486
sS'wide'
p817
I2242
sS'scraping'
p818
I146
sS'turningout'
p819
I1448
sS'transferred'
p820
I1951
sS'coats'
p821
I1834
sS'future'
p822
I1481
sS'were'
p823
I81
sS'wandering'
p824
I762
sS'and'
p825
I34
sS'addressing'
p826
I345
sS'wasknown'
p827
I125
sS'veryglad'
p828
I389
sS'occupies'
p829
I408
sS'turned'
p830
I617
sS'fori'
p831
I1613
sS'voices'
p832
I780
sS'dash'
p833
I2221
sS'say'
p834
I382
sS'thepath'
p835
I732
sS'buried'
p836
I1881
sS'andirresistible'
p837
I1244
sS'saw'
p838
I1185
sS'any'
p839
I310
sS'triggerwho'
p840
I2172
sS'sat'
p841
I522
sS'speakers'
p842
I1773
sS'sending'
p843
I2178
sS'aside'
p844
I838
sS'inhis'
p845
I1303
sS'take'
p846
I737
sS'upside'
p847
I971
sS'begin'
p848
I16
sS'sure'
p849
I198
sS'altered'
p850
I2072
sS'syllable'
p851
I792
sS'knew'
p852
I74
sS'quarterpast'
p853
I2241
sS'entreaty'
p854
I2087
sS'bowels'
p855
I550
sS'christmascarol'
p856
I1002
sS']'
p857
I981
sS'glancedanxiously'
p858
I1017
sS'especially'
p859
I1114
sS'surprising'
p860
I1307
sS'cloth'
p861
I1459
sS'steady'
p862
I1901
sS'mrs'
p863
I1085
sS"'heartilysorry"
p864
I2016
sS'uncle'
p865
I187
sS'trembled'
p866
I630
sS'quantity'
p867
I666
sS'shop'
p868
I1817
sS'walking'
p869
I1012
sS'shot'
p870
I2171
sS'surplus'
p871
I1485
sS'show'
p872
I1250
sS'asdragging'
p873
I538
sS'cheap'
p874
I493
sS'supposition'
p875
I1235
sS'fervour'
p876
I921
sS'threshold'
p877
I1968
sS'corner'
p878
I2125
sS'butsubstituted'
p879
I565
sS'ground'
p880
I667
sS'whichthe'
p881
I2124
sS'slow'
p882
I651
sS'despairingly'
p883
I1013
sS'dick'
p884
I1058
sS'outside'
p885
I1688
sS'short'
p886
I1183
sS'wasnot'
p887
I894
sS'only'
p888
I452
sS'going'
p889
I103
sS'outrage'
p890
I1632
sS'robe'
p891
I899
sS'butalways'
p892
I1663
sS'plump'
p893
I1604
sS'butsatisfactory'
p894
I1568
sS'rejoiced'
p895
I931
sS'get'
p896
I277
sS'theends'
p897
I2061
sS'clang'
p898
I2142
sS'truly'
p899
I1917
sS'nearly'
p900
I695
sS'lighter'
p901
I1955
sS'startedfrom'
p902
I93
sS'prime'
p903
I1188
sS'speakcomfort'
p904
I636
sS'willyou'
p905
I2210
sS'resource'
p906
I1722
sS'keenly'
p907
I1224
sS'yield'
p908
I1233
sS'fezziwigs'
p909
I1090
sS'roger'
p910
I1119
sS'predicted'
p911
I1146
sS'liable'
p912
I903
sS'where'
p913
I169
sS'silently'
p914
I1729
sS'morose'
p915
I208
sS'sincetheir'
p916
I1465
sS'satenthroned'
p917
I1698
sS'doings'
p918
I1377
sS'afaltering'
p919
I729
sS'unaltered'
p920
I1480
sS'hastened'
p921
I2041
sS'ruined'
p922
I1938
sS'wonder'
p923
I260
sS'leaning'
p924
I1859
sS'alarming'
p925
I813
sS'enough'
p926
I203
sS'moons'
p927
I1145
sS'reading'
p928
I959
sS'across'
p929
I518
sS'whispered'
p930
I2202
sS'shivered'
p931
I707
sS'apparition'
p932
I603
sS'screen'
p933
I1823
sS'tut'
p934
I1283
sS'sobbingviolently'
p935
I2103
sS'plungedhis'
p936
I1110
sS'blame'
p937
I1293
sS'itsshadowy'
p938
I622
sS'countenance'
p939
I726
sS'hurts'
p940
I1972
sS'menacing'
p941
I1702
sS'spark'
p942
I254
sS'come'
p943
I101
sS'givesis'
p944
I1174
sS"there's_such_"
p945
I1392
sS'many'
p946
I86
sS'quiet'
p947
I1797
sS'contract'
p948
I1213
sS'havepain'
p949
I1247
sS'expression'
p950
I273
sS'comes'
p951
I1371
sS'among'
p952
I1497
sS'belinda'
p953
I1446
sS'manyback-payments'
p954
I2207
sS'pot'
p955
I1112
sS'buti'
p956
I1931
sS'satisfaction'
p957
I1582
sS'ifsuch'
p958
I1942
sS'_have_'
p959
I1226
sS'sticks'
p960
I2188
sS'muttered'
p961
I1332
sS'bitter'
p962
I517
sS'mark'
p963
I1531
sS'breath'
p964
I1038
sS'ofhimself'
p965
I1237
sS'vastquantity'
p966
I1755
sS'lustily'
p967
I1557
sS'thanhe'
p968
I1889
sS'formed'
p969
I850
sS'sort'
p970
I2253
sS'observe'
p971
I1260
sS'external'
p972
I157
sS'abject'
p973
I1682
sS'meagre'
p974
I1691
sS'former'
p975
I1005
sS'those'
p976
I841
sS'sound'
p977
I482
sS'myself'
p978
I58
sS'these'
p979
I347
sS'sobbed'
p980
I943
sS"n't"
p981
I84
sS'cast'
p982
I1502
sS'situation'
p983
I2022
sS'shops'
p984
I1346
sS'slippers'
p985
I1304
sS'pleasantest-spoken'
p986
I2006
sS"nephew'shouse"
p987
I2217
sS'then'
p988
I204
sS'brow'
p989
I710
sS'engaged'
p990
I1959
sS'twoto'
p991
I1181
sS'middle'
p992
I549
sS'tiny'
p993
I1021
sS'thesame'
p994
I2109
sS'inquire'
p995
I880
sS'pay'
p996
I822
sS'same'
p997
I137
sS'gentlemen'
p998
I341
sS'dining-room'
p999
I2223
sS'followers'
p1000
I1094
sS'triumphantly'
p1001
I832
sS'struggling'
p1002
I1266
sS'tobob'
p1003
I2179
sS'even-handed'
p1004
I1195
sS'hadnever'
p1005
I551
sS'knowhow'
p1006
I2132
sS'fowls'
p1007
I944
sS'delicate'
p1008
I1035
sS'frisked'
p1009
I2118
sS'tostand'
p1010
I2252
sS"wasn'tfair"
p1011
I1639
sS'hisway'
p1012
I816
sS'genii'
p1013
I972
sS'youever'
p1014
I2007
sS'amazed'
p1015
I1941
sS'being'
p1016
I593
sS'money'
p1017
I1171
sS'rest'
p1018
I640
sS'growled'
p1019
I282
sS'touch'
p1020
I1342
sS'death'
p1021
I1288
sS'hint'
p1022
I1469
sS'thinking'
p1023
I883
sS'rose'
p1024
I896
sS'andsheds'
p1025
I949
sS'struck'
p1026
I1118
sS'itlong'
p1027
I1813
sS'read'
p1028
I1966
sS'ruler'
p1029
I2255
sS'dark'
p1030
I1527
sS'topper'
p1031
I1601
sS'_she_'
p1032
I2232
sS'listening'
p1033
I825
sS'world'
p1034
I285
sS'inthat'
p1035
I1374
sS'dare'
p1036
I1872
sS'furniture'
p1037
I2044
sS'fortune'
p1038
I1176
sS'pounds'
p1039
I1170
sS'miracle'
p1040
I1943
sS"'ve"
p1041
I2155
sS'sternly'
p1042
I227
sS'benefit'
p1043
I1584
sS'nose'
p1044
I1769
sS'claw'
p1045
I1677
sS'downward'
p1046
I2058
sS'twelve'
p1047
I745
sS'satisfactory'
p1048
I1570
sS'laugh'
p1049
I1023
sS"scrooge'snephew"
p1050
I1558
sS'thinks'
p1051
I1427
sS'thedining-room'
p1052
I2227
sS'provided'
p1053
I594
sS'noon'
p1054
I812
sS'defenceless'
p1055
I1269
sS'compulsion'
p1056
I1335
sS'porter'
p1057
I1113
sS'caring'
p1058
I490
sS'inrestless'
p1059
I765
sS'fezziwig'
p1060
I1054
sS'broken'
p1061
I1289
sS'snuff-box'
p1062
I1757
sS'_'
p1063
I223
sS'on'
p1064
I152
sS'gaily'
p1065
I206
sS'oh'
p1066
I139
sS'island'
p1067
I987
sS'industry'
p1068
I1984
sS'thisgirl'
p1069
I1710
sS'fell'
p1070
I280
sS'stand'
p1071
I1828
sS'pockets'
p1072
I650
sS'mixed'
p1073
I1776
sS'washing-day'
p1074
I1458
sS'or'
p1075
I97
sS'ladies'
p1076
I1588
sS'steadiness'
p1077
I854
sS'iwish'
p1078
I1510
sS'theroses'
p1079
I1607
sS'dreaming'
p1080
I991
sS'your'
p1081
I230
sS'her'
p1082
I1102
sS'removing'
p1083
I1808
sS'there'
p1084
I18
sS'hey'
p1085
I1788
sS'twotumblers'
p1086
I1471
sS'low'
p1087
I515
sS'house'
p1088
I485
sS'regard'
p1089
I59
sS"fellow-'prentice"
p1090
I1063
sS'with'
p1091
I17
sS'fruiterers'
p1092
I1348
sS'poulterer'
p1093
I2150
sS'oldsinner'
p1094
I149
sS'rags'
p1095
I1824
sS'dirty'
p1096
I1011
sS'grasp'
p1097
I892
sS'grass'
p1098
I951
sS'flatheresy'
p1099
I1467
sS'darker'
p1100
I1010
sS'gone'
p1101
I696
sS'youalways'
p1102
I1578
sS'ah'
p1103
I1125
sS'am'
p1104
I102
sS'deep'
p1105
I1317
sS'an'
p1106
I325
sS'as'
p1107
I50
sS'at'
p1108
I141
sS'again'
p1109
I216
sS'fiddler'
p1110
I1109
sS'beaming'
p1111
I1091
sS'washing-stand'
p1112
I511
sS'green'
p1113
I1318
sS'thither'
p1114
I764
sS'closebeside'
p1115
I1996
sS'evenings'
p1116
I1979
sS'you'
p1117
I179
sS'dismayed'
p1118
I690
sS'_are_'
p1119
I1214
sS'poor'
p1120
I202
sS'briefly'
p1121
I1049
sS'time'
p1122
I654
sS'begrieved'
p1123
I1981
sS'included'
p1124
I2208
sS'thoughsome'
p1125
I1651
sS'wife'
p1126
I1974
sS'odds'
p1127
I1825
sS'groom'
p1128
I970
sS'makeamends'
p1129
I2099
sS'mourner'
p1130
I36
sS'transports'
p1131
I2136
sS'childish'
p1132
I2027
sS'theybroke'
p1133
I1096
sS'all'
p1134
I136
sS'enshrouded'
p1135
I777
sS'lace'
p1136
I1605
sS'founder'
p1137
I1506
sS'ali'
p1138
I960
sS'caused'
p1139
I1956
sS'long-expected'
p1140
I1934
sS'month'
p1141
I2131
sS'excrescence'
p1142
I1768
sS'ceased'
p1143
I529
sS'thoughtful'
p1144
I647
sS'forged'
p1145
I626
sS'welfare'
p1146
I881
sS'children'
p1147
I1046
sS'dreadful'
p1148
I602
sS'hehas'
p1149
I1977
sS'remarkable'
p1150
I2153
sS'homage'
p1151
I316
sS'garment'
p1152
I1689
sS'herface'
p1153
I1970
sS'opportunities'
p1154
I671
sS'spirit'
p1155
I779
sS'to'
p1156
I15
sS'bonnetfor'
p1157
I1398
sS'walk-er'
p1158
I2166
sS'sundayclothes'
p1159
I2145
sS'smile'
p1160
I1088
sS'hideous'
p1161
I1684
sS'listeners'
p1162
I1774
sS'woman'
p1163
I893
sS'returned'
p1164
I205
sS'sitting'
p1165
I1426
sS'very'
p1166
I183
sS'horror'
p1167
I1891
sS'theyteach'
p1168
I2080
sS'fan'
p1169
I1024
sS'decide'
p1170
I1492
sS'fall'
p1171
I904
sS'awful'
p1172
I590
sS'thisrate'
p1173
I691
sS'gainsay'
p1174
I1043
sS'condition'
p1175
I1739
sS'heaven'
p1176
I909
sS'meanto'
p1177
I1611
sS'--'
p1178
I108
sS'list'
p1179
I343
sS'joined'
p1180
I1640
sS'singularly'
p1181
I866
sS'small'
p1182
I1163
sS'laughingas'
p1183
I1284
sS'relenting'
p1184
I1944
sS'isme'
p1185
I613
sS'rats'
p1186
I1922
sS'overflowings'
p1187
I421
sS'ten'
p1188
I1298
sS'tea'
p1189
I1617
sS'past'
p1190
I794
sS'fiftytimes'
p1191
I2214
sS'observingthat'
p1192
I1751
sS'befriends'
p1193
I302
sS'creatures'
p1194
I773
sS'heknew'
p1195
I1051
sS'what'
p1196
I181
sS'stood'
p1197
I118
sS'darkness'
p1198
I492
sS'clock'
p1199
I796
sS'sun'
p1200
I811
sS'stool'
p1201
I1478
sS'brief'
p1202
I1666
sS'learned'
p1203
I1242
sS'powerfulspeaker'
p1204
I256
sS'full'
p1205
I386
sS'escaping'
p1206
I718
sS'forgive'
p1207
I1372
sS'oldmarley'
p1208
I49
sS'hadonce'
p1209
I471
sS'musthave'
p1210
I799
sS'strong'
p1211
I887
sS'observing'
p1212
I1738
sS'theirparting'
p1213
I1795
sS'extraordinary'
p1214
I2004
sS'succeededyesterday'
p1215
I2197
sS'stretching'
p1216
I1712
sS'misery'
p1217
I1223
sS'preposterousclock'
p1218
I805
sS'followed'
p1219
I218
sS'family'
p1220
I1330
sS'turkey'
p1221
I2158
sS'suddenly'
p1222
I422
sS'clapping'
p1223
I1608
sS'solitude'
p1224
I419
sS'_that_'
p1225
I2014
sS'put'
p1226
I47
sS'lurked'
p1227
I1700
sS'beingchanged'
p1228
I1445
sS'myfate'
p1229
I719
sS'eye'
p1230
I934
sS'takes'
p1231
I1594
sS'distinct'
p1232
I859
sS'wiped'
p1233
I708
sS'asqueezing'
p1234
I143
sS'two'
p1235
I332
sS"that'sthe"
p1236
I1853
sS'notleave'
p1237
I1927
sS'deadest'
p1238
I61
sS'throughhis'
p1239
I497
sS'taken'
p1240
I2203
sS'hurrah'
p1241
I1391
sS'more'
p1242
I286
sS'wretched'
p1243
I1681
sS'door'
p1244
I122
sS'knows'
p1245
I1513
sS'handsomely'
p1246
I176
sS'company'
p1247
I1545
sS'everknew'
p1248
I2013
sS'excuse'
p1249
I403
sS'broke'
p1250
I1151
sS'particular'
p1251
I1107
sS'known'
p1252
I769
sS'workhouses'
p1253
I377
sS'glad'
p1254
I976
sS'town'
p1255
I2192
sS'none'
p1256
I637
sS'hour'
p1257
I434
sS'knocker'
p1258
I479
sS'peals'
p1259
I2139
sS'atlast'
p1260
I1429
sS'stated'
p1261
I1850
sS'gravely'
p1262
I1728
sS'onslaught'
p1263
I1268
sS'share'
p1264
I615
sS'thewound'
p1265
I1906
sS'_am_'
p1266
I2248
sS'sense'
p1267
I1133
sS'cultivate'
p1268
I1551
sS'dress'
p1269
I1747
sS'needs'
p1270
I1366
sS'early'
p1271
I2237
sS'uponthe'
p1272
I743
sS'rather'
p1273
I400
sS'comfort'
p1274
I1262
sS'andknock'
p1275
I2220
sS'glowing'
p1276
I1547
sS'rememberit'
p1277
I924
sS'extinguished'
p1278
I251
sS'creature'
p1279
I1036
sS'sprinkle'
p1280
I1360
sS'tried'
p1281
I790
sS'rude'
p1282
I1264
sS'whichpointed'
p1283
I1057
sS'maychange'
p1284
I2070
sS'coming'
p1285
I295
sS'_not_'
p1286
I855
sS'pleaded'
p1287
I226
sS'a'
p1288
I1
sS'humbug'
p1289
I195
sS'misanthropic'
p1290
I425
sS'toeverybody'
p1291
I2116
sS'dot'
p1292
I2263
sS'quoted'
p1293
I1487
sS'register'
p1294
I26
sS'spectre'
p1295
I592
sS'deserted'
p1296
I938
sS'shade'
p1297
I563
sS'pleasure'
p1298
I344
sS'replied'
p1299
I349
sS'theforfeits'
p1300
I1641
sS'help'
p1301
I1937
sS'essence'
p1302
I2028
sS'soon'
p1303
I876
sS'trade'
p1304
I65
sS'held'
p1305
I1343
sS'through'
p1306
I484
sS'signs'
p1307
I1997
sS'gazed'
p1308
I915
sS'suffer'
p1309
I684
sS'its'
p1310
I420
sS'pray'
p1311
I699
sS'deeds'
p1312
I1904
sS'alli'
p1313
I1761
sS'late'
p1314
I1385
sS'shuddering'
p1315
I1895
sS'astonish'
p1316
I110
sS'dwarfish'
p1317
I873
sS'travelling'
p1318
I653
sS'might'
p1319
I54
sS'ityes'
p1320
I2096
sS'forinstance'
p1321
I107
sS'fool'
p1322
I1884
sS'good'
p1323
I40
sS'somebody'
p1324
I1883
sS'yo'
p1325
I1066
sS'ye'
p1326
I1404
sS'obeyed'
p1327
I1305
sS'moaning'
p1328
I767
sS'foot'
p1329
I1675
sS'aclaw'
p1330
I1676
sS'groped'
p1331
I815
sS'_was_'
p1332
I559
sS'always'
p1333
I722
sS'bless'
p1334
I1053
sS'courses'
p1335
I2059
sS'stopped'
p1336
I754
sS'turns'
p1337
I521
sS'found'
p1338
I1544
sS'heavy'
p1339
I496
sS'hark'
p1340
I1669
sS'diedseven'
p1341
I350
sS'resolute'
p1342
I308
sS'hard'
p1343
I697
sS'ofdecember'
p1344
I458
sS'idea'
p1345
I706
sS'enteredfirst'
p1346
I1802
sS'comforter'
p1347
I2245
sS'oil'
p1348
I1868
sS'expect'
p1349
I734
sS'beyond'
p1350
I577
sS'really'
p1351
I1626
sS'inquired'
p1352
I871
sS'dears'
p1353
I1476
sS'allthree'
p1354
I2076
sS'missed'
p1355
I2148
sS'robert'
p1356
I1511
sS'since'
p1357
I394
sS'health'
p1358
I1517
sS'issue'
p1359
I1141
sS'drink'
p1360
I1516
sS'inearnest'
p1361
I1564
sS'bedlam'
p1362
I329
sS'guess'
p1363
I1282
sS'houses'
p1364
I536
sS'reason'
p1365
I200
sS'thespirit'
p1366
I882
sS'hispartner'
p1367
I1286
sS'ask'
p1368
I300
sS'teach'
p1369
I1340
sS'terrible'
p1370
I1032
sS'christmas-day'
p1371
I1357
sS'ding'
p1372
I827
sS'copper'
p1373
I1456
sS'dine'
p1374
I264
sS'mr'
p1375
I346
sS'hiswits'
p1376
I1154
sS'exulted'
p1377
I1534
sS'valentine'
p1378
I965
sS'feet'
p1379
I840
sS'sisters'
p1380
I1587
sS'done'
p1381
I242
sS'shilling'
p1382
I2168
sS'dong'
p1383
I828
sS'mist'
p1384
I776
sS'miss'
p1385
I1089
sS'story'
p1386
I6
sS'everheard'
p1387
I1428
sS'thecurtains'
p1388
I839
sS'least'
p1389
I1373
sS'wonderful'
p1390
I99
sS'passed'
p1391
I2218
sS'appearedto'
p1392
I1140
sS'hundred'
p1393
I1328
sS'free'
p1394
I1812
sS'bowed'
p1395
I338
sS'behind'
p1396
I1822
sS'part'
p1397
I711
sS'believe'
p1398
I339
sS'grace'
p1399
I1432
sS'fred'
p1400
I1559
sS'kind'
p1401
I1363
sS'grew'
p1402
I1006
sS'kindly'
p1403
I1365
sS'grocers'
p1404
I1351
sS'submissively'
p1405
I1333
sS'liketo'
p1406
I1483
sS'twofish'
p1407
I509
sS'marriage'
p1408
I1466
sS'sister'
p1409
I1631
sS'withered'
p1410
I1039
sS'outto'
p1411
I1122
sS'theshouts'
p1412
I1270
sS'pleasantto'
p1413
I2198
sS'substantial'
p1414
I1087
sS'alike'
p1415
I1281
sS'three-quarters'
p1416
I1674
sS'neverhad'
p1417
I309
sS'hishands'
p1418
I648
sS'ofregret'
p1419
I669
sS'self'
p1420
I957
sS'valueof'
p1421
I1842
sS'amends'
p1422
I670
sS'hadrallied'
p1423
I1417
sS'also'
p1424
I1784
sS'without'
p1425
I324
sS'lip'
p1426
I917
sS'applauded'
p1427
I245
sS'frail'
p1428
I253
sS'finding'
p1429
I897
sS'heavenknows'
p1430
I1240
sS'dancelike'
p1431
I1144
sS'added'
p1432
I258
sS'serve'
p1433
I974
sS'swiftly'
p1434
I1538
sS'buthe'
p1435
I2086
sS'most'
p1436
I685
sS'outstretchedhand'
p1437
I1798
sS'nothing'
p1438
I98
sS'hadentered'
p1439
I785
sS'neverdie'
p1440
I1758
sS'clear'
p1441
I860
sS'sometimes'
p1442
I126
sS'waning'
p1443
I1745
sS'ornot'
p1444
I606
sS'strutted'
p1445
I946
sS'andthe'
p1446
I1267
sS'phenomenon'
p1447
I478
sS'gold'
p1448
I1423
sS'whathad'
p1449
I2000
sS'verywealthy'
p1450
I1785
sS'fine'
p1451
I2147
sS'hedrew'
p1452
I547
sS'chimes'
p1453
I1672
sS'justice'
p1454
I1234
sS'ruin'
p1455
I1854
sS'less'
p1456
I2170
sS'unhappy'
p1457
I1897
sS'thatextremity'
p1458
I274
sS'pretty'
p1459
I1565
sS'andwhy'
p1460
I609
sS'aworthy'
p1461
I2053
sS'merged'
p1462
I1199
sS'ajudgment'
p1463
I1840
sS'his'
p1464
I27
sS'distance'
p1465
I870
sS'farthing'
p1466
I2206
sS'avarice'
p1467
I1915
sS'courage'
p1468
I2219
sS'reply'
p1469
I1653
sS'during'
p1470
I1152
sS'him'
p1471
I138
sS'foranything'
p1472
I1886
sS'cry'
p1473
I620
sS'witha'
p1474
I1882
sS'remove'
p1475
I1290
sS'common'
p1476
I366
sS'double'
p1477
I786
sS'saidscrooge'
p1478
I1734
sS'relentless'
p1479
I1256
sS'repulsed'
p1480
I2090
sS'delicately'
p1481
I849
sS'set'
p1482
I1431
sS'achieved'
p1483
I1464
sS'immediatelysensible'
p1484
I247
sS'see'
p1485
I180
sS'bare'
p1486
I852
sS'are'
p1487
I365
sS'sea'
p1488
I1548
sS'close'
p1489
I869
sS'youhad'
p1490
I1325
sS'heartis'
p1491
I1221
sS'arm'
p1492
I954
sS'oldhonest'
p1493
I964
sS'knees'
p1494
I599
sS'learnt'
p1495
I1336
sS'spirits'
p1496
I355
sS'shutthe'
p1497
I1816
sS'tolls'
p1498
I736
sS'goodafternoon'
p1499
I289
sS'halves'
p1500
I1563
sS'woe'
p1501
I612
sS'flame'
p1502
I543
sS'funeral'
p1503
I89
sS'roundbefore'
p1504
I2047
sS'timidly'
p1505
I1310
sS'invisible'
p1506
I703
sS'clergyman'
p1507
I31
sS'both'
p1508
I133
sS'last'
p1509
I319
sS'thegentlemen'
p1510
I415
sS'sultan'
p1511
I969
sS'became'
p1512
I646
sS'repeatedas'
p1513
I2100
sS'twenty-fifth'
p1514
I457
sS'whole'
p1515
I462
sS'liked'
p1516
I185
sS'onward'
p1517
I1735
sS'point'
p1518
I92
sS'simple'
p1519
I1316
sS'acted'
p1520
I1153
sS'whatever'
p1521
I22
sS'frosty'
p1522
I150
sS'along'
p1523
I2023
sS'hintedscrooge'
p1524
I739
sS'described'
p1525
I537
sS'whom'
p1526
I1037
sS'thenight'
p1527
I781
sS'meeting'
p1528
I1793
sS'labour'
p1529
I1536
sS'firm'
p1530
I124
sS'dialogue'
p1531
I1890
sS'lived'
p1532
I469
sS'hewas'
p1533
I1894
sS'buck'
p1534
I2164
sS'fire'
p1535
I250
sS'nothigh'
p1536
I1135
sS'else'
p1537
I833
sS'lives'
p1538
I771
sS'resisted'
p1539
I895
sS'ifhe'
p1540
I2238
sS'mournful'
p1541
I1015
sS'fur'
p1542
I1322
sS'look'
p1543
I1313
sS'straight'
p1544
I1743
sS'crutch'
p1545
I1409
sS"i'lloffer"
p1546
I1771
sS'kissing'
p1547
I1394
sS'robin'
p1548
I983
sS'agitation'
p1549
I1162
sS'endsto-night'
p1550
I1667
sS'ecstasy'
p1551
I962
sS'itself'
p1552
I831
sS'seen'
p1553
I908
sS'ready'
p1554
I213
sS'untilthe'
p1555
I1204
sS'merrier'
p1556
I2260
sS'clucked'
p1557
I945
sS'engrosses'
p1558
I1207
sS'strangers'
p1559
I1814
sS'forgiveness'
p1560
I1947
sS'daughters'
p1561
I1958
sS'higher'
p1562
I1137
sS'development'
p1563
I1272
sS'covetous'
p1564
I148
sS'used'
p1565
I448
sS'comprehensive'
p1566
I681
sS'yesterday'
p1567
I2251
sS'andyou'
p1568
I1031
sS'moment'
p1569
I215
sS'lumber-room'
p1570
I505
sS'purpose'
p1571
I1115
sS'youmust'
p1572
I2193
sS'personsmeeting'
p1573
I1782
sS'earnest'
p1574
I2167
sS'cratchits'
p1575
I1390
sS'spent'
p1576
I1168
sS'itshall'
p1577
I2250
sS'himin'
p1578
I2169
sS'couldwarm'
p1579
I164
sS'appalled'
p1580
I1704
sS'clasped'
p1581
I548
sS'lads'
p1582
I1080
sS'andgratitude'
p1583
I1279
sS'shape'
p1584
I701
sS'haveconducted'
p1585
I688
sS'scrooge'
p1586
I37
sS'momentis'
p1587
I2031
sS'letting'
p1588
I331
sS'feltwith'
p1589
I2019
sS'helping'
p1590
I1845
sS'observant'
p1591
I872
sS'blankets'
p1592
I1869
sS'relief'
p1593
I817
sS'speedily'
p1594
I1504
sS'entirelyvanished'
p1595
I906
sS'shouting'
p1596
I1265
sS'pronouncing'
p1597
I1496
sS'trialin'
p1598
I315
sS'tell'
p1599
I598
sS'praisedfor'
p1600
I2102
sS'transformation'
p1601
I1308
sS'surprised'
p1602
I2020
sS'useless'
p1603
I412
sS'hadany'
p1604
I1655
sS'big'
p1605
I2161
sS'wilkins'
p1606
I1064
sS'matters'
p1607
I1189
sS'game'
p1608
I1623
sS'shereturned'
p1609
I1220
sS'wiser'
p1610
I1209
sS'bit'
p1611
I1554
sS'asdead'
p1612
I73
sS'sordidreproach'
p1613
I1200
sS'like'
p1614
I486
sS'knock'
p1615
I1935
sS'isthe'
p1616
I1892
sS'provoking'
p1617
I1567
sS'buff'
p1618
I1625
sS'mytrade'
p1619
I678
sS'often'
p1620
I171
sS'hinted'
p1621
I1577
sS'spring'
p1622
I802
sS'fathers'
p1623
I1708
sS'some'
p1624
I1618
sS'back'
p1625
I91
sS'necessaries'
p1626
I367
sS'tounderstand'
p1627
I406
sS'towards'
p1628
I1018
sS'sight'
p1629
I819
sS'pronounced'
p1630
I1909
sS'acquaintance'
p1631
I1552
sS'gruel'
p1632
I2122
sS'stables'
p1633
I947
sS'affects'
p1634
I580
sS'though'
p1635
I545
sS'cheapness'
p1636
I1440
sS'pen'
p1637
I375
sS'behave'
p1638
I1416
sS'tolearn'
p1639
I2050
sS'tends'
p1640
I1898
sS'thelast'
p1641
I252
sS'laughing'
p1642
I1838
sS'meanthat'
p1643
I197
sS'be'
p1644
I79
sS'ofsealing-wax'
p1645
I2189
sS'remembered'
p1646
I1159
sS'fed'
p1647
I1770
sS'step'
p1648
I2249
sS'andthere'
p1649
I1980
sS'by'
p1650
I30
sS'doit'
p1651
I1867
sS'anything'
p1652
I44
sS'yawn'
p1653
I1759
sS'frightful'
p1654
I1683
sS'deserves'
p1655
I1173
sS'mouth'
p1656
I1810
sS'seeing'
p1657
I410
sS'into'
p1658
I775
sS'within'
p1659
I2078
sS'appropriate'
p1660
I566
sS'lesson'
p1661
I1337
sS'whims'
p1662
I1593
sS'few'
p1663
I1169
sS'live'
p1664
I1493
sS'fast'
p1665
I660
sS'parting'
p1666
I2030
sS'forward'
p1667
I1860
sS':'
p1668
I123
sS'youdelight'
p1669
I1252
sS'himself'
p1670
I1186
sS'elsewhere'
p1671
I2036
sS'collapsed'
p1672
I2092
sS'boys'
p1673
I1068
sS'raising'
p1674
I561
sS'up'
p1675
I219
sS'us'
p1676
I265
sS'slander'
p1677
I1714
sS"'re"
p1678
I201
sS'accustomed'
p1679
I2246
sS'faded'
p1680
I774
sS'called'
p1681
I985
sS'thefamily'
p1682
I1526
sS'possession'
p1683
I1301
sS'influence'
p1684
I162
sS'haunt'
p1685
I1295
sS'wereeverywhere'
p1686
I1405
sS"niece'ssister"
p1687
I1603
sS'phantom'
p1688
I1323
sS'scro-o-o-o-oge'
p1689
I1649
sS'peace'
p1690
I655
sS'thoughtof'
p1691
I1227
sS'fineone'
p1692
I1877
sS'referringto'
p1693
I342
sS'imploringly'
p1694
I635
sS'nay'
p1695
I290
sS'nice'
p1696
I2222
sS'forthem'
p1697
I1844
sS'gointo'
p1698
I261
sS'faintly'
p1699
I451
sS'visits'
p1700
I730
sS'door-nail'
p1701
I51
sS'meaning'
p1702
I1807
sS'smiled'
p1703
I450
sS'closedit'
p1704
I480
sS'torecover'
p1705
I1741
sS'ago'
p1706
I351
sS'theinstant'
p1707
I835
sS'suffers'
p1708
I1592
sS'thestreets'
p1709
I2196
sS'strolled'
p1710
I1775
sS'holes'
p1711
I1832
sS'theywere'
p1712
I1962
sS'walked'
p1713
I467
sS'notion'
p1714
I1616
sS'cooked'
p1715
I1437
sS'lying'
p1716
I2033
sS'far'
p1717
I1661
sS'having'
p1718
I210
sS'once'
p1719
I453
sS'pinioned'
p1720
I1257
sS'scratch'
p1721
I1787
sS'waswhom'
p1722
I2032
sS'cratchit'
p1723
I1380
sS'soften'
p1724
I1954
sS'cheerful'
p1725
I191
sS'grinning'
p1726
I2024
sS'go'
p1727
I399
sS'seemed'
p1728
I526
sS'graves'
p1729
I2054
sS'stave'
p1730
I1724
sS'young'
p1731
I1060
sS'rejoined'
p1732
I1193
sS'dislike'
p1733
I1595
sS'torture'
p1734
I1253
sS'skreeks'
p1735
I1818
sS'spiritpaused'
p1736
I1737
sS'miners'
p1737
I1535
sS'putting'
p1738
I1880
sS'onemarley'
p1739
I9
sS'byhalf'
p1740
I1386
sS'beangry'
p1741
I1591
sS'button'
p1742
I491
sS'try'
p1743
I2074
sS'tenderness'
p1744
I1438
sS'laoco\xc3\xb6n'
p1745
I2112
sS'_were_'
p1746
I560
sS'comforts'
p1747
I369
sS'forthe'
p1748
I1836
sS'boots'
p1749
I1629
sS'nephew'
p1750
I196
sS'notwithstanding'
p1751
I327
sS'otherhopes'
p1752
I1198
sS'forhim'
p1753
I2266
sS'foryour'
p1754
I1716
sS'by-the-bye'
p1755
I2012
sS'business'
p1756
I129
sS'giving'
p1757
I1740
sS'expressed'
p1758
I1589
sS'find'
p1759
I306
sS'waiting'
p1760
I2180
sS';'
p1761
I217
sS'bird'
p1762
I2186
sS'youup-stairs'
p1763
I2225
sS'body'
p1764
I1887
sS'lessons'
p1765
I2079
sS'chose'
p1766
I46
sS'exchange'
p1767
I821
sS'coverley'
p1768
I1121
sS'let'
p1769
I233
sS'cab'
p1770
I2194
sS'great'
p1771
I665
sS'uneasy'
p1772
I1048
sS'larger'
p1773
I1007
sS'leaving'
p1774
I1926
sS"'for"
p1775
I2017
sS'opinion'
p1776
I1590
sS'makes'
p1777
I585
sS'thecase'
p1778
I1896
sS'forbid'
p1779
I1044
sS'itnevertheless'
p1780
I1660
sS'baskets'
p1781
I510
sS'addressed'
p1782
I843
sS'decrease'
p1783
I1484
sS'names'
p1784
I134
sS'doubtfully'
p1785
I571
sS'apply'
p1786
I1362
sS'singing'
p1787
I1001
sS'standing'
p1788
I2119
sS'use'
p1789
I1138
sS'lasttime'
p1790
I1723
sS'from'
p1791
I299
sS'neverfinishes'
p1792
I1609
sS'next'
p1793
I741
sS'eleven'
p1794
I1148
sS'doubt'
p1795
I21
sS'agreeable'
p1796
I705
sS'themselves'
p1797
I1378
sS'inthe'
p1798
I64
sS'calledscrooge'
p1799
I130
sS'baba'
p1800
I961
sS'laboured'
p1801
I633
sS'parliament'
p1802
I262
sS'started'
p1803
I1703
sS'inclined'
p1804
I57
sS'thehead'
p1805
I1902
sS'stone'
p1806
I1543
sS'apprenticed'
p1807
I1052
sS'dealings'
p1808
I677
sS'fire-guard'
p1809
I507
sS'baby'
p1810
I2134
sS'gladly'
p1811
I1239
sS'procuring'
p1812
I720
sS'tearing'
p1813
I1919
sS'women'
p1814
I1098
sS'account'
p1815
I1849
sS'this'
p1816
I94
sS'heregarded'
p1817
I1461
sS'anywhere'
p1818
I643
sS'crossed'
p1819
I1967
sS'praise'
p1820
I1136
sS'of'
p1821
I7
sS'anybody'
p1822
I1638
sS'bent'
p1823
I1500
sS'earnestness'
p1824
I2256
sS'lock'
p1825
I2228
sS'purposes'
p1826
I1718
sS'high'
p1827
I1075
sS'beckoned'
p1828
I752
sS'comfortablewith'
p1829
I1581
sS'something'
p1830
I1004
sS'wentforth'
p1831
I1334
sS'sought'
p1832
I1229
sS'sitting-room'
p1833
I503
sS'sir'
p1834
I257
sS'orson'
p1835
I968
sS'shuffled'
p1836
I1302
sS'sit'
p1837
I569
sS'six'
p1838
I1093
sS'parlour'
p1839
I1811
sS'foggier'
p1840
I427
sS'instead'
p1841
I867
sS'intelligent'
p1842
I2152
sS'clasping'
p1843
I910
sS'bothered'
p1844
I823
sS'worldlyhands'
p1845
I877
sS'light'
p1846
I687
sS'interrupted'
p1847
I1600
sS'trembling'
p1848
I624
sS'chief'
p1849
I35
sS'supplication'
p1850
I900
sS'allow'
p1851
I2199
sS'offences'
p1852
I1572
sS'hugged'
p1853
I1419
sS'theundertaker'
p1854
I33
sS'quake'
p1855
I693
sS'mentioned'
p1856
I728
sS'happiest'
p1857
I2098
sS'perfect'
p1858
I2111
sS'namewas'
p1859
I39
sS'lyingthere'
p1860
I1865
sS'glee'
p1861
I1026
sS'shudder'
p1862
I1799
sS'bedpost'
p1863
I2094
sS'themwhen'
p1864
I1911
sS'bye'
p1865
I1772
sS'christmas-time'
p1866
I1790
sS'lunatic'
p1867
I330
sS'twopence'
p1868
I1524
sS'mention'
p1869
I88
sS'hands'
p1870
I600
sS'heartier'
p1871
I2231
sS'kindness'
p1872
I2005
sS'day'
p1873
I438
sS'strive'
p1874
I2077
sS'torelate'
p1875
I104
sS'radiant'
p1876
I1349
sS'feast'
p1877
I1508
sS'sin'
p1878
I1847
sS'delightful'
p1879
I2162
sS'truth'
p1880
I1243
sS'accompanied'
p1881
I1062
sS'beneath'
p1882
I1923
sS'shaking'
p1883
I1016
sS'littlecreek'
p1884
I996
sS'andmuscular'
p1885
I845
sS'theback'
p1886
I953
sS'books'
p1887
I335
sS'our'
p1888
I1212
sS'marley'
p1889
I72
sS'wander'
p1890
I611
sS'witness'
p1891
I614
sS'out'
p1892
I115
sS"'"
p1893
I1345
sS'strongeryet'
p1894
I2089
sS'pleasantry'
p1895
I1762
sS'heartily'
p1896
I2009
sS'shut'
p1897
I495
sS'approached'
p1898
I1730
sS'undo'
p1899
I1855
sS'asimilar'
p1900
I1647
sS'please'
p1901
I2205
sS'surely'
p1902
I1961
sS'shun'
p1903
I731
sS'turnedto'
p1904
I424
sS'weresupposed'
p1905
I1451
sS'princess'
p1906
I979
sS'resumed'
p1907
I725
sS'could'
p1908
I78
sS'keep'
p1909
I228
sS'conversation'
p1910
I1794
sS'length'
p1911
I272
sS'pudding'
p1912
I1455
sS'mortal'
p1913
I901
sS'bobproposed'
p1914
I1475
sS'biting'
p1915
I432
sS'befrightened'
p1916
I488
sS'whoop'
p1917
I2117
sS'seasonable'
p1918
I1789
sS'quality'
p1919
I857
sS'firstof'
p1920
I820
sS'brimful'
p1921
I1025
sS'glisten'
p1922
I935
sS'sha'
p1923
I2173
sS'assembledfriends'
p1924
I1553
sS'werenot'
p1925
I383
sS'their'
p1926
I414
sS'withthe'
p1927
I1767
sS'perfectly'
p1928
I1569
sS'agility'
p1929
I1078
sS'hilli-ho'
p1930
I1073
sS'iwill'
p1931
I2075
sS'doomed'
p1932
I610
sS'nobody'
p1933
I1512
sS"'change"
p1934
I42
sS'loved'
p1935
I1642
sS'aught'
p1936
I1339
sS'becameintense'
p1937
I417
sS'bed'
p1938
I795
sS'helpedit'
p1939
I1992
sS'appealing'
p1940
I1707
sS'visited'
p1941
I1662
sS'withher'
p1942
I1106
sS'false'
p1943
I1276
sS'gently'
p1944
I889
sS'horrors'
p1945
I1450
sS'gentle'
p1946
I865
sS'have'
p1947
I55
sS'chambers'
p1948
I470
sS'clearly'
p1949
I411
sS'afraid'
p1950
I1324
sS'dishes'
p1951
I1430
sS'pursued'
p1952
I713
sS'able'
p1953
I1180
sS'theopposite'
p1954
I572
sS'for'
p1955
I43
sS'which'
p1956
I312
sS'itwas'
p1957
I135
sS'great-coat'
p1958
I460
sS'_i_'
p1959
I1241
sS'theirproceedings'
p1960
I1521
sS'clash'
p1961
I2140
sS'who'
p1962
I558
sS'connected'
p1963
I1796
sS'thewhole'
p1964
I271
sS'why'
p1965
I276
sS'deny'
p1966
I1711
sS'inexorable'
p1967
I2038
sS'bred'
p1968
I912
sS'face'
p1969
I475
sS'looked'
p1970
I476
sS'uppermembers'
p1971
I851
sS'scrambled'
p1972
I814
sS'_he_'
p1973
I977
sS'christmas-eves'
p1974
I632
sS'whichwas'
p1975
I1528
sS'ho'
p1976
I1067
sS'son'
p1977
I111
sS'rings'
p1978
I1864
sS'supported'
p1979
I1411
sS'bring'
p1980
I1019
sS'infive'
p1981
I2230
sS'rebuke'
p1982
I1501
sS'bedroom'
p1983
I504
sS'fear'
p1984
I1197
sS'ipromised'
p1985
I1990
sS'thefigure'
p1986
I2045
sS'partners'
p1987
I82
sS'pause'
p1988
I1435
sS're-echoed'
p1989
I1477
sS'clutching'
p1990
I147
sS'itwould'
p1991
I858
sS'undergonea'
p1992
I1306
sS'wasolder'
p1993
I1187
sS'should'
p1994
I225
sS'howthe'
p1995
I1533
sS'employed'
p1996
I1099
sS'thehouse'
p1997
I2034
sS'thousands'
p1998
I364
sS'hope'
p1999
I717
sS'meant'
p2000
I2211
sS'handle'
p2001
I1474
sS'listened'
p2002
I793
sS'thealphabet'
p2003
I1644
sS'beat'
p2004
I808
sS'bear'
p2005
I1294
sS'wassuch'
p2006
I1436
sS'words'
p2007
I1008
sS'infernalatmosphere'
p2008
I595
sS'spur'
p2009
I214
sS'thatwas'
p2010
I2239
sS'places'
p2011
I1368
sS'married'
p2012
I278
sS'calling'
p2013
I1820
sS'relents'
p2014
I1940
sS'yellow'
p2015
I1690
sS'she'
p2016
I1041
sS'shrunk'
p2017
I2091
sS'ogre'
p2018
I1525
sS'frame'
p2019
I1413
sS'indignantly'
p2020
I1561
sS'signed'
p2021
I29
sS'desperate'
p2022
I756
sS'boymust'
p2023
I1965
sS'pattern'
p2024
I627
sS'hesaid'
p2025
I2010
sS'state'
p2026
I1648
sS'closed'
p2027
I783
sS'suchwas'
p2028
I673
sS'neither'
p2029
I1731
sS'sold'
p2030
I2156
sS'wiry'
p2031
I155
sS'lookedabout'
p2032
I911
sS'importance'
p2033
I1786
sS'joy'
p2034
I1278
sS'interfere'
p2035
I407
sS'spared'
p2036
I1482
sS'joe'
p2037
I1804
sS'merry'
p2038
I186
sS'wanderingspirits'
p2039
I2127
sS'precious'
p2040
I1379
sS'staring'
p2041
I1829
sS'saidthe'
p2042
I1040
sS'joke'
p2043
I2177
sS'taking'
p2044
I1396
sS'assure'
p2045
I2069
sS'admit'
p2046
I1715
sS'wringing'
p2047
I674
sS'passing'
p2048
I1540
sS'andfeel'
p2049
I1800
sS'glorious'
p2050
I2143
sS'otherwise'
p2051
I80
sS"'and"
p2052
I2011
sS'wall'
p2053
I1541
sS'ca'
p2054
I396
sS'walk'
p2055
I607
sS'running'
p2056
I995
sS'foldings'
p2057
I1680
sS'worldly'
p2058
I605
sS'table'
p2059
I1969
sS'clungupon'
p2060
I1687
sS'tread'
p2061
I733
sS'tremendous'
p2062
I1329
sS'grindstone'
p2063
I142
sS'thankee'
p2064
I724
sS'immense'
p2065
I1275
sS'drank'
p2066
I1519
sS'slowly'
p2067
I1727
sS'certain'
p2068
I1050
sS'half-hour'
p2069
I1645
sS'andunderwent'
p2070
I1161
sS'senses'
p2071
I579
sS'general'
p2072
I1763
sS'painted'
p2073
I114
sS'moved'
p2074
I1732
sS'ofgratitude'
p2075
I1166
sS'unmoved'
p2076
I1929
sS'fellow'
p2077
I1514
sS'present'
p2078
I1312
sS'volunteer'
p2079
I1765
sS'homes'
p2080
I686
sS'fearful'
p2081
I1925
sS'plain'
p2082
I1843
sS'value'
p2083
I1232
sS'will'
p2084
I178
sS'onlyone'
p2085
I284
sS'muchhappiness'
p2086
I2215
sS'mused'
p2087
I652
sS'ringing'
p2088
I1673
sS'almost'
p2089
I727
sS'thus'
p2090
I2062
sS'examined'
p2091
I784
sS'against'
p2092
I1576
sS'partner'
p2093
I474
sS'hecould'
p2094
I778
sS'cometo'
p2095
I2018
sS'glared'
p2096
I1701
sS'perhaps'
p2097
I1172
sS'began'
p2098
I692
sS'cross'
p2099
I220
sS'strange'
p2100
I628
sS'merciful'
p2101
I1899
sS'party'
p2102
I313
sS'gets'
p2103
I1425
sS'ball'
p2104
I1150
sS'forgotten'
p2105
I923
sS'upon'
p2106
I41
sS'introduce'
p2107
I1550
sS'dust'
p2108
I1499
sS'tinytim'
p2109
I2025
sS'pleasantly'
p2110
I1982
sS'underneath'
p2111
I2052
sS'scarcely'
p2112
I2184
sS'off'
p2113
I1203
sS'lunch'
p2114
I1766
sS'i'
p2115
I53
sS'colour'
p2116
I1971
sS'well'
p2117
I597
sS'entering'
p2118
I2048
sS'thought'
p2119
I990
sS'aparty'
p2120
I1764
sS'exceedingly'
p2121
I694
sS'drawing'
p2122
I1670
sS'usual'
p2123
I506
sS'bending'
p2124
I1022
sS'cried'
p2125
I190
sS'flesh'
p2126
I1678
sS'theevent'
p2127
I1957
sS'domestic'
p2128
I1149
sS'mistaken'
p2129
I2258
sS'aspirations'
p2130
I1202
sS'recollection'
p2131
I500
sS'rooms'
p2132
I498
sS'askedscrooge'
p2133
I863
sS'roomhere'
p2134
I1082
sS'paul'
p2135
I105
sS'inoperation'
p2136
I380
sS'wouldhave'
p2137
I1128
sS'happiness'
p2138
I618
sS'rapid'
p2139
I806
sS'workingnow'
p2140
I1338
sS'thesort'
p2141
I1116
sS'tight'
p2142
I2064
sS'bell'
p2143
I735
sS'thearm'
p2144
I890
sS'drew'
p2145
I2001
sS'ignorance'
p2146
I1709
sS'book'
p2147
I1976
sS'wet'
p2148
I2105
sS'heartiness'
p2149
I1522
sS'matched'
p2150
I1821
sS'match'
p2151
I1129
sS'five'
p2152
I1530
sS'know'
p2153
I85
sS'knot'
p2154
I1750
sS'desk'
p2155
I1076
sS'ghostmarley'
p2156
I11
sS'immediately'
p2157
I884
sS'loss'
p2158
I1837
sS'displaced'
p2159
I1192
sS'hecorroborated'
p2160
I1157
sS'success'
p2161
I1463
sS'loses'
p2162
I1599
sS'heed'
p2163
I886
sS'lose'
p2164
I1598
sS'works'
p2165
I800
sS'soft'
p2166
I864
sS'likes'
p2167
I1612
sS'gotpeter'
p2168
I2021
sS'because'
p2169
I279
sS'underwent'
p2170
I2039
sS'belonged'
p2171
I472
sS'reclamation'
p2172
I885
sS'searching'
p2173
I431
sS'alive'
p2174
I1055
sS'immortal'
p2175
I1908
sS'christmasstave'
p2176
I8
sS'itbroke'
p2177
I824
sS'home'
p2178
I782
sS'peter'
p2179
I1975
sS'leaf'
p2180
I1495
sS'lead'
p2181
I1744
sS'literally'
p2182
I109
sS'objected'
p2183
I1652
sS'shone'
p2184
I1143
sS'leap'
p2185
I936
sS'passion'
p2186
I1205
sS'saucepan'
p2187
I2121
sS'mybusiness'
p2188
I676
sS'chains'
p2189
I539
sS'slight'
p2190
I582
sS'phantoms'
p2191
I761
sS'anoffice'
p2192
I2043
sS'fivethe'
p2193
I2095
sS'worthy'
p2194
I1132
sS'snapped'
p2195
I2187
sS'ominousword'
p2196
I356
sS'refuge'
p2197
I1721
sS'about'
p2198
I23
sS'carried'
p2199
I1748
sS'linger'
p2200
I642
sS'thesize'
p2201
I2175
sS'withdrew'
p2202
I416
sS'foretold'
p2203
I862
sS'blessings'
p2204
I1532
sS'withwonderful'
p2205
I1077
sS'own'
p2206
I231
sS'letters'
p2207
I1643
sS'fettered'
p2208
I623
sS'bed-curtains'
p2209
I1858
sS'weather'
p2210
I166
sS'camden'
p2211
I2191
sS'thenremembered'
p2212
I532
sS'peoplein'
p2213
I334
sS'whydid'
p2214
I933
sS'custard'
p2215
I1472
sS'*'
p2216
I2264
sS'theirown'
p2217
I1574
sS'thefeast'
p2218
I1507
sS'theman'
p2219
I2065
sS'takecold'
p2220
I1871
sS'globe'
p2221
I1665
sS'buy'
p2222
I2165
sS'repeater'
p2223
I803
sS'blessthose'
p2224
I1562
sS'but'
p2225
I131
sS'repeated'
p2226
I235
sS'gain'
p2227
I1206
sS'ear'
p2228
I826
sS'he'
p2229
I45
sS'made'
p2230
I314
sS'glory'
p2231
I1350
sS'whether'
p2232
I772
sS'wish'
p2233
I381
sS"you'reparticular"
p2234
I562
sS'catching'
p2235
I1873
sS'piece'
p2236
I62
sS'minutes'
p2237
I1299
sS'uglier'
p2238
I1888
sS'somethingvery'
p2239
I589
sS'knewwhere'
p2240
I1636
sS'universal'
p2241
I1442
sS'therelately'
p2242
I1998
sS'gnawing'
p2243
I1921
sS'startingoff'
p2244
I2123
sS'goodness'
p2245
I2201
sS'theperspiration'
p2246
I709
sS'ina'
p2247
I1084
sS'worse'
p2248
I1719
sS'answerhe'
p2249
I1736
sS"'ll"
p2250
I317
sS'dressed'
p2251
I2195
sS'other'
p2252
I333
sS'behold'
p2253
I2035
sS'wantwith'
p2254
I557
sS'repeat'
p2255
I70
sS'bundle'
p2256
I1841
sS'stay'
p2257
I641
sS'church-yard'
p2258
I106
sS'chance'
p2259
I716
sS'wrenching'
p2260
I144
sS'friends'
p2261
I942
sS'opened'
p2262
I2144
sS'ghost'
p2263
I5
sS'sentiment'
p2264
I1650
sS'baker'
p2265
I1104
sS'lasted'
p2266
I523
sS'understand'
p2267
I1930
s.